
;CodeVisionAVR C Compiler V2.05.6 
;(C) Copyright 1998-2012 Pavel Haiduc, HP InfoTech s.r.l.
;http://www.hpinfotech.com

;Chip type              : ATmega32
;Program type           : Application
;Clock frequency        : 4.000000 MHz
;Memory model           : Small
;Optimize for           : Size
;(s)printf features     : int, width
;(s)scanf features      : int, width
;External RAM size      : 0
;Data Stack size        : 512 byte(s)
;Heap size              : 0 byte(s)
;Promote 'char' to 'int': Yes
;'char' is unsigned     : Yes
;8 bit enums            : Yes
;Global 'const' stored in FLASH: No
;Enhanced function parameter passing: Yes
;Enhanced core instructions: On
;Automatic register allocation for global variables: On
;Smart register allocation: On

	#pragma AVRPART ADMIN PART_NAME ATmega32
	#pragma AVRPART MEMORY PROG_FLASH 32768
	#pragma AVRPART MEMORY EEPROM 1024
	#pragma AVRPART MEMORY INT_SRAM SIZE 2048
	#pragma AVRPART MEMORY INT_SRAM START_ADDR 0x60

	#define CALL_SUPPORTED 1

	.LISTMAC
	.EQU UDRE=0x5
	.EQU RXC=0x7
	.EQU USR=0xB
	.EQU UDR=0xC
	.EQU SPSR=0xE
	.EQU SPDR=0xF
	.EQU EERE=0x0
	.EQU EEWE=0x1
	.EQU EEMWE=0x2
	.EQU EECR=0x1C
	.EQU EEDR=0x1D
	.EQU EEARL=0x1E
	.EQU EEARH=0x1F
	.EQU WDTCR=0x21
	.EQU MCUCR=0x35
	.EQU GICR=0x3B
	.EQU SPL=0x3D
	.EQU SPH=0x3E
	.EQU SREG=0x3F

	.DEF R0X0=R0
	.DEF R0X1=R1
	.DEF R0X2=R2
	.DEF R0X3=R3
	.DEF R0X4=R4
	.DEF R0X5=R5
	.DEF R0X6=R6
	.DEF R0X7=R7
	.DEF R0X8=R8
	.DEF R0X9=R9
	.DEF R0XA=R10
	.DEF R0XB=R11
	.DEF R0XC=R12
	.DEF R0XD=R13
	.DEF R0XE=R14
	.DEF R0XF=R15
	.DEF R0X10=R16
	.DEF R0X11=R17
	.DEF R0X12=R18
	.DEF R0X13=R19
	.DEF R0X14=R20
	.DEF R0X15=R21
	.DEF R0X16=R22
	.DEF R0X17=R23
	.DEF R0X18=R24
	.DEF R0X19=R25
	.DEF R0X1A=R26
	.DEF R0X1B=R27
	.DEF R0X1C=R28
	.DEF R0X1D=R29
	.DEF R0X1E=R30
	.DEF R0X1F=R31

	.EQU __SRAM_START=0x0060
	.EQU __SRAM_END=0x085F
	.EQU __DSTACK_SIZE=0x0200
	.EQU __HEAP_SIZE=0x0000
	.EQU __CLEAR_SRAM_SIZE=__SRAM_END-__SRAM_START+1

	.MACRO __CPD1N
	CPI  R30,LOW(@0)
	LDI  R26,HIGH(@0)
	CPC  R31,R26
	LDI  R26,BYTE3(@0)
	CPC  R22,R26
	LDI  R26,BYTE4(@0)
	CPC  R23,R26
	.ENDM

	.MACRO __CPD2N
	CPI  R26,LOW(@0)
	LDI  R30,HIGH(@0)
	CPC  R27,R30
	LDI  R30,BYTE3(@0)
	CPC  R24,R30
	LDI  R30,BYTE4(@0)
	CPC  R25,R30
	.ENDM

	.MACRO __CPWRR
	CP   R@0,R@2
	CPC  R@1,R@3
	.ENDM

	.MACRO __CPWRN
	CPI  R@0,LOW(@2)
	LDI  R30,HIGH(@2)
	CPC  R@1,R30
	.ENDM

	.MACRO __ADDB1MN
	SUBI R30,LOW(-@0-(@1))
	.ENDM

	.MACRO __ADDB2MN
	SUBI R26,LOW(-@0-(@1))
	.ENDM

	.MACRO __ADDW1MN
	SUBI R30,LOW(-@0-(@1))
	SBCI R31,HIGH(-@0-(@1))
	.ENDM

	.MACRO __ADDW2MN
	SUBI R26,LOW(-@0-(@1))
	SBCI R27,HIGH(-@0-(@1))
	.ENDM

	.MACRO __ADDW1FN
	SUBI R30,LOW(-2*@0-(@1))
	SBCI R31,HIGH(-2*@0-(@1))
	.ENDM

	.MACRO __ADDD1FN
	SUBI R30,LOW(-2*@0-(@1))
	SBCI R31,HIGH(-2*@0-(@1))
	SBCI R22,BYTE3(-2*@0-(@1))
	.ENDM

	.MACRO __ADDD1N
	SUBI R30,LOW(-@0)
	SBCI R31,HIGH(-@0)
	SBCI R22,BYTE3(-@0)
	SBCI R23,BYTE4(-@0)
	.ENDM

	.MACRO __ADDD2N
	SUBI R26,LOW(-@0)
	SBCI R27,HIGH(-@0)
	SBCI R24,BYTE3(-@0)
	SBCI R25,BYTE4(-@0)
	.ENDM

	.MACRO __SUBD1N
	SUBI R30,LOW(@0)
	SBCI R31,HIGH(@0)
	SBCI R22,BYTE3(@0)
	SBCI R23,BYTE4(@0)
	.ENDM

	.MACRO __SUBD2N
	SUBI R26,LOW(@0)
	SBCI R27,HIGH(@0)
	SBCI R24,BYTE3(@0)
	SBCI R25,BYTE4(@0)
	.ENDM

	.MACRO __ANDBMNN
	LDS  R30,@0+(@1)
	ANDI R30,LOW(@2)
	STS  @0+(@1),R30
	.ENDM

	.MACRO __ANDWMNN
	LDS  R30,@0+(@1)
	ANDI R30,LOW(@2)
	STS  @0+(@1),R30
	LDS  R30,@0+(@1)+1
	ANDI R30,HIGH(@2)
	STS  @0+(@1)+1,R30
	.ENDM

	.MACRO __ANDD1N
	ANDI R30,LOW(@0)
	ANDI R31,HIGH(@0)
	ANDI R22,BYTE3(@0)
	ANDI R23,BYTE4(@0)
	.ENDM

	.MACRO __ANDD2N
	ANDI R26,LOW(@0)
	ANDI R27,HIGH(@0)
	ANDI R24,BYTE3(@0)
	ANDI R25,BYTE4(@0)
	.ENDM

	.MACRO __ORBMNN
	LDS  R30,@0+(@1)
	ORI  R30,LOW(@2)
	STS  @0+(@1),R30
	.ENDM

	.MACRO __ORWMNN
	LDS  R30,@0+(@1)
	ORI  R30,LOW(@2)
	STS  @0+(@1),R30
	LDS  R30,@0+(@1)+1
	ORI  R30,HIGH(@2)
	STS  @0+(@1)+1,R30
	.ENDM

	.MACRO __ORD1N
	ORI  R30,LOW(@0)
	ORI  R31,HIGH(@0)
	ORI  R22,BYTE3(@0)
	ORI  R23,BYTE4(@0)
	.ENDM

	.MACRO __ORD2N
	ORI  R26,LOW(@0)
	ORI  R27,HIGH(@0)
	ORI  R24,BYTE3(@0)
	ORI  R25,BYTE4(@0)
	.ENDM

	.MACRO __DELAY_USB
	LDI  R24,LOW(@0)
__DELAY_USB_LOOP:
	DEC  R24
	BRNE __DELAY_USB_LOOP
	.ENDM

	.MACRO __DELAY_USW
	LDI  R24,LOW(@0)
	LDI  R25,HIGH(@0)
__DELAY_USW_LOOP:
	SBIW R24,1
	BRNE __DELAY_USW_LOOP
	.ENDM

	.MACRO __GETD1S
	LDD  R30,Y+@0
	LDD  R31,Y+@0+1
	LDD  R22,Y+@0+2
	LDD  R23,Y+@0+3
	.ENDM

	.MACRO __GETD2S
	LDD  R26,Y+@0
	LDD  R27,Y+@0+1
	LDD  R24,Y+@0+2
	LDD  R25,Y+@0+3
	.ENDM

	.MACRO __PUTD1S
	STD  Y+@0,R30
	STD  Y+@0+1,R31
	STD  Y+@0+2,R22
	STD  Y+@0+3,R23
	.ENDM

	.MACRO __PUTD2S
	STD  Y+@0,R26
	STD  Y+@0+1,R27
	STD  Y+@0+2,R24
	STD  Y+@0+3,R25
	.ENDM

	.MACRO __PUTDZ2
	STD  Z+@0,R26
	STD  Z+@0+1,R27
	STD  Z+@0+2,R24
	STD  Z+@0+3,R25
	.ENDM

	.MACRO __CLRD1S
	STD  Y+@0,R30
	STD  Y+@0+1,R30
	STD  Y+@0+2,R30
	STD  Y+@0+3,R30
	.ENDM

	.MACRO __POINTB1MN
	LDI  R30,LOW(@0+(@1))
	.ENDM

	.MACRO __POINTW1MN
	LDI  R30,LOW(@0+(@1))
	LDI  R31,HIGH(@0+(@1))
	.ENDM

	.MACRO __POINTD1M
	LDI  R30,LOW(@0)
	LDI  R31,HIGH(@0)
	LDI  R22,BYTE3(@0)
	LDI  R23,BYTE4(@0)
	.ENDM

	.MACRO __POINTW1FN
	LDI  R30,LOW(2*@0+(@1))
	LDI  R31,HIGH(2*@0+(@1))
	.ENDM

	.MACRO __POINTD1FN
	LDI  R30,LOW(2*@0+(@1))
	LDI  R31,HIGH(2*@0+(@1))
	LDI  R22,BYTE3(2*@0+(@1))
	LDI  R23,BYTE4(2*@0+(@1))
	.ENDM

	.MACRO __POINTB2MN
	LDI  R26,LOW(@0+(@1))
	.ENDM

	.MACRO __POINTW2MN
	LDI  R26,LOW(@0+(@1))
	LDI  R27,HIGH(@0+(@1))
	.ENDM

	.MACRO __POINTW2FN
	LDI  R26,LOW(2*@0+(@1))
	LDI  R27,HIGH(2*@0+(@1))
	.ENDM

	.MACRO __POINTD2FN
	LDI  R26,LOW(2*@0+(@1))
	LDI  R27,HIGH(2*@0+(@1))
	LDI  R24,BYTE3(2*@0+(@1))
	LDI  R25,BYTE4(2*@0+(@1))
	.ENDM

	.MACRO __POINTBRM
	LDI  R@0,LOW(@1)
	.ENDM

	.MACRO __POINTWRM
	LDI  R@0,LOW(@2)
	LDI  R@1,HIGH(@2)
	.ENDM

	.MACRO __POINTBRMN
	LDI  R@0,LOW(@1+(@2))
	.ENDM

	.MACRO __POINTWRMN
	LDI  R@0,LOW(@2+(@3))
	LDI  R@1,HIGH(@2+(@3))
	.ENDM

	.MACRO __POINTWRFN
	LDI  R@0,LOW(@2*2+(@3))
	LDI  R@1,HIGH(@2*2+(@3))
	.ENDM

	.MACRO __GETD1N
	LDI  R30,LOW(@0)
	LDI  R31,HIGH(@0)
	LDI  R22,BYTE3(@0)
	LDI  R23,BYTE4(@0)
	.ENDM

	.MACRO __GETD2N
	LDI  R26,LOW(@0)
	LDI  R27,HIGH(@0)
	LDI  R24,BYTE3(@0)
	LDI  R25,BYTE4(@0)
	.ENDM

	.MACRO __GETB1MN
	LDS  R30,@0+(@1)
	.ENDM

	.MACRO __GETB1HMN
	LDS  R31,@0+(@1)
	.ENDM

	.MACRO __GETW1MN
	LDS  R30,@0+(@1)
	LDS  R31,@0+(@1)+1
	.ENDM

	.MACRO __GETD1MN
	LDS  R30,@0+(@1)
	LDS  R31,@0+(@1)+1
	LDS  R22,@0+(@1)+2
	LDS  R23,@0+(@1)+3
	.ENDM

	.MACRO __GETBRMN
	LDS  R@0,@1+(@2)
	.ENDM

	.MACRO __GETWRMN
	LDS  R@0,@2+(@3)
	LDS  R@1,@2+(@3)+1
	.ENDM

	.MACRO __GETWRZ
	LDD  R@0,Z+@2
	LDD  R@1,Z+@2+1
	.ENDM

	.MACRO __GETD2Z
	LDD  R26,Z+@0
	LDD  R27,Z+@0+1
	LDD  R24,Z+@0+2
	LDD  R25,Z+@0+3
	.ENDM

	.MACRO __GETB2MN
	LDS  R26,@0+(@1)
	.ENDM

	.MACRO __GETW2MN
	LDS  R26,@0+(@1)
	LDS  R27,@0+(@1)+1
	.ENDM

	.MACRO __GETD2MN
	LDS  R26,@0+(@1)
	LDS  R27,@0+(@1)+1
	LDS  R24,@0+(@1)+2
	LDS  R25,@0+(@1)+3
	.ENDM

	.MACRO __PUTB1MN
	STS  @0+(@1),R30
	.ENDM

	.MACRO __PUTW1MN
	STS  @0+(@1),R30
	STS  @0+(@1)+1,R31
	.ENDM

	.MACRO __PUTD1MN
	STS  @0+(@1),R30
	STS  @0+(@1)+1,R31
	STS  @0+(@1)+2,R22
	STS  @0+(@1)+3,R23
	.ENDM

	.MACRO __PUTB1EN
	LDI  R26,LOW(@0+(@1))
	LDI  R27,HIGH(@0+(@1))
	CALL __EEPROMWRB
	.ENDM

	.MACRO __PUTW1EN
	LDI  R26,LOW(@0+(@1))
	LDI  R27,HIGH(@0+(@1))
	CALL __EEPROMWRW
	.ENDM

	.MACRO __PUTD1EN
	LDI  R26,LOW(@0+(@1))
	LDI  R27,HIGH(@0+(@1))
	CALL __EEPROMWRD
	.ENDM

	.MACRO __PUTBR0MN
	STS  @0+(@1),R0
	.ENDM

	.MACRO __PUTBMRN
	STS  @0+(@1),R@2
	.ENDM

	.MACRO __PUTWMRN
	STS  @0+(@1),R@2
	STS  @0+(@1)+1,R@3
	.ENDM

	.MACRO __PUTBZR
	STD  Z+@1,R@0
	.ENDM

	.MACRO __PUTWZR
	STD  Z+@2,R@0
	STD  Z+@2+1,R@1
	.ENDM

	.MACRO __GETW1R
	MOV  R30,R@0
	MOV  R31,R@1
	.ENDM

	.MACRO __GETW2R
	MOV  R26,R@0
	MOV  R27,R@1
	.ENDM

	.MACRO __GETWRN
	LDI  R@0,LOW(@2)
	LDI  R@1,HIGH(@2)
	.ENDM

	.MACRO __PUTW1R
	MOV  R@0,R30
	MOV  R@1,R31
	.ENDM

	.MACRO __PUTW2R
	MOV  R@0,R26
	MOV  R@1,R27
	.ENDM

	.MACRO __ADDWRN
	SUBI R@0,LOW(-@2)
	SBCI R@1,HIGH(-@2)
	.ENDM

	.MACRO __ADDWRR
	ADD  R@0,R@2
	ADC  R@1,R@3
	.ENDM

	.MACRO __SUBWRN
	SUBI R@0,LOW(@2)
	SBCI R@1,HIGH(@2)
	.ENDM

	.MACRO __SUBWRR
	SUB  R@0,R@2
	SBC  R@1,R@3
	.ENDM

	.MACRO __ANDWRN
	ANDI R@0,LOW(@2)
	ANDI R@1,HIGH(@2)
	.ENDM

	.MACRO __ANDWRR
	AND  R@0,R@2
	AND  R@1,R@3
	.ENDM

	.MACRO __ORWRN
	ORI  R@0,LOW(@2)
	ORI  R@1,HIGH(@2)
	.ENDM

	.MACRO __ORWRR
	OR   R@0,R@2
	OR   R@1,R@3
	.ENDM

	.MACRO __EORWRR
	EOR  R@0,R@2
	EOR  R@1,R@3
	.ENDM

	.MACRO __GETWRS
	LDD  R@0,Y+@2
	LDD  R@1,Y+@2+1
	.ENDM

	.MACRO __PUTBSR
	STD  Y+@1,R@0
	.ENDM

	.MACRO __PUTWSR
	STD  Y+@2,R@0
	STD  Y+@2+1,R@1
	.ENDM

	.MACRO __MOVEWRR
	MOV  R@0,R@2
	MOV  R@1,R@3
	.ENDM

	.MACRO __INWR
	IN   R@0,@2
	IN   R@1,@2+1
	.ENDM

	.MACRO __OUTWR
	OUT  @2+1,R@1
	OUT  @2,R@0
	.ENDM

	.MACRO __CALL1MN
	LDS  R30,@0+(@1)
	LDS  R31,@0+(@1)+1
	ICALL
	.ENDM

	.MACRO __CALL1FN
	LDI  R30,LOW(2*@0+(@1))
	LDI  R31,HIGH(2*@0+(@1))
	CALL __GETW1PF
	ICALL
	.ENDM

	.MACRO __CALL2EN
	LDI  R26,LOW(@0+(@1))
	LDI  R27,HIGH(@0+(@1))
	CALL __EEPROMRDW
	ICALL
	.ENDM

	.MACRO __GETW1STACK
	IN   R26,SPL
	IN   R27,SPH
	ADIW R26,@0+1
	LD   R30,X+
	LD   R31,X
	.ENDM

	.MACRO __GETD1STACK
	IN   R26,SPL
	IN   R27,SPH
	ADIW R26,@0+1
	LD   R30,X+
	LD   R31,X+
	LD   R22,X
	.ENDM

	.MACRO __NBST
	BST  R@0,@1
	IN   R30,SREG
	LDI  R31,0x40
	EOR  R30,R31
	OUT  SREG,R30
	.ENDM


	.MACRO __PUTB1SN
	LDD  R26,Y+@0
	LDD  R27,Y+@0+1
	SUBI R26,LOW(-@1)
	SBCI R27,HIGH(-@1)
	ST   X,R30
	.ENDM

	.MACRO __PUTW1SN
	LDD  R26,Y+@0
	LDD  R27,Y+@0+1
	SUBI R26,LOW(-@1)
	SBCI R27,HIGH(-@1)
	ST   X+,R30
	ST   X,R31
	.ENDM

	.MACRO __PUTD1SN
	LDD  R26,Y+@0
	LDD  R27,Y+@0+1
	SUBI R26,LOW(-@1)
	SBCI R27,HIGH(-@1)
	CALL __PUTDP1
	.ENDM

	.MACRO __PUTB1SNS
	LDD  R26,Y+@0
	LDD  R27,Y+@0+1
	ADIW R26,@1
	ST   X,R30
	.ENDM

	.MACRO __PUTW1SNS
	LDD  R26,Y+@0
	LDD  R27,Y+@0+1
	ADIW R26,@1
	ST   X+,R30
	ST   X,R31
	.ENDM

	.MACRO __PUTD1SNS
	LDD  R26,Y+@0
	LDD  R27,Y+@0+1
	ADIW R26,@1
	CALL __PUTDP1
	.ENDM

	.MACRO __PUTB1PMN
	LDS  R26,@0
	LDS  R27,@0+1
	SUBI R26,LOW(-@1)
	SBCI R27,HIGH(-@1)
	ST   X,R30
	.ENDM

	.MACRO __PUTW1PMN
	LDS  R26,@0
	LDS  R27,@0+1
	SUBI R26,LOW(-@1)
	SBCI R27,HIGH(-@1)
	ST   X+,R30
	ST   X,R31
	.ENDM

	.MACRO __PUTD1PMN
	LDS  R26,@0
	LDS  R27,@0+1
	SUBI R26,LOW(-@1)
	SBCI R27,HIGH(-@1)
	CALL __PUTDP1
	.ENDM

	.MACRO __PUTB1PMNS
	LDS  R26,@0
	LDS  R27,@0+1
	ADIW R26,@1
	ST   X,R30
	.ENDM

	.MACRO __PUTW1PMNS
	LDS  R26,@0
	LDS  R27,@0+1
	ADIW R26,@1
	ST   X+,R30
	ST   X,R31
	.ENDM

	.MACRO __PUTD1PMNS
	LDS  R26,@0
	LDS  R27,@0+1
	ADIW R26,@1
	CALL __PUTDP1
	.ENDM

	.MACRO __PUTB1RN
	MOVW R26,R@0
	SUBI R26,LOW(-@1)
	SBCI R27,HIGH(-@1)
	ST   X,R30
	.ENDM

	.MACRO __PUTW1RN
	MOVW R26,R@0
	SUBI R26,LOW(-@1)
	SBCI R27,HIGH(-@1)
	ST   X+,R30
	ST   X,R31
	.ENDM

	.MACRO __PUTD1RN
	MOVW R26,R@0
	SUBI R26,LOW(-@1)
	SBCI R27,HIGH(-@1)
	CALL __PUTDP1
	.ENDM

	.MACRO __PUTB1RNS
	MOVW R26,R@0
	ADIW R26,@1
	ST   X,R30
	.ENDM

	.MACRO __PUTW1RNS
	MOVW R26,R@0
	ADIW R26,@1
	ST   X+,R30
	ST   X,R31
	.ENDM

	.MACRO __PUTD1RNS
	MOVW R26,R@0
	ADIW R26,@1
	CALL __PUTDP1
	.ENDM

	.MACRO __PUTB1RON
	MOV  R26,R@0
	MOV  R27,R@1
	SUBI R26,LOW(-@2)
	SBCI R27,HIGH(-@2)
	ST   X,R30
	.ENDM

	.MACRO __PUTW1RON
	MOV  R26,R@0
	MOV  R27,R@1
	SUBI R26,LOW(-@2)
	SBCI R27,HIGH(-@2)
	ST   X+,R30
	ST   X,R31
	.ENDM

	.MACRO __PUTD1RON
	MOV  R26,R@0
	MOV  R27,R@1
	SUBI R26,LOW(-@2)
	SBCI R27,HIGH(-@2)
	CALL __PUTDP1
	.ENDM

	.MACRO __PUTB1RONS
	MOV  R26,R@0
	MOV  R27,R@1
	ADIW R26,@2
	ST   X,R30
	.ENDM

	.MACRO __PUTW1RONS
	MOV  R26,R@0
	MOV  R27,R@1
	ADIW R26,@2
	ST   X+,R30
	ST   X,R31
	.ENDM

	.MACRO __PUTD1RONS
	MOV  R26,R@0
	MOV  R27,R@1
	ADIW R26,@2
	CALL __PUTDP1
	.ENDM


	.MACRO __GETB1SX
	MOVW R30,R28
	SUBI R30,LOW(-@0)
	SBCI R31,HIGH(-@0)
	LD   R30,Z
	.ENDM

	.MACRO __GETB1HSX
	MOVW R30,R28
	SUBI R30,LOW(-@0)
	SBCI R31,HIGH(-@0)
	LD   R31,Z
	.ENDM

	.MACRO __GETW1SX
	MOVW R30,R28
	SUBI R30,LOW(-@0)
	SBCI R31,HIGH(-@0)
	LD   R0,Z+
	LD   R31,Z
	MOV  R30,R0
	.ENDM

	.MACRO __GETD1SX
	MOVW R30,R28
	SUBI R30,LOW(-@0)
	SBCI R31,HIGH(-@0)
	LD   R0,Z+
	LD   R1,Z+
	LD   R22,Z+
	LD   R23,Z
	MOVW R30,R0
	.ENDM

	.MACRO __GETB2SX
	MOVW R26,R28
	SUBI R26,LOW(-@0)
	SBCI R27,HIGH(-@0)
	LD   R26,X
	.ENDM

	.MACRO __GETW2SX
	MOVW R26,R28
	SUBI R26,LOW(-@0)
	SBCI R27,HIGH(-@0)
	LD   R0,X+
	LD   R27,X
	MOV  R26,R0
	.ENDM

	.MACRO __GETD2SX
	MOVW R26,R28
	SUBI R26,LOW(-@0)
	SBCI R27,HIGH(-@0)
	LD   R0,X+
	LD   R1,X+
	LD   R24,X+
	LD   R25,X
	MOVW R26,R0
	.ENDM

	.MACRO __GETBRSX
	MOVW R30,R28
	SUBI R30,LOW(-@1)
	SBCI R31,HIGH(-@1)
	LD   R@0,Z
	.ENDM

	.MACRO __GETWRSX
	MOVW R30,R28
	SUBI R30,LOW(-@2)
	SBCI R31,HIGH(-@2)
	LD   R@0,Z+
	LD   R@1,Z
	.ENDM

	.MACRO __GETBRSX2
	MOVW R26,R28
	SUBI R26,LOW(-@1)
	SBCI R27,HIGH(-@1)
	LD   R@0,X
	.ENDM

	.MACRO __GETWRSX2
	MOVW R26,R28
	SUBI R26,LOW(-@2)
	SBCI R27,HIGH(-@2)
	LD   R@0,X+
	LD   R@1,X
	.ENDM

	.MACRO __LSLW8SX
	MOVW R30,R28
	SUBI R30,LOW(-@0)
	SBCI R31,HIGH(-@0)
	LD   R31,Z
	CLR  R30
	.ENDM

	.MACRO __PUTB1SX
	MOVW R26,R28
	SUBI R26,LOW(-@0)
	SBCI R27,HIGH(-@0)
	ST   X,R30
	.ENDM

	.MACRO __PUTW1SX
	MOVW R26,R28
	SUBI R26,LOW(-@0)
	SBCI R27,HIGH(-@0)
	ST   X+,R30
	ST   X,R31
	.ENDM

	.MACRO __PUTD1SX
	MOVW R26,R28
	SUBI R26,LOW(-@0)
	SBCI R27,HIGH(-@0)
	ST   X+,R30
	ST   X+,R31
	ST   X+,R22
	ST   X,R23
	.ENDM

	.MACRO __CLRW1SX
	MOVW R26,R28
	SUBI R26,LOW(-@0)
	SBCI R27,HIGH(-@0)
	ST   X+,R30
	ST   X,R30
	.ENDM

	.MACRO __CLRD1SX
	MOVW R26,R28
	SUBI R26,LOW(-@0)
	SBCI R27,HIGH(-@0)
	ST   X+,R30
	ST   X+,R30
	ST   X+,R30
	ST   X,R30
	.ENDM

	.MACRO __PUTB2SX
	MOVW R30,R28
	SUBI R30,LOW(-@0)
	SBCI R31,HIGH(-@0)
	ST   Z,R26
	.ENDM

	.MACRO __PUTW2SX
	MOVW R30,R28
	SUBI R30,LOW(-@0)
	SBCI R31,HIGH(-@0)
	ST   Z+,R26
	ST   Z,R27
	.ENDM

	.MACRO __PUTD2SX
	MOVW R30,R28
	SUBI R30,LOW(-@0)
	SBCI R31,HIGH(-@0)
	ST   Z+,R26
	ST   Z+,R27
	ST   Z+,R24
	ST   Z,R25
	.ENDM

	.MACRO __PUTBSRX
	MOVW R30,R28
	SUBI R30,LOW(-@1)
	SBCI R31,HIGH(-@1)
	ST   Z,R@0
	.ENDM

	.MACRO __PUTWSRX
	MOVW R30,R28
	SUBI R30,LOW(-@2)
	SBCI R31,HIGH(-@2)
	ST   Z+,R@0
	ST   Z,R@1
	.ENDM

	.MACRO __PUTB1SNX
	MOVW R26,R28
	SUBI R26,LOW(-@0)
	SBCI R27,HIGH(-@0)
	LD   R0,X+
	LD   R27,X
	MOV  R26,R0
	SUBI R26,LOW(-@1)
	SBCI R27,HIGH(-@1)
	ST   X,R30
	.ENDM

	.MACRO __PUTW1SNX
	MOVW R26,R28
	SUBI R26,LOW(-@0)
	SBCI R27,HIGH(-@0)
	LD   R0,X+
	LD   R27,X
	MOV  R26,R0
	SUBI R26,LOW(-@1)
	SBCI R27,HIGH(-@1)
	ST   X+,R30
	ST   X,R31
	.ENDM

	.MACRO __PUTD1SNX
	MOVW R26,R28
	SUBI R26,LOW(-@0)
	SBCI R27,HIGH(-@0)
	LD   R0,X+
	LD   R27,X
	MOV  R26,R0
	SUBI R26,LOW(-@1)
	SBCI R27,HIGH(-@1)
	ST   X+,R30
	ST   X+,R31
	ST   X+,R22
	ST   X,R23
	.ENDM

	.MACRO __MULBRR
	MULS R@0,R@1
	MOVW R30,R0
	.ENDM

	.MACRO __MULBRRU
	MUL  R@0,R@1
	MOVW R30,R0
	.ENDM

	.MACRO __MULBRR0
	MULS R@0,R@1
	.ENDM

	.MACRO __MULBRRU0
	MUL  R@0,R@1
	.ENDM

	.MACRO __MULBNWRU
	LDI  R26,@2
	MUL  R26,R@0
	MOVW R30,R0
	MUL  R26,R@1
	ADD  R31,R0
	.ENDM

;NAME DEFINITIONS FOR GLOBAL VARIABLES ALLOCATED TO REGISTERS
	.DEF _autohand=R5
	.DEF _check_autohand=R4
	.DEF _luu_autohand=R7
	.DEF _mode1=R6
	.DEF _mode2=R9
	.DEF _setting=R8
	.DEF _dem=R11
	.DEF _dem1=R10
	.DEF _motcham=R13
	.DEF _check_effect=R12

	.CSEG
	.ORG 0x00

;START OF CODE MARKER
__START_OF_CODE:

;INTERRUPT VECTORS
	JMP  __RESET
	JMP  0x00
	JMP  0x00
	JMP  0x00
	JMP  0x00
	JMP  0x00
	JMP  0x00
	JMP  _timer1_compa_isr
	JMP  0x00
	JMP  0x00
	JMP  _timer0_comp_isr
	JMP  0x00
	JMP  0x00
	JMP  0x00
	JMP  0x00
	JMP  0x00
	JMP  0x00
	JMP  0x00
	JMP  0x00
	JMP  0x00
	JMP  0x00

_msg:
	.DB  0x80,0x10,0x10,0x0,0x0,0x0,0x0,0x0
	.DB  0x0,0x0,0x0,0x0,0x0,0x0,0x0,0x0
	.DB  0x0,0x0,0x0,0x0,0x0,0x0,0x0,0x0
	.DB  0x0,0x0,0x0,0x0,0x0,0x0,0x0,0x0
	.DB  0x0,0x0,0x0,0x7C,0xF8,0x0,0x0,0x0
	.DB  0x7C,0xF,0x80,0x18,0x3E,0x38,0x3,0x7
	.DB  0xC7,0x3C,0x6,0x1C,0x20,0x0,0x80,0x0
	.DB  0x1C,0xE,0x4,0x18,0xC,0x10,0x3,0x1
	.DB  0x82,0x4,0x6,0x16,0x20,0x0,0x40,0x0
	.DB  0x16,0x16,0x8,0x0,0xC,0x10,0x0,0x1
	.DB  0x82,0x18,0x6,0x13,0x20,0x0,0x0,0x0
	.DB  0x16,0x16,0x0,0xC0,0x6,0x20,0x0,0x0
	.DB  0xC4,0x0,0x6,0x13,0x21,0xF9,0xE7,0xB8
	.DB  0x16,0x16,0x1E,0x58,0x6,0x27,0x77,0x0
	.DB  0xC4,0x3C,0x6,0x11,0xA3,0x33,0x33,0x10
	.DB  0x13,0x26,0x33,0x98,0x6,0x43,0x33,0x0
	.DB  0xC8,0x66,0x6,0x10,0xE3,0x30,0x33,0xA0
	.DB  0x13,0x26,0x33,0x18,0x3,0x43,0x33,0x0
	.DB  0x68,0x66,0x6,0x10,0xE3,0x31,0xF1,0xA0
	.DB  0x13,0x46,0x33,0x18,0x3,0x43,0x33,0x0
	.DB  0x68,0x7E,0x6,0x10,0x61,0xE3,0x31,0xC0
	.DB  0x11,0xC6,0x33,0x18,0x1,0x83,0x33,0x0
	.DB  0x30,0x60,0x0,0x10,0x22,0x3,0x30,0xC0
	.DB  0x11,0x86,0x33,0x18,0x1,0x83,0x33,0x0
	.DB  0x30,0x62,0x6,0x7C,0x23,0xF1,0xF8,0xC0
	.DB  0x7C,0x9F,0x9E,0x3C,0x1,0x81,0xFB,0x80
	.DB  0x30,0x3C,0x6,0x0,0x3,0xF8,0x0,0x80
	.DB  0x0,0x0,0x0,0x0,0x0,0x0,0x0,0x0
	.DB  0x0,0x0,0x0,0x0,0x2,0x8,0x6,0x80
	.DB  0x0,0x0,0x0,0x0,0x0,0x0,0x0,0x0
	.DB  0x0,0x0,0x0,0x0,0x1,0xF0,0x7,0x0
	.DB  0x0,0x0,0x0,0x0,0x0,0x0,0x0,0x0
	.DB  0x0,0x0,0x0
_msg0:
	.DB  0x28,0x10,0x5,0x0,0x0,0x0,0x0,0x0
	.DB  0x0,0x0,0x0,0x0,0x0,0x3F,0xCC,0x0
	.DB  0x0,0x0,0x36,0xCC,0x0,0x0,0x0,0x26
	.DB  0x40,0x0,0x0,0x0,0x6,0x0,0x0,0x0
	.DB  0x0,0x6,0x1D,0xD9,0x87,0x86,0x6,0xC
	.DB  0xEE,0xCC,0xC6,0x6,0xC,0xCC,0xCC,0xC0
	.DB  0x6,0xC,0xCC,0xCF,0xC0,0x6,0xC,0xCC
	.DB  0xCC,0x0,0x6,0xC,0xCC,0xCC,0x46,0xF
	.DB  0x1E,0xEE,0xE7,0x86,0x0,0x0,0x0,0x0
	.DB  0x0,0x0,0x0,0x0,0x0,0x0,0x0,0x0
	.DB  0x0,0x0,0x0
_msg1:
	.DB  0x40,0x10,0x8,0x0,0x0,0x0,0x0,0x0
	.DB  0x0,0x0,0x0,0x0,0x0,0x0,0x0,0x0
	.DB  0x0,0x0,0x0,0xF9,0xF1,0xC0,0x0,0xF
	.DB  0x9F,0x0,0x0,0x30,0xC1,0x40,0x0,0x3
	.DB  0x84,0x0,0x0,0x30,0xC2,0x20,0x0,0x2
	.DB  0xC4,0x0,0x0,0x30,0xC0,0x0,0x0,0x2
	.DB  0x64,0x0,0x0,0x30,0xC3,0xCE,0xCC,0x2
	.DB  0x64,0x3C,0xF7,0x3F,0xC6,0x67,0x76,0x2
	.DB  0x34,0x66,0x62,0x30,0xC6,0x66,0x66,0x2
	.DB  0x1C,0x6,0x74,0x30,0xC6,0x66,0x66,0x2
	.DB  0x1C,0x3E,0x34,0x30,0xC6,0x66,0x66,0x2
	.DB  0xC,0x66,0x38,0x30,0xC6,0x66,0x66,0x2
	.DB  0x4,0x66,0x18,0xF9,0xF3,0xCF,0x77,0xF
	.DB  0x84,0x3F,0x18,0x0,0x0,0x0,0x0,0x0
	.DB  0x0,0x0,0x10,0x0,0x0,0x0,0x0,0x0
	.DB  0x0,0x0,0xD0,0x0,0x0,0x0,0x0,0x0
	.DB  0x0,0x0,0xE0
_msg2:
	.DB  0x58,0x10,0xB,0x0,0x0,0x0,0x0,0x0
	.DB  0x0,0x0,0x0,0x0,0x0,0x0,0x0,0x0
	.DB  0x0,0x0,0x0,0x0,0x0,0x0,0x0,0x0
	.DB  0x0,0x3F,0xC0,0x0,0x0,0x0,0x0,0x7
	.DB  0xE0,0xC0,0x38,0x0,0xC,0x60,0x0,0x0
	.DB  0x0,0x0,0x1,0x80,0xC0,0x18,0x0,0xC
	.DB  0x30,0x0,0x0,0x0,0x0,0x1,0x80,0x0
	.DB  0x18,0x0,0xC,0x18,0x0,0x1,0x80,0x0
	.DB  0x1,0x80,0x0,0x18,0x0,0xC,0x1B,0xBA
	.DB  0x3C,0xB6,0x1F,0x81,0x81,0xC7,0x9B,0x18
	.DB  0xC,0x19,0x9A,0x67,0x3B,0x33,0x1,0x80
	.DB  0xCD,0x9D,0x98,0xC,0x19,0x9E,0x66,0x33
	.DB  0x33,0x1,0x80,0xCC,0x19,0x80,0xC,0x19
	.DB  0x98,0x66,0x33,0x33,0x1,0x80,0xCC,0x19
	.DB  0x80,0xC,0x31,0x98,0x66,0x33,0x1E,0x1
	.DB  0x84,0xCC,0x19,0x80,0xC,0x61,0x98,0x66
	.DB  0x33,0x20,0x1,0x84,0xCC,0x99,0x98,0x3F
	.DB  0xC0,0xFC,0x3C,0x7B,0xBF,0x7,0xFD,0xE7
	.DB  0x3D,0xD8,0x0,0x0,0x0,0x0,0x0,0x3F
	.DB  0x80,0x0,0x0,0x0,0x0,0x0,0x0,0x0
	.DB  0x0,0x0,0x20,0x80,0x0,0xC0,0x0,0x0
	.DB  0x0,0x0,0x0,0x0,0x0,0x1F,0x0,0x0
	.DB  0xC0,0x0,0x0
_msg3:
	.DB  0x40,0x10,0x8,0x3,0x80,0x0,0x0,0x0
	.DB  0x0,0x0,0x0,0x4,0x40,0x0,0x0,0x0
	.DB  0x0,0x0,0x0,0x1,0x0,0x0,0x7,0xE0
	.DB  0xC0,0x38,0x0,0x3,0x0,0x0,0x1,0x80
	.DB  0xC0,0x18,0x0,0x3,0x80,0x0,0x1,0x80
	.DB  0x0,0x18,0x0,0x5,0x80,0x0,0x1,0x80
	.DB  0x0,0x18,0x0,0x4,0xC7,0x66,0x1,0x81
	.DB  0xC7,0x9B,0x18,0x4,0xC3,0xBB,0x1,0x80
	.DB  0xCD,0x9D,0x98,0x8,0x63,0x33,0x1,0x80
	.DB  0xCC,0x19,0x80,0xF,0xE3,0x33,0x1,0x80
	.DB  0xCC,0x19,0x80,0x8,0x73,0x33,0x1,0x84
	.DB  0xCC,0x19,0x80,0x10,0x33,0x33,0x1,0x84
	.DB  0xCC,0x99,0x98,0x3C,0x7B,0xBB,0x87,0xFD
	.DB  0xE7,0x3D,0xD8,0x0,0x0,0x0,0x0,0x0
	.DB  0x0,0x0,0x0,0x0,0x0,0x0,0x0,0x0
	.DB  0xC0,0x0,0x0,0x0,0x0,0x0,0x0,0x0
	.DB  0xC0,0x0,0x0
_msg4:
	.DB  0x20,0x10,0x4,0x0,0x0,0x0,0x0,0x0
	.DB  0x0,0x0,0x0,0xF9,0xF0,0x0,0x0,0x38
	.DB  0x42,0x40,0x0,0x2C,0x41,0x80,0x0,0x26
	.DB  0x40,0x0,0x0,0x26,0x43,0xCE,0xCC,0x23
	.DB  0x46,0x67,0x76,0x21,0xC0,0x66,0x66,0x21
	.DB  0xC3,0xE6,0x66,0x20,0xC6,0x66,0x66,0x20
	.DB  0x46,0x66,0x66,0xF8,0x43,0xF7,0x77,0x0
	.DB  0x0,0x0,0x0,0x0,0x0,0x0,0x0,0x0
	.DB  0x0,0x0,0x0
_msg9:
	.DB  0x40,0x10,0x28,0x0,0x0,0x0,0x0,0x0
	.DB  0x0,0x0,0x0,0x0,0x0,0x0,0x0,0x0
	.DB  0x0,0x0,0x0,0x0,0x0,0x0,0x0,0x0
	.DB  0x0,0x0,0x0,0x0,0x0,0x0,0x40,0x0
	.DB  0x0,0x0,0x0,0x0,0x0,0x0,0x0,0x0
	.DB  0x0,0x0,0x0,0x0,0x0,0x0,0x0,0x0
	.DB  0x0,0x0,0x0,0x0,0x0,0x0,0x0,0x0
	.DB  0x0,0x0,0x0,0x0,0x0,0x0,0x0,0x0
	.DB  0x0,0x0,0x0,0x0,0x0,0x0,0x20,0x0
	.DB  0x0,0x0,0x0,0x0,0x0,0x0,0x0,0x0
	.DB  0x0,0x0,0x0,0xFF,0x0,0x0,0x0,0x0
	.DB  0x0,0x0,0x0,0x0,0x0,0x0,0xE0,0x0
	.DB  0x6,0x8,0x0,0x0,0x0,0x0,0x0,0x0
	.DB  0x7,0xFC,0x0,0x0,0x1,0xC1,0x0,0x0
	.DB  0x0,0x1,0xC0,0x0,0x0,0x1,0xC0,0x0
	.DB  0x0,0xE0,0x8,0xDB,0x0,0x48,0x0,0x0
	.DB  0x0,0x48,0x0,0x0,0x4,0x0,0x60,0x0
	.DB  0x6,0x14,0x0,0x0,0x0,0x32,0x0,0x0
	.DB  0x1,0x86,0x0,0x0,0x0,0xC2,0x80,0x0
	.DB  0x0,0x0,0xC3,0x20,0x0,0x0,0xC0,0x0
	.DB  0x0,0x60,0x14,0x99,0x0,0x30,0x0,0x0
	.DB  0x0,0x30,0x0,0x0,0x42,0x0,0x60,0x0
	.DB  0x0,0x22,0x0,0x0,0x0,0x2E,0x0,0x0
	.DB  0x1,0x86,0x0,0x0,0x3,0xE4,0x40,0x0
	.DB  0x0,0x0,0xC2,0xE0,0x0,0x0,0xC0,0x0
	.DB  0x4,0x60,0x22,0x18,0x0,0x0,0x0,0x0
	.DB  0x0,0x0,0x0,0x0,0xC0,0x0,0x60,0x0
	.DB  0x0,0x0,0x0,0x0,0x0,0x0,0x0,0x0
	.DB  0x1,0x86,0x0,0x0,0x0,0xC0,0x0,0x0
	.DB  0x0,0x0,0xC0,0x0,0x0,0x0,0xC0,0x0
	.DB  0xC,0x60,0x0,0x18,0x76,0x79,0xD9,0x81
	.DB  0xD8,0x79,0xD9,0x83,0xF6,0xEC,0x6C,0xF
	.DB  0x76,0x3C,0xEC,0xE,0xCC,0x3C,0xEC,0x0
	.DB  0x1,0x8C,0x3C,0x3C,0x7,0xC7,0x9D,0xC1
	.DB  0xD8,0x7E,0xD9,0xC7,0x81,0xF8,0xD9,0xDC
	.DB  0x3F,0x6C,0x3C,0x18,0x3A,0xCC,0xEE,0xC0
	.DB  0xEC,0xCC,0xEE,0xC0,0xC6,0x76,0x76,0x6
	.DB  0x26,0x66,0x76,0x7,0x76,0x66,0x76,0x0
	.DB  0x1,0xF8,0x66,0x6C,0xC,0xCC,0xCC,0xC0
	.DB  0xEC,0xCC,0xEC,0xCC,0xC0,0xCC,0xEC,0xCC
	.DB  0xC,0x76,0x66,0x18,0x30,0xC,0xCC,0xC0
	.DB  0xCC,0xC,0xCC,0xC0,0xC6,0x66,0x66,0x3
	.DB  0x46,0x66,0x66,0x6,0x66,0x6,0x66,0x0
	.DB  0x1,0x8C,0x6,0x60,0xC,0xC0,0xCC,0xC0
	.DB  0xCC,0xCC,0xCC,0xC0,0xC0,0xCC,0xCC,0xCC
	.DB  0xC,0x66,0x66,0x18,0x30,0x7C,0xCC,0xC0
	.DB  0xCC,0x7C,0xCC,0xC0,0xC6,0x66,0x66,0x3
	.DB  0x46,0x7E,0x66,0x6,0x66,0x3E,0x66,0xF
	.DB  0x1,0x86,0x3E,0x60,0xC,0xC7,0xCC,0xC0
	.DB  0xCC,0xCC,0xCC,0xC7,0xC0,0xCC,0xCC,0xCC
	.DB  0xC,0x66,0x7E,0x18,0x30,0xCC,0xCC,0xC0
	.DB  0xCC,0xCC,0xCC,0xC0,0xC6,0x66,0x66,0x3
	.DB  0x46,0x60,0x66,0x6,0x66,0x66,0x66,0x0
	.DB  0x1,0x86,0x66,0x60,0xC,0xCC,0xCC,0xC0
	.DB  0xCC,0x78,0xCC,0xCC,0xC0,0xCC,0xCC,0xCC
	.DB  0xC,0x66,0x60,0x18,0x30,0xCC,0xCC,0xC0
	.DB  0xCC,0xCC,0xCC,0xC0,0xD6,0x66,0x66,0x1
	.DB  0x86,0x62,0x66,0x6,0x66,0x66,0x66,0x0
	.DB  0x1,0x86,0x66,0x64,0xC,0xCC,0xCC,0xC0
	.DB  0xCC,0x80,0xCC,0xCC,0xC0,0xCC,0xCC,0xCC
	.DB  0xD,0x66,0x62,0x7E,0x78,0x7E,0xEE,0xE1
	.DB  0xEE,0x7E,0xEE,0xE0,0x67,0x77,0x77,0x1
	.DB  0x8F,0x3C,0xF7,0xF,0x77,0x3F,0x77,0x0
	.DB  0x7,0xFC,0x3F,0x38,0x7,0xE7,0xE7,0xE1
	.DB  0xEE,0xFC,0xEE,0xE7,0xE0,0xF9,0xEE,0x7E
	.DB  0x6,0x77,0x3C,0x0,0x0,0x0,0x0,0x0
	.DB  0x0,0x0,0x0,0x0,0x0,0x0,0x0,0x0
	.DB  0x0,0x0,0x0,0x0,0x0,0x0,0x0,0x0
	.DB  0x0,0x0,0x0,0x0,0x0,0x0,0x0,0x0
	.DB  0x0,0xFE,0x0,0x0,0x0,0xC0,0x0,0x0
	.DB  0x0,0x0,0x0,0x0,0x0,0x0,0x0,0x0
	.DB  0x0,0x0,0x0,0x0,0x0,0x0,0x0,0x0
	.DB  0x0,0x0,0x0,0x0,0x0,0x0,0x0,0x0
	.DB  0x0,0x0,0x18,0x0,0x0,0x0,0x0,0x0
	.DB  0x0,0x82,0x0,0x0,0x0,0xC0,0x0,0x0
	.DB  0x0,0x0,0x0,0x0,0x0,0x0,0x0,0x0
	.DB  0x0,0x0,0x0,0x0,0x0,0x0,0x0,0x0
	.DB  0x0,0x0,0x0,0x0,0x0,0x0,0x0,0x0
	.DB  0x0,0x0,0x18,0x0,0x0,0x0,0x0,0x0
	.DB  0x0,0x7C,0x0,0x0,0x1,0xE0,0x0,0x0
	.DB  0x0,0x0,0x0
_msg10:
	.DB  0x30,0x10,0x26,0x0,0x0,0x0,0x0,0x0
	.DB  0x0,0x0,0x0,0x0,0x0,0x0,0x0,0x0
	.DB  0x0,0x0,0x0,0x0,0x0,0x0,0x0,0x0
	.DB  0x0,0x0,0x0,0x0,0x0,0x0,0x0,0x0
	.DB  0x0,0x0,0x0,0x0,0x0,0x0,0x0,0x0
	.DB  0x0,0x0,0x0,0x0,0x0,0x0,0x0,0x0
	.DB  0x0,0x0,0x0,0x0,0x0,0x0,0x0,0x0
	.DB  0x0,0x0,0x0,0x0,0x0,0x0,0x0,0x0
	.DB  0x0,0x0,0x0,0x0,0x0,0x0,0x0,0x0
	.DB  0x0,0x0,0x0,0x0,0x0,0x0,0x0,0x1C
	.DB  0xB8,0x0,0x0,0x0,0x0,0x0,0x0,0x0
	.DB  0x0,0x0,0x0,0x0,0x0,0x0,0x0,0x6
	.DB  0x0,0x0,0x20,0x0,0xE,0x7,0x0,0x0
	.DB  0x0,0x0,0x3,0x81,0x80,0x38,0x0,0x0
	.DB  0x0,0x0,0x0,0x0,0x3,0x63,0x98,0x2
	.DB  0x0,0x0,0x0,0x10,0x0,0x0,0x0,0x0
	.DB  0x48,0x0,0x0,0x0,0x1,0x6,0x0,0x0
	.DB  0x60,0x0,0x6,0x3,0x0,0x0,0x0,0x0
	.DB  0x1,0x81,0x80,0x18,0x0,0x0,0x0,0x0
	.DB  0x0,0x0,0x3,0x61,0x98,0x4,0x0,0x0
	.DB  0x0,0x8,0x0,0x0,0x0,0x0,0x30,0x0
	.DB  0x0,0x0,0x2,0x0,0x0,0x0,0x70,0x0
	.DB  0x6,0x3,0x0,0x0,0x0,0x0,0x11,0x80
	.DB  0x0,0x18,0x0,0x0,0x0,0x0,0x0,0x0
	.DB  0x3,0xC0,0x98,0x0,0x0,0x0,0x0,0x0
	.DB  0x0,0x0,0x0,0x0,0x0,0x0,0x0,0x0
	.DB  0x0,0x30,0x0,0x0,0xB0,0x0,0x6,0x3
	.DB  0x0,0x0,0x0,0x0,0x31,0x80,0x0,0x18
	.DB  0x0,0x0,0x0,0x1,0x80,0x0,0x3,0xC0
	.DB  0x1B,0x3B,0x8F,0x7,0x66,0x77,0x5D,0x87
	.DB  0xE1,0xD8,0x79,0xD9,0x81,0xD9,0x87,0x96
	.DB  0x0,0x0,0x98,0xEC,0x6,0x73,0x61,0xE7
	.DB  0x61,0xF8,0xFD,0xB3,0xBB,0x1B,0x3,0xDD
	.DB  0xBA,0x3C,0xB6,0x1F,0x83,0xC0,0x1D,0x99
	.DB  0x9B,0x3,0xBB,0x33,0x4E,0xCC,0xC0,0xEC
	.DB  0xCC,0xEE,0xC0,0xEE,0xCC,0xE6,0x0,0x0
	.DB  0x98,0x76,0x6,0x43,0xB3,0x33,0xB3,0x30
	.DB  0x31,0xD9,0x9D,0x9D,0x81,0x89,0x9A,0x67
	.DB  0x3B,0x33,0x3,0xC0,0x19,0x99,0x98,0x3
	.DB  0x33,0x33,0xCC,0xCC,0xC0,0xCC,0xC,0xCC
	.DB  0xC0,0xCC,0xCC,0xC6,0x0,0x1,0xC,0x66
	.DB  0x6,0x83,0x30,0x33,0x33,0x30,0x31,0x99
	.DB  0x99,0x99,0x80,0xD1,0x9E,0x66,0x33,0x33
	.DB  0x3,0xC0,0x19,0x99,0x98,0x3,0x33,0x33
	.DB  0xC,0xCC,0xC0,0xCC,0x7C,0xCC,0xC0,0xCC
	.DB  0xCC,0xC6,0xF,0x1,0xFC,0x66,0x7,0x83
	.DB  0x31,0xF3,0x33,0x30,0x31,0x99,0x99,0x99
	.DB  0x80,0xD1,0x98,0x66,0x33,0x33,0x3,0x60
	.DB  0x99,0x99,0x98,0x3,0x33,0x33,0xC,0xC7
	.DB  0x80,0xCC,0xCC,0xCC,0xC0,0xCC,0xCC,0xC6
	.DB  0x0,0x1,0xE,0x66,0x6,0xC3,0x33,0x33
	.DB  0x31,0xE0,0x31,0x99,0x99,0x99,0x80,0xD1
	.DB  0x98,0x66,0x33,0x1E,0x0,0x61,0x19,0x99
	.DB  0x99,0x3,0x33,0x33,0xC,0xC8,0x0,0xCC
	.DB  0xCC,0xCC,0xC0,0xCC,0xCC,0xC6,0x0,0x2
	.DB  0x6,0x66,0x6,0x63,0x33,0x33,0x32,0x0
	.DB  0x35,0x99,0x99,0x99,0x80,0x61,0x98,0x66
	.DB  0x33,0x20,0x3,0x1E,0x3D,0xCF,0xCE,0x7
	.DB  0xBB,0x9F,0x9E,0xEF,0xC1,0xEE,0x7E,0xEE
	.DB  0xE1,0xEE,0xE7,0x8F,0x0,0x7,0x8F,0x77
	.DB  0xF,0x77,0xB9,0xFB,0xBB,0xF0,0x19,0xDD
	.DB  0xDD,0xDD,0xC0,0x60,0xFC,0x3C,0x7B,0xBF
	.DB  0x3,0x0,0x0,0x0,0x0,0x0,0x0,0x0
	.DB  0x0,0xF,0xE0,0x0,0x0,0x0,0x0,0x0
	.DB  0x0,0x0,0x0,0x0,0x0,0x0,0x0,0x0
	.DB  0x0,0x0,0x3,0xF8,0x0,0x0,0x0,0x0
	.DB  0x0,0x0,0x0,0x0,0x0,0x3F,0x80,0x0
	.DB  0x0,0x0,0x0,0x0,0x0,0x0,0x0,0x8
	.DB  0x20,0x0,0x0,0x0,0x0,0x0,0x0,0x0
	.DB  0x0,0x0,0x0,0x0,0x0,0x0,0x0,0x0
	.DB  0x2,0x8,0x0,0x1,0x80,0x0,0x0,0x0
	.DB  0x0,0x18,0x0,0x20,0x80,0x0,0x0,0x0
	.DB  0x0,0x0,0x0,0x0,0x0,0x7,0xC0,0x0
	.DB  0x0,0x0,0x0,0x0,0x0,0x0,0x0,0x0
	.DB  0x0,0x0,0x0,0x0,0x0,0x0,0x1,0xF0
	.DB  0x0,0x1,0x80,0x0,0x0,0x0,0x0,0x18
	.DB  0x0,0x1F,0x0
_msg11:
	.DB  0xE8,0x10,0x1D,0x0,0x0,0x20,0x0,0x0
	.DB  0x0,0x0,0x2,0x0,0x0,0x0,0x0,0x0
	.DB  0x0,0x0,0x0,0x0,0x0,0x0,0x0,0x0
	.DB  0x0,0x0,0x0,0x80,0x0,0x0,0x0,0x0
	.DB  0x0,0x0,0x40,0x0,0x0,0x0,0x0,0x4
	.DB  0x0,0x0,0x0,0x0,0x0,0x0,0x0,0x0
	.DB  0x0,0x0,0x0,0x0,0x0,0x0,0x0,0x1
	.DB  0x0,0x0,0x0,0x0,0x0,0x7F,0x87,0x0
	.DB  0x0,0x0,0x30,0x0,0x70,0x0,0x0,0x0
	.DB  0xC0,0x0,0xF9,0xE0,0x3,0x80,0x0,0x0
	.DB  0x0,0x0,0x0,0x3,0x80,0x0,0x7,0xE
	.DB  0x0,0x6,0x6D,0x85,0x0,0x0,0x8,0x30
	.DB  0x0,0x50,0x0,0x0,0x20,0xC0,0x0,0x30
	.DB  0x80,0x2,0x80,0x0,0x0,0x0,0x0,0x0
	.DB  0x1,0x89,0x0,0x3,0xA,0x0,0x6,0x4C
	.DB  0x88,0x88,0x4,0x10,0x0,0x10,0x88,0x0
	.DB  0x8,0x10,0x0,0x0,0x19,0x0,0x4,0x40
	.DB  0x0,0x0,0x0,0x0,0x0,0x7,0xC6,0x0
	.DB  0x3,0x11,0x0,0x6,0xC,0x0,0x18,0xC
	.DB  0x1,0x80,0x30,0x0,0x0,0x18,0x0,0x0
	.DB  0x0,0x19,0x0,0x0,0x0,0x0,0x0,0x0
	.DB  0x0,0x0,0x1,0x80,0x0,0x3,0x0,0x0
	.DB  0x6,0xC,0xF,0x3E,0x1F,0x3C,0xB0,0x7C
	.DB  0xF3,0xB0,0x3E,0x79,0xC0,0x0,0xE,0x1D
	.DB  0xC7,0x9D,0x80,0x78,0xF3,0xB0,0xFC,0xF
	.DB  0x8F,0xF,0x3,0x1E,0x1E,0x6,0xC,0x19
	.DB  0x98,0xC,0x67,0x30,0x31,0x99,0xD8,0x18
	.DB  0xCC,0xC0,0x0,0xC,0xC,0xCC,0xCE,0xC0
	.DB  0xC9,0x99,0xD9,0x98,0x19,0x99,0x9B,0x3
	.DB  0x33,0x36,0x6,0xC,0x19,0x98,0xC,0x66
	.DB  0x30,0x30,0x19,0x98,0x18,0xC,0xC0,0x0
	.DB  0xC,0xC,0xC0,0xCC,0xC0,0xE0,0x19,0x99
	.DB  0x98,0x19,0x81,0x98,0x3,0x33,0x30,0x6
	.DB  0xC,0x1F,0x98,0xC,0x66,0x30,0x30,0xF9
	.DB  0x98,0x18,0x7C,0xC1,0xE0,0x17,0xC,0xC7
	.DB  0xCC,0xC0,0x70,0xF9,0x99,0x98,0x19,0x8F
	.DB  0x98,0x3,0x33,0x30,0x6,0xC,0x18,0x18
	.DB  0xC,0x66,0x30,0x31,0x99,0x98,0x18,0xCC
	.DB  0xC0,0x0,0x13,0xC,0xCC,0xCC,0xC0,0x39
	.DB  0x99,0x98,0xF0,0x19,0x99,0x98,0x3,0x33
	.DB  0x30,0x0,0xC,0x18,0x9A,0xD,0x66,0x30
	.DB  0x35,0x99,0x98,0x1A,0xCC,0xC0,0x0,0x61
	.DB  0x8C,0xCC,0xCC,0xC0,0x99,0x99,0x99,0x0
	.DB  0x19,0x99,0x99,0x3,0x33,0x32,0x6,0x1E
	.DB  0xF,0xC,0x6,0x3C,0x78,0x18,0xFD,0xDC
	.DB  0xC,0x7E,0xE0,0x0,0xF3,0xE7,0xE7,0xEE
	.DB  0xE0,0xF0,0xFD,0xDD,0xF8,0xF,0xCF,0xCE
	.DB  0x7,0x9E,0x1C,0x6,0x0,0x0,0x0,0x0
	.DB  0x0,0x0,0x0,0x0,0x0,0x0,0x0,0x0
	.DB  0x0,0x0,0x0,0x0,0x0,0x0,0x0,0x0
	.DB  0x1,0xFC,0x0,0x0,0x0,0x0,0x0,0x0
	.DB  0x0,0x0,0x0,0x0,0x0,0x0,0x0,0x0
	.DB  0x0,0x0,0x0,0x0,0x0,0x0,0x0,0x0
	.DB  0x0,0x0,0x0,0x0,0x0,0x1,0x4,0x0
	.DB  0x0,0x0,0x0,0xC,0x0,0x0,0x0,0x0
	.DB  0x0,0x0,0x0,0x0,0x0,0x0,0x0,0x0
	.DB  0x0,0x0,0x0,0x0,0x0,0x0,0x0,0x0
	.DB  0x0,0x0,0x0,0xF8,0x0,0x0,0x0,0x0
	.DB  0xC,0x0,0x0
_msg12:
	.DB  0xE8,0x10,0x1D,0x0,0x0,0x0,0x0,0x0
	.DB  0x0,0x0,0x0,0x0,0x0,0x0,0x0,0x0
	.DB  0x0,0x0,0x0,0x0,0x0,0x0,0x0,0x0
	.DB  0x0,0x0,0x0,0x0,0x4,0x0,0x0,0x0
	.DB  0x0,0x0,0x0,0x0,0x0,0x0,0x0,0x0
	.DB  0x0,0x0,0x0,0x0,0x0,0x0,0x0,0x0
	.DB  0x0,0x0,0x0,0x0,0x0,0x0,0x0,0x0
	.DB  0x0,0x8,0x0,0x0,0x0,0x7C,0xF8,0x0
	.DB  0x0,0x0,0x0,0x0,0x18,0x38,0x0,0x0
	.DB  0x38,0x0,0x3,0x80,0x0,0x0,0x70,0x0
	.DB  0x7,0x0,0x0,0x0,0x0,0x70,0xE0,0x0
	.DB  0xE,0x38,0x1C,0x21,0x20,0x0,0x0,0x0
	.DB  0x4,0x18,0x18,0x0,0x0,0x18,0x0,0x1
	.DB  0x80,0x20,0x0,0x30,0x20,0x3,0x0,0x0
	.DB  0x0,0x0,0x30,0xA0,0x0,0x1F,0x7C,0x16
	.DB  0x20,0xC0,0x0,0x0,0x0,0x8,0x0,0x18
	.DB  0x0,0x0,0x18,0x0,0x1,0x80,0x40,0x0
	.DB  0x30,0x10,0x3,0x0,0x0,0x0,0x0,0xF9
	.DB  0x10,0x0,0x3F,0xFE,0x13,0x20,0x0,0x0
	.DB  0x0,0x0,0x0,0xC0,0x18,0x0,0x0,0x18
	.DB  0x0,0x1,0x80,0x0,0x0,0x30,0x0,0x3
	.DB  0x0,0x0,0x0,0x0,0x30,0x0,0x0,0x3F
	.DB  0xFE,0x13,0x21,0xE7,0x66,0x7,0x66,0x1E
	.DB  0x58,0x1B,0xF,0x3B,0x1B,0x3,0xF1,0xB3
	.DB  0xB8,0xF0,0x3E,0x77,0x63,0x60,0x1E,0x76
	.DB  0x1,0xF1,0xE7,0x60,0x3F,0xFE,0x11,0xA3
	.DB  0x33,0xBB,0x3,0xBB,0x33,0x98,0x1D,0x99
	.DB  0x9D,0x9D,0x81,0x99,0xD9,0x99,0xB0,0x33
	.DB  0x33,0xB3,0xB0,0x33,0x3B,0x3,0x33,0x33
	.DB  0xB0,0x1F,0xFC,0x10,0xE0,0x33,0x33,0x3
	.DB  0x33,0x33,0x18,0x19,0x81,0x99,0x99,0x81
	.DB  0x99,0x99,0x99,0x80,0x33,0x33,0x33,0x30
	.DB  0x3,0x33,0x3,0x33,0x33,0x30,0xF,0xF8
	.DB  0x10,0xE1,0xF3,0x33,0x3,0x33,0x33,0x18
	.DB  0x19,0x8F,0x99,0x99,0x81,0x99,0x99,0x99
	.DB  0x80,0x33,0x33,0x33,0x30,0x1F,0x33,0x3
	.DB  0x33,0xF3,0x30,0x7,0xF0,0x10,0x63,0x33
	.DB  0x33,0x3,0x33,0x33,0x18,0x19,0x99,0x99
	.DB  0x99,0x81,0x99,0x99,0x99,0x80,0x33,0x33
	.DB  0x33,0x30,0x33,0x33,0x3,0x33,0x3,0x30
	.DB  0x3,0xE0,0x10,0x23,0x33,0x33,0x3,0x33
	.DB  0x33,0x18,0x19,0x99,0x99,0x99,0x81,0x99
	.DB  0x99,0x99,0x90,0x33,0x33,0x33,0x30,0x33
	.DB  0x33,0x3,0x33,0x13,0x30,0x1,0xC0,0x7C
	.DB  0x21,0xFB,0xBB,0x87,0xBB,0x9E,0x3C,0x3D
	.DB  0xCF,0xDD,0xDD,0xC1,0xF3,0xDC,0xFC,0xE0
	.DB  0x2E,0x7F,0xBB,0xB8,0x1F,0xBB,0x81,0xF9
	.DB  0xE7,0xB8,0x0,0x80,0x0,0x0,0x0,0x0
	.DB  0x0,0x0,0x0,0x0,0x0,0x0,0x0,0x0
	.DB  0x1,0x80,0x0,0x0,0x0,0x0,0x0,0x0
	.DB  0x0,0x0,0x0,0x0,0x0,0x0,0x0,0x0
	.DB  0x0,0x0,0x0,0x0,0x0,0x0,0x0,0x0
	.DB  0x0,0x0,0x6,0x0,0x0,0x1,0x80,0x0
	.DB  0x0,0x0,0x0,0x0,0x0,0x0,0x0,0x0
	.DB  0x0,0x0,0x0,0x0,0x0,0x0,0x0,0x0
	.DB  0x0,0x0,0x0,0x0,0x0,0x0,0x0,0x6
	.DB  0x0,0x0,0x3,0xC0,0x0,0x0,0x0,0x0
	.DB  0x0,0x0,0x0,0x0,0x0,0x0,0x0,0x0
	.DB  0x0,0x0,0x0
_msg13:
	.DB  0xE8,0x10,0x1D,0x0,0x0,0x0,0x0,0x0
	.DB  0x0,0x0,0x0,0x0,0x0,0x0,0x0,0x0
	.DB  0x0,0x0,0x0,0x0,0x0,0x0,0x0,0x0
	.DB  0x0,0x0,0x0,0x0,0x1,0x0,0x7,0x0
	.DB  0x0,0x0,0x0,0x0,0x0,0x0,0x0,0x0
	.DB  0x0,0x0,0x0,0x0,0x0,0x0,0x0,0x0
	.DB  0x0,0x0,0x0,0x0,0x0,0x0,0x0,0x0
	.DB  0x0,0x0,0x80,0x8,0x80,0x7C,0xF8,0x0
	.DB  0x0,0x0,0x0,0x0,0xE,0x0,0x0,0x3
	.DB  0x0,0x70,0x7,0x0,0x0,0x0,0x0,0x70
	.DB  0x0,0x0,0x0,0x0,0x0,0x0,0xE,0x0
	.DB  0x10,0x40,0x1C,0x20,0x0,0x80,0x0,0x0
	.DB  0x0,0xA,0x0,0x0,0x3,0x0,0x30,0x3
	.DB  0x0,0x0,0x0,0x0,0x30,0x4,0x0,0x0
	.DB  0x0,0x20,0x0,0xA,0x0,0x10,0x40,0x16
	.DB  0x20,0x0,0x40,0x0,0x0,0x0,0x11,0x0
	.DB  0x0,0x0,0x0,0x30,0x3,0x0,0x0,0x0
	.DB  0x0,0x30,0x8,0x0,0x0,0x0,0x40,0x0
	.DB  0x11,0x0,0x70,0x70,0x13,0x20,0x0,0x0
	.DB  0x0,0x0,0x0,0x0,0x0,0x0,0x0,0x0
	.DB  0x30,0x3,0x0,0x0,0x0,0x0,0x30,0x0
	.DB  0x0,0x0,0x0,0x0,0x0,0x0,0x0,0x88
	.DB  0x88,0x13,0x21,0xF9,0xE7,0xB8,0x7B,0xB7
	.DB  0x1E,0x76,0x7,0xBB,0x76,0x36,0x3,0x61
	.DB  0xE1,0xE0,0x7E,0x36,0x77,0x1,0xD7,0x77
	.DB  0xB8,0x7B,0x9E,0x1,0x7,0x4,0x11,0xA3
	.DB  0x33,0x33,0x10,0x1A,0x33,0x33,0x3B,0x3
	.DB  0x13,0x3B,0x3B,0x3,0xB3,0x33,0x30,0x33
	.DB  0x3B,0x33,0x3,0x33,0x33,0x10,0x31,0x33
	.DB  0x1,0x5,0x4,0x10,0xE3,0x30,0x33,0xA0
	.DB  0x1C,0x33,0x3,0x33,0x1,0xA3,0x33,0x33
	.DB  0x3,0x33,0x30,0x30,0x33,0x33,0x33,0x3
	.DB  0x33,0x33,0xA0,0x1A,0x33,0x1,0x7,0x4
	.DB  0x10,0xE3,0x31,0xF1,0xA0,0xC,0x33,0x1F
	.DB  0x33,0x1,0xA3,0x33,0x33,0x3,0x33,0x31
	.DB  0xF0,0x33,0x33,0x33,0x3,0x33,0x31,0xA0
	.DB  0x1A,0x3F,0x0,0x88,0x88,0x10,0x61,0xE3
	.DB  0x31,0xC0,0xE,0x33,0x33,0x33,0x1,0xA3
	.DB  0x33,0x33,0x3,0x33,0x33,0x30,0x33,0x33
	.DB  0x33,0x3,0x33,0x31,0xC0,0x1A,0x30,0x0
	.DB  0x70,0x70,0x10,0x22,0x3,0x30,0xC0,0x16
	.DB  0x33,0x33,0x33,0x0,0xC3,0x33,0x33,0x3
	.DB  0x33,0x33,0x30,0x33,0x33,0x33,0x3,0x33
	.DB  0x30,0xC0,0xC,0x31,0x0,0x10,0x40,0x7C
	.DB  0x23,0xF1,0xF8,0xC0,0x77,0x9F,0x9F,0xBB
	.DB  0x80,0xC7,0xBB,0xBB,0x87,0xB9,0xE1,0xF8
	.DB  0x3E,0x7B,0x9F,0x81,0xF1,0xF8,0xC0,0xC
	.DB  0x1E,0x0,0x10,0x40,0x0,0x3,0xF8,0x0
	.DB  0x80,0x0,0x0,0x0,0x0,0x0,0x0,0x0
	.DB  0x0,0x0,0x0,0x0,0x0,0x30,0x0,0x0
	.DB  0x0,0x30,0x0,0x80,0x0,0x0,0x0,0x8
	.DB  0x80,0x0,0x2,0x8,0x6,0x80,0x0,0x0
	.DB  0x0,0x0,0x0,0x0,0x0,0x0,0x0,0x0
	.DB  0x0,0x0,0x30,0x0,0x0,0x0,0x30,0x6
	.DB  0x80,0x0,0x0,0x0,0x7,0x0,0x0,0x1
	.DB  0xF0,0x7,0x0,0x0,0x0,0x0,0x0,0x0
	.DB  0x0,0x0,0x0,0x0,0x0,0x0,0x0,0x78
	.DB  0x0,0x0,0x0,0x78,0x7,0x0,0x0,0x0
	.DB  0x0,0x0,0x0
_msg15:
	.DB  0x70,0x10,0xE,0x0,0x0,0x10,0x0,0x0
	.DB  0x0,0x0,0x0,0x0,0x0,0x0,0x0,0x0
	.DB  0x0,0x0,0x0,0x20,0x0,0x0,0x0,0x0
	.DB  0x0,0x0,0x0,0x0,0x0,0x0,0x0,0x3F
	.DB  0xC3,0x80,0xF,0x9F,0x0,0x0,0x0,0x1C
	.DB  0x0,0x0,0x30,0xE0,0x0,0x26,0x42,0x80
	.DB  0x3,0x84,0x0,0x0,0x0,0x14,0x0,0x0
	.DB  0x30,0xA0,0x0,0x26,0x44,0x44,0x2,0xC4
	.DB  0x0,0x0,0x0,0x22,0x0,0x2,0x1,0x10
	.DB  0x0,0x6,0x0,0xC,0x2,0x64,0x0,0x0
	.DB  0x0,0x0,0x0,0x6,0x0,0x0,0x0,0x6
	.DB  0x7,0x9F,0x2,0x64,0x3F,0x6E,0xF7,0x3C
	.DB  0xEC,0xF,0xB1,0xE7,0x70,0x6,0xC,0xCC
	.DB  0x2,0x34,0x66,0x66,0x62,0x66,0x76,0x6
	.DB  0x33,0x33,0x30,0x6,0xC,0xCC,0x2,0x1C
	.DB  0x66,0x66,0x74,0x66,0x66,0x6,0x33,0x33
	.DB  0x30,0x6,0xF,0xCC,0x2,0x1C,0x66,0x66
	.DB  0x34,0x7E,0x66,0x6,0x33,0xF3,0x30,0x6
	.DB  0xC,0xC,0x2,0xC,0x3C,0x66,0x38,0x60
	.DB  0x66,0x6,0x33,0x3,0x30,0x6,0xC,0x4D
	.DB  0x2,0x4,0x40,0x66,0x18,0x62,0x66,0x6
	.DB  0xB3,0x13,0x30,0x1F,0x87,0x86,0xF,0x84
	.DB  0x7E,0x3F,0x18,0x3C,0xF7,0x3,0x39,0xE1
	.DB  0xF8,0x0,0x0,0x0,0x0,0x0,0x7F,0x0
	.DB  0x10,0x0,0x0,0x0,0x0,0x0,0x0,0x0
	.DB  0x0,0x0,0x0,0x0,0x41,0x0,0xD0,0x0
	.DB  0x0,0x0,0x0,0x0,0x0,0x0,0x0,0x0
	.DB  0x0,0x0,0x3E,0x0,0xE0,0x0,0x0,0x0
	.DB  0x0,0x0,0x0
_msg16:
	.DB  0x88,0x10,0x11,0x0,0x0,0x64,0x0,0x0
	.DB  0x1E,0x0,0x0,0x0,0x0,0x0,0x0,0x0
	.DB  0x0,0x0,0x0,0x0,0x0,0x0,0x5C,0x0
	.DB  0x0,0x2,0x0,0x0,0x0,0x0,0x0,0x0
	.DB  0x0,0x0,0x0,0x0,0x0,0x0,0x0,0x0
	.DB  0x0,0x0,0xC,0x0,0x0,0x0,0x0,0x0
	.DB  0x0,0x0,0x0,0x0,0x0,0x0,0x1C,0x8C
	.DB  0x38,0xF,0xF0,0xE0,0x7C,0xF8,0x0,0x0
	.DB  0x0,0x7C,0x70,0x0,0x0,0x0,0x0,0x63
	.DB  0x8C,0x28,0x9,0x90,0xA0,0x18,0x60,0x80
	.DB  0x0,0x0,0x18,0x20,0x0,0x0,0x0,0x0
	.DB  0x61,0x80,0x44,0x9,0x91,0x10,0x18,0x60
	.DB  0x40,0x0,0x0,0x18,0x20,0x0,0x0,0x0
	.DB  0x0,0xC0,0x80,0x0,0x1,0x80,0x0,0x18
	.DB  0x60,0x0,0x0,0x0,0xC,0x40,0x0,0x6
	.DB  0x0,0x0,0xC0,0x1C,0x78,0x1,0x81,0xE0
	.DB  0x18,0x67,0x77,0x61,0xF8,0xC,0x4E,0xE8
	.DB  0xF2,0xD8,0x7E,0xC0,0xC,0xCC,0x1,0x83
	.DB  0x30,0x1F,0xE3,0x33,0xB3,0x30,0xC,0x86
	.DB  0x69,0x9C,0xEC,0xCC,0xC3,0xCC,0xCC,0x1
	.DB  0x83,0x30,0x18,0x63,0x33,0x33,0x30,0x6
	.DB  0x86,0x79,0x98,0xCC,0xCC,0xC1,0x8C,0xCC
	.DB  0x1,0x83,0x30,0x18,0x63,0x33,0x33,0x30
	.DB  0x6,0x86,0x61,0x98,0xCC,0xCC,0x61,0x8C
	.DB  0xCC,0x1,0x83,0x30,0x18,0x63,0x33,0x31
	.DB  0xE0,0x3,0x6,0x61,0x98,0xCC,0x78,0x61
	.DB  0x8C,0xCC,0x1,0x83,0x30,0x18,0x63,0x33
	.DB  0x32,0x0,0x3,0x6,0x61,0x98,0xCC,0x80
	.DB  0x1F,0x1E,0x78,0x7,0xE1,0xE0,0x7C,0xF9
	.DB  0xFB,0xBB,0xF0,0x3,0x3,0xF0,0xF1,0xEE
	.DB  0xFC,0x0,0x0,0x0,0x0,0x0,0x0,0x0
	.DB  0x0,0x0,0x3,0xF8,0x0,0x0,0x0,0x0
	.DB  0x0,0xFE,0x0,0x0,0x0,0x0,0x0,0x0
	.DB  0x0,0x0,0x0,0x2,0x8,0x0,0x0,0x0
	.DB  0x0,0x0,0x82
_msg17:
	.DB  0x58,0x10,0xB,0x0,0x3,0x20,0x0,0x0
	.DB  0x0,0x0,0x0,0x0,0x0,0x0,0x0,0x2
	.DB  0xE0,0x0,0x0,0x0,0x0,0x0,0x0,0x0
	.DB  0x0,0x0,0x0,0x0,0x0,0x0,0x0,0x0
	.DB  0x0,0x0,0x0,0x0,0x3F,0x1,0xC0,0xFF
	.DB  0x30,0xE,0x0,0x3F,0xC0,0xF0,0x0,0xC
	.DB  0x1,0x40,0x31,0xB0,0xA,0x0,0xC,0x60
	.DB  0x10,0x0,0xC,0x2,0x20,0x31,0xB0,0x11
	.DB  0x10,0xC,0x30,0x60,0x0,0xC,0x0,0x0
	.DB  0x31,0xB0,0x0,0x30,0xC,0x18,0x0,0x0
	.DB  0xC,0x3,0xC0,0x31,0xB6,0x1E,0x7C,0xC
	.DB  0x18,0xF3,0xB0,0xC,0x6,0x60,0x3F,0x3B
	.DB  0x33,0x30,0x3F,0x99,0x99,0xD8,0xC,0x6
	.DB  0x60,0x30,0x33,0x3,0x30,0xC,0x18,0x19
	.DB  0x98,0xC,0x7,0xE0,0x30,0x33,0x1F,0x30
	.DB  0xC,0x18,0xF9,0x98,0xC,0x26,0x0,0x30
	.DB  0x33,0x33,0x30,0xC,0x31,0x99,0x98,0xC
	.DB  0x26,0x20,0x30,0x33,0x33,0x34,0xC,0x61
	.DB  0x99,0x98,0x3F,0xE3,0xC0,0xFC,0x7B,0x9F
	.DB  0x98,0x3F,0xC0,0xFD,0xDC,0x0,0x0,0x0
	.DB  0x0,0x0,0x0,0x0,0x0,0x0,0x0,0x0
	.DB  0x0,0x0,0x0,0x0,0x0,0xC,0x0,0x0
	.DB  0x0,0x0,0x0
_msg18:
	.DB  0x60,0x10,0xC,0x0,0x0,0x20,0x0,0x0
	.DB  0x0,0x0,0x0,0x0,0x0,0x0,0x0,0x0
	.DB  0x0,0x40,0x0,0x0,0x0,0x0,0x0,0x0
	.DB  0x0,0x0,0x0,0x7F,0x87,0x0,0x1F,0xE0
	.DB  0x0,0x0,0x0,0x1F,0x3E,0x0,0x0,0x4C
	.DB  0x85,0x0,0x6,0x30,0x0,0x0,0x0,0x7
	.DB  0x8,0x0,0x0,0x4C,0x88,0x88,0x6,0x18
	.DB  0x0,0x0,0x0,0x5,0x88,0x0,0x0,0xC
	.DB  0x0,0x18,0x6,0xC,0x0,0x0,0x0,0x4
	.DB  0xC8,0x0,0x0,0xC,0xF,0x3E,0x6,0xC
	.DB  0x78,0x79,0xD8,0x4,0xC8,0x7E,0x78,0xC
	.DB  0x19,0x98,0x1F,0xCC,0xCC,0xCC,0xEC,0x4
	.DB  0x68,0xCC,0xCC,0xC,0x19,0x98,0x6,0xC
	.DB  0xCC,0xC,0xCC,0x4,0x38,0xCC,0xCC,0xC
	.DB  0x1F,0x98,0x6,0xC,0xCC,0x7C,0xCC,0x4
	.DB  0x38,0xCC,0xCC,0xC,0x18,0x18,0x6,0x18
	.DB  0xCC,0xCC,0xCC,0x4,0x18,0x78,0xCC,0xC
	.DB  0x18,0x9A,0x6,0x30,0xCC,0xCC,0xCC,0x4
	.DB  0x8,0x80,0xCC,0x3F,0xF,0xC,0x1F,0xE0
	.DB  0x78,0x7E,0xEE,0x1F,0x8,0xFC,0x78,0x0
	.DB  0x0,0x0,0x0,0x0,0x0,0x0,0x0,0x0
	.DB  0x0,0xFE,0x0,0x0,0x0,0x0,0x0,0x0
	.DB  0x0,0x0,0x0,0x0,0x0,0x82,0x30,0x0
	.DB  0x0,0x0,0x0,0x0,0x0,0x0,0x0,0x0
	.DB  0x0,0x7C,0x30
_msg19:
	.DB  0x48,0x10,0x9,0x0,0x6,0x40,0x0,0x0
	.DB  0x0,0x0,0x0,0x0,0x0,0x5,0xC0,0x0
	.DB  0x0,0x0,0x0,0x0,0x0,0x0,0x0,0x0
	.DB  0x0,0x0,0x0,0x0,0x0,0x0,0x7E,0x3
	.DB  0x81,0xF1,0xC0,0x3,0xF0,0x0,0x0,0x18
	.DB  0x2,0x80,0x60,0x80,0x0,0xC0,0x0,0x0
	.DB  0x18,0x4,0x40,0x60,0x80,0x0,0xC0,0x0
	.DB  0x0,0x18,0x0,0x0,0x31,0x0,0x0,0xC0
	.DB  0x0,0x0,0x18,0x7,0x80,0x31,0x3B,0x80
	.DB  0xC0,0x3C,0xEC,0x18,0xC,0xC0,0x32,0x19
	.DB  0x80,0xC0,0x66,0x76,0x18,0xC,0xC0,0x1A
	.DB  0x19,0x80,0xC0,0x6,0x66,0x18,0xF,0xC0
	.DB  0x1A,0x19,0x80,0xC0,0x3E,0x66,0x18,0x4C
	.DB  0x0,0xC,0x19,0x80,0xC2,0x66,0x66,0x18
	.DB  0x4C,0x40,0xC,0x19,0x80,0xC2,0x66,0x66
	.DB  0x7F,0xC7,0x80,0xC,0xF,0xC3,0xFE,0x3F
	.DB  0x77,0x0,0x0,0x0,0x0,0x0,0x0,0x0
	.DB  0x0,0x0,0x0,0x0,0x0,0x0,0x0,0x0
	.DB  0x0,0x0,0x0
_msg20:
	.DB  0x60,0x10,0xC,0x0,0x0,0x40,0x0,0x0
	.DB  0x0,0x0,0x0,0x0,0x0,0x0,0x0,0x0
	.DB  0x0,0x80,0x0,0x0,0x0,0x0,0x0,0x0
	.DB  0x0,0x0,0x0,0xFF,0xE,0x0,0x1F,0xE0
	.DB  0x0,0x0,0x0,0x1,0xFE,0xE0,0x0,0xDB
	.DB  0xA,0x0,0x1B,0x60,0x0,0x0,0x0,0x1
	.DB  0xB6,0x60,0x0,0x99,0x11,0x10,0x13,0x20
	.DB  0x0,0x0,0x0,0x1,0x32,0x60,0x0,0x18
	.DB  0x0,0x30,0x3,0x0,0x0,0x0,0x0,0x0
	.DB  0x30,0x60,0x0,0x18,0x1E,0x7C,0x3,0xE
	.DB  0xDB,0xBB,0xF,0xC0,0x30,0x6C,0xEE,0x18
	.DB  0x33,0x30,0x3,0x7,0x59,0x9D,0x99,0x80
	.DB  0x30,0x76,0x66,0x18,0x33,0x30,0x3,0x6
	.DB  0x19,0x99,0x99,0x80,0x30,0x66,0x66,0x18
	.DB  0x3F,0x30,0x3,0x6,0x19,0x99,0x99,0x80
	.DB  0x30,0x66,0x66,0x18,0x30,0x30,0x3,0x6
	.DB  0x19,0x99,0x8F,0x0,0x30,0x66,0x66,0x18
	.DB  0x31,0x34,0x3,0x6,0x19,0x99,0x90,0x0
	.DB  0x30,0x66,0x66,0x7E,0x1E,0x18,0xF,0xCF
	.DB  0xF,0xDD,0xDF,0x80,0xFC,0xF7,0x3F,0x0
	.DB  0x0,0x0,0x0,0x0,0x0,0x0,0x1F,0xC0
	.DB  0x0,0x0,0x0,0x0,0x0,0x0,0x0,0x0
	.DB  0x0,0x0,0x10,0x40,0x0,0x0,0x0,0x0
	.DB  0x0,0x0,0x0,0x0,0x0,0x0,0xF,0x80
	.DB  0x0,0x0,0x0
_msg21:
	.DB  0x40,0x10,0x28,0x0,0x0,0x0,0x0,0x0
	.DB  0x0,0x0,0x0,0x0,0x20,0x0,0x0,0x0
	.DB  0x4,0x0,0x0,0x0,0x0,0x0,0x0,0x0
	.DB  0x0,0x0,0x0,0x0,0x0,0x0,0x0,0x0
	.DB  0x0,0x0,0x0,0x0,0x0,0x0,0x0,0x0
	.DB  0x0,0x0,0x0,0x0,0x0,0x0,0x0,0x0
	.DB  0x0,0x0,0x0,0x0,0x10,0x0,0x0,0x0
	.DB  0x8,0x0,0x0,0x0,0x0,0x0,0x0,0x0
	.DB  0x0,0x0,0x0,0x0,0x0,0x0,0x0,0x0
	.DB  0x0,0x0,0x0,0x0,0x0,0x0,0x0,0x0
	.DB  0x0,0x0,0x0,0x7C,0xF8,0x0,0x0,0x0
	.DB  0x0,0x0,0x0,0x1,0xC0,0x0,0x7,0x0
	.DB  0xE0,0x0,0x0,0x70,0x0,0x0,0x0,0xC
	.DB  0x1,0xC0,0x0,0x1,0x80,0x38,0x0,0x1
	.DB  0x87,0x0,0x3,0xE3,0xB0,0xE0,0x3,0xE7
	.DB  0xC0,0x0,0x0,0x1C,0x20,0x0,0x80,0x0
	.DB  0x0,0x0,0x0,0x1,0x40,0x0,0x3,0x0
	.DB  0xA0,0x0,0x0,0x30,0x0,0x0,0x0,0xC
	.DB  0x0,0xC0,0x0,0x1,0x80,0x18,0x0,0x1
	.DB  0x85,0x0,0x0,0xC1,0x30,0xA0,0x0,0xE1
	.DB  0x0,0x0,0x0,0x16,0x20,0x0,0x40,0x0
	.DB  0x10,0x0,0x0,0x2,0x20,0x0,0x23,0x1
	.DB  0x10,0x0,0x0,0x30,0x0,0x0,0x0,0x0
	.DB  0x0,0xC0,0x0,0x0,0x0,0x18,0x0,0x0
	.DB  0x8,0x80,0x0,0xC1,0x1,0x11,0x0,0xB1
	.DB  0x0,0x0,0x0,0x13,0x20,0x0,0x0,0x0
	.DB  0x30,0x0,0x0,0x0,0x0,0x0,0x63,0x0
	.DB  0x0,0x0,0x0,0x30,0x0,0x0,0x0,0x0
	.DB  0x0,0xC0,0x0,0x0,0x0,0x18,0x0,0x0
	.DB  0x0,0x0,0x0,0x62,0x0,0x3,0x0,0x99
	.DB  0x0,0x0,0x0,0x13,0x21,0xF9,0xE7,0xB8
	.DB  0x7D,0xB6,0xEF,0x73,0xCE,0xC0,0xFB,0x61
	.DB  0xE7,0x61,0xF8,0x36,0x1E,0x1E,0x3,0xDD
	.DB  0xD8,0xD8,0x0,0x7B,0xBB,0x1B,0x3,0xDD
	.DB  0x8F,0x3B,0x0,0x62,0x71,0xE7,0xC0,0x99
	.DB  0xF,0x3B,0x30,0x11,0xA3,0x33,0x33,0x10
	.DB  0x31,0xD6,0x66,0x26,0x67,0x60,0x63,0xB3
	.DB  0x33,0xB3,0x30,0x3B,0x33,0x36,0x6,0x4C
	.DB  0xEC,0xEC,0x0,0xC9,0x9D,0x9D,0x81,0x89
	.DB  0x99,0x9D,0x80,0x64,0x33,0x33,0x0,0x8D
	.DB  0x19,0x9D,0xD8,0x10,0xE3,0x30,0x33,0xA0
	.DB  0x31,0x86,0x63,0x47,0xE6,0x60,0x63,0x33
	.DB  0x33,0x33,0x30,0x33,0x33,0x30,0x3,0x8C
	.DB  0xCC,0xCC,0x0,0x71,0x99,0x99,0x80,0xD1
	.DB  0x9F,0x99,0x80,0x34,0x33,0xF3,0x0,0x87
	.DB  0xF,0x99,0x98,0x10,0xE3,0x31,0xF1,0xA0
	.DB  0x31,0x86,0x63,0x47,0xE6,0x60,0x63,0x33
	.DB  0x33,0x33,0x30,0x33,0x33,0x30,0x3,0x8C
	.DB  0xCC,0xCC,0x0,0x71,0x99,0x99,0x80,0xD1
	.DB  0x9F,0x99,0x80,0x34,0x33,0xF3,0x0,0x87
	.DB  0xF,0x99,0x98,0x10,0x61,0xE3,0x31,0xC0
	.DB  0x31,0x86,0x63,0x86,0x6,0x60,0x63,0x33
	.DB  0x33,0x31,0xE0,0x33,0x33,0x30,0x1,0xCC
	.DB  0xCC,0xCC,0x0,0x39,0x99,0x99,0x80,0xD1
	.DB  0x98,0x19,0x80,0x18,0x33,0x3,0x0,0x83
	.DB  0x19,0x99,0x98,0x10,0x22,0x3,0x30,0xC0
	.DB  0x35,0x86,0x61,0x86,0x26,0x60,0x6B,0x33
	.DB  0x33,0x32,0x0,0x33,0x33,0x32,0x4,0xCC
	.DB  0xCC,0xCC,0x60,0x99,0x99,0x99,0x80,0x61
	.DB  0x98,0x99,0x80,0x18,0x33,0x13,0x40,0x81
	.DB  0x19,0x99,0x98,0x7C,0x23,0xF1,0xF8,0xC0
	.DB  0x19,0xC3,0xF1,0x83,0xCF,0x70,0x37,0xB9
	.DB  0xE7,0xBB,0xF0,0x7B,0x9E,0x1C,0x7,0x9E
	.DB  0xEE,0xEE,0x60,0xF3,0xDD,0xDD,0xC0,0x63
	.DB  0xCF,0x3D,0xC0,0x18,0x79,0xE1,0x83,0xE1
	.DB  0xF,0xDD,0xDC,0x0,0x3,0xF8,0x0,0x80
	.DB  0x0,0x0,0x1,0x0,0x0,0x0,0x0,0x0
	.DB  0x0,0x3,0xF8,0x0,0x0,0x0,0x0,0x0
	.DB  0x0,0x0,0x20,0x0,0x0,0x0,0x0,0x0
	.DB  0x0,0x0,0x0,0x0,0x0,0x0,0x0,0x0
	.DB  0x0,0x0,0x0,0x0,0x2,0x8,0x6,0x80
	.DB  0x0,0x0,0xD,0x0,0x0,0x0,0x0,0x0
	.DB  0x0,0x2,0x8,0x0,0xC,0x0,0x0,0x0
	.DB  0x0,0x0,0x20,0x0,0x0,0x0,0x0,0x0
	.DB  0x0,0x0,0x0,0x0,0x0,0xC0,0x0,0x0
	.DB  0x0,0x0,0x0,0x0,0x1,0xF0,0x7,0x0
	.DB  0x0,0x0,0xE,0x0,0x0,0x0,0x0,0x0
	.DB  0x0,0x1,0xF0,0x0,0xC,0x0,0x0,0x0
	.DB  0x0,0x0,0x40,0x0,0x0,0x0,0x0,0x0
	.DB  0x0,0x0,0x0,0x0,0x0,0xC0,0x0,0x0
	.DB  0x0,0x0,0x0
_msg22:
	.DB  0xF0,0x10,0x1E,0x0,0x0,0x0,0x0,0x0
	.DB  0x0,0x0,0x0,0x0,0x0,0x0,0x0,0x0
	.DB  0x0,0x0,0x0,0x0,0x0,0x0,0x0,0x0
	.DB  0x0,0x0,0x0,0x0,0x0,0x0,0x0,0x0
	.DB  0x0,0x0,0x0,0x0,0x0,0x0,0x0,0x0
	.DB  0x0,0x0,0x0,0x0,0x0,0x0,0x0,0x0
	.DB  0x0,0x0,0x0,0x0,0x0,0x0,0x0,0x0
	.DB  0x0,0x0,0x0,0x0,0x0,0x0,0x0,0x3F
	.DB  0xDC,0x0,0x0,0x1C,0x1,0xC3,0x80,0x1
	.DB  0xFE,0x7,0x80,0x0,0x0,0x0,0x70,0x0
	.DB  0x0,0x0,0x1E,0x0,0x7,0xC7,0x61,0xC0
	.DB  0x7,0xCF,0x80,0x0,0x0,0x36,0xCC,0x2
	.DB  0x0,0xC,0x0,0xC2,0x80,0x0,0x63,0x0
	.DB  0x80,0x0,0x0,0x0,0x50,0x0,0x0,0x0
	.DB  0x2,0x0,0x1,0x82,0x61,0x40,0x1,0xC2
	.DB  0x0,0x0,0x0,0x26,0x4C,0x1,0x0,0xC
	.DB  0x0,0xC4,0x40,0x0,0x61,0x83,0x0,0x0
	.DB  0x0,0x0,0x88,0x0,0x0,0x0,0xC,0x0
	.DB  0x1,0x82,0x2,0x22,0x1,0x62,0x0,0x0
	.DB  0x0,0x6,0xC,0x0,0x0,0xC,0x0,0xC0
	.DB  0x0,0x0,0x60,0xC0,0x0,0x0,0x0,0x0
	.DB  0x0,0x0,0x0,0x0,0x0,0x0,0x0,0xC4
	.DB  0x0,0x6,0x1,0x32,0x0,0x0,0x0,0x6
	.DB  0xD,0x87,0x9D,0x8D,0x80,0xC7,0x9F,0x80
	.DB  0x60,0xC7,0x9D,0x87,0xE0,0x78,0xF3,0xB0
	.DB  0xFC,0xF,0x1E,0x76,0x0,0xC4,0xE3,0xCF
	.DB  0x81,0x32,0x1E,0x76,0x60,0x6,0xE,0xCC
	.DB  0xCE,0xCE,0xC0,0xCC,0xCC,0xC1,0xFC,0xCC
	.DB  0xCE,0xCC,0xC0,0xD9,0x99,0xD9,0x98,0x19
	.DB  0x33,0x3B,0x0,0xC8,0x66,0x66,0x1,0x1A
	.DB  0x33,0x3B,0xB0,0x6,0xC,0xC0,0xCC,0xCC
	.DB  0xC0,0xC0,0xCC,0xC0,0x60,0xC0,0xCC,0xCC
	.DB  0xC0,0xC1,0x99,0x99,0x98,0x1C,0x3,0x33
	.DB  0x0,0x68,0x66,0x66,0x1,0xE,0x3,0x33
	.DB  0x30,0x6,0xC,0xC7,0xCC,0xCC,0xC0,0xC7
	.DB  0xCC,0xC0,0x60,0xC7,0xCC,0xCC,0xC0,0xC1
	.DB  0x99,0x99,0x98,0xE,0x1F,0x33,0x0,0x68
	.DB  0x67,0xE6,0x1,0xE,0x1F,0x33,0x30,0x6
	.DB  0xC,0xCC,0xCC,0xCC,0xC0,0xCC,0xCC,0xC0
	.DB  0x61,0x8C,0xCC,0xC7,0x80,0xC1,0x99,0x98
	.DB  0xF0,0x7,0x33,0x33,0x0,0x30,0x66,0x6
	.DB  0x1,0x6,0x33,0x33,0x30,0x6,0xC,0xCC
	.DB  0xCC,0xCC,0xC0,0xCC,0xCC,0xC0,0x63,0xC
	.DB  0xCC,0xC8,0x0,0xC9,0x99,0x99,0x0,0x13
	.DB  0x33,0x33,0x0,0x30,0x66,0x26,0x81,0x2
	.DB  0x33,0x33,0x30,0x1F,0x9E,0xE7,0xEE,0xEE
	.DB  0xE1,0xE7,0xEF,0x81,0xFE,0x7,0xEE,0xEF
	.DB  0xC0,0x70,0xF3,0xDD,0xF8,0x1E,0x1F,0xBB
	.DB  0x80,0x30,0xF3,0xC3,0x7,0xC2,0x1F,0xBB
	.DB  0xB8,0x0,0x0,0x0,0x0,0x0,0x0,0x0
	.DB  0xC,0x0,0x0,0x0,0x0,0xF,0xE0,0x0
	.DB  0x0,0x1,0xFC,0x0,0x0,0x0,0x0,0x0
	.DB  0x0,0x0,0x0,0x0,0x0,0x0,0x0,0x0
	.DB  0x0,0x0,0x0,0x0,0x0,0x3,0xC,0x0
	.DB  0x0,0x0,0x0,0x8,0x20,0x0,0x60,0x1
	.DB  0x4,0x0,0x0,0x0,0x0,0x0,0x1,0x80
	.DB  0x0,0x0,0x0,0x0,0x0,0x0,0x0,0x0
	.DB  0x0,0x0,0x0,0x3,0x1E,0x0,0x0,0x0
	.DB  0x0,0x7,0xC0,0x0,0x60,0x0,0xF8,0x0
	.DB  0x0,0x0,0x0,0x0,0x1,0x80,0x0,0x0
	.DB  0x0,0x0,0x0
_msg23:
	.DB  0xB8,0x10,0x17,0x0,0x0,0x0,0x0,0x0
	.DB  0x0,0x0,0x2,0x0,0x0,0x0,0x0,0x0
	.DB  0x40,0x0,0x0,0x0,0x0,0x0,0x0,0x0
	.DB  0x0,0x0,0x0,0x0,0x0,0x0,0x0,0x0
	.DB  0x0,0x1,0x0,0x0,0x0,0x0,0x0,0x80
	.DB  0x0,0x0,0x0,0x0,0x0,0x0,0x0,0x0
	.DB  0x0,0x1F,0x3E,0x0,0x0,0x0,0x0,0xE0
	.DB  0x1C,0x0,0x0,0x70,0x0,0xE,0x0,0xF
	.DB  0x8E,0xC3,0x80,0xF,0x9F,0x0,0x0,0x0
	.DB  0x7,0x8,0x0,0x20,0x0,0x0,0x60,0x14
	.DB  0x0,0x0,0x30,0x0,0xA,0x0,0x3,0x4
	.DB  0xC2,0x80,0x3,0x84,0x0,0x0,0x0,0x5
	.DB  0x88,0x0,0x10,0x0,0x4,0x60,0x22,0x0
	.DB  0x2,0x30,0x0,0x11,0x0,0x3,0x4,0x4
	.DB  0x44,0x2,0xC4,0x0,0x0,0x0,0x4,0xC8
	.DB  0x0,0x0,0x0,0xC,0x60,0x0,0x0,0x6
	.DB  0x30,0x0,0x0,0x0,0x1,0x88,0x0,0xC
	.DB  0x2,0x64,0x0,0x0,0x0,0x4,0xC8,0x7E
	.DB  0x79,0xEE,0x1F,0x6C,0x3C,0xF7,0xF,0xB6
	.DB  0x77,0x1E,0x1E,0x1,0x89,0xC7,0x9F,0x2
	.DB  0x64,0x3C,0xEC,0xC0,0x4,0x68,0xCC,0xCC
	.DB  0xC4,0xC,0x76,0x66,0x62,0x6,0x3B,0x33
	.DB  0x33,0x36,0x1,0x90,0xCC,0xCC,0x2,0x34
	.DB  0x66,0x77,0x60,0x4,0x38,0xCC,0xC,0xE8
	.DB  0xC,0x66,0x6,0x74,0x6,0x33,0x33,0x33
	.DB  0x30,0x0,0xD0,0xCC,0xCC,0x2,0x1C,0x6
	.DB  0x66,0x60,0x4,0x38,0xCC,0x7C,0x68,0xC
	.DB  0x66,0x3E,0x34,0x6,0x33,0x33,0x33,0x30
	.DB  0x0,0xD0,0xCF,0xCC,0x2,0x1C,0x3E,0x66
	.DB  0x60,0x4,0x18,0x78,0xCC,0x70,0xC,0x66
	.DB  0x66,0x38,0x6,0x33,0x33,0x33,0x30,0x0
	.DB  0x60,0xCC,0xC,0x2,0xC,0x66,0x66,0x60
	.DB  0x4,0x8,0x80,0xCC,0x30,0xD,0x66,0x66
	.DB  0x18,0x6,0xB3,0x33,0x33,0x32,0x0,0x60
	.DB  0xCC,0x4D,0x2,0x4,0x66,0x66,0x60,0x1F
	.DB  0x8,0xFC,0x7E,0x30,0x6,0x77,0x3F,0x18
	.DB  0x3,0x3B,0x9F,0x9E,0x1C,0x0,0x61,0xE7
	.DB  0x86,0xF,0x84,0x3F,0x77,0x70,0x0,0x0
	.DB  0xFE,0x0,0x20,0x0,0x0,0x0,0x10,0x0
	.DB  0x0,0x0,0x0,0x0,0x0,0x0,0x0,0x0
	.DB  0x0,0x0,0x0,0x0,0x0,0x0,0x0,0x82
	.DB  0x1,0xA0,0x0,0x0,0x0,0xD0,0x0,0x0
	.DB  0x0,0x0,0x0,0x0,0x0,0x3,0x0,0x0
	.DB  0x0,0x0,0x0,0x0,0x0,0x0,0x7C,0x1
	.DB  0xC0,0x0,0x0,0x0,0xE0,0x0,0x0,0x0
	.DB  0x0,0x0,0x0,0x0,0x3,0x0,0x0,0x0
	.DB  0x0,0x0,0x0
_msg24:
	.DB  0x70,0x10,0xE,0x0,0x0,0x0,0x0,0x0
	.DB  0x0,0xC,0x80,0x0,0x0,0x0,0x0,0x0
	.DB  0x0,0x0,0x0,0x0,0x0,0x0,0x0,0xB
	.DB  0x80,0x0,0x0,0x0,0x0,0x0,0x0,0x7C
	.DB  0xF8,0x0,0x0,0x0,0x70,0xE0,0x0,0x0
	.DB  0x38,0x0,0x0,0x70,0x0,0x1C,0x20,0x0
	.DB  0x80,0x0,0x30,0xA0,0x1,0x0,0x18,0x0
	.DB  0x0,0x50,0x0,0x16,0x20,0x0,0x40,0x0
	.DB  0x31,0x10,0x10,0x80,0x18,0x0,0x0,0x88
	.DB  0x0,0x13,0x20,0x0,0x0,0x0,0x30,0x0
	.DB  0x30,0x0,0x18,0x0,0x0,0x0,0x0,0x13
	.DB  0x21,0xF9,0xE7,0xB8,0x31,0xE0,0x7D,0xBB
	.DB  0x1B,0x3,0xDC,0xF3,0xB8,0x11,0xA3,0x33
	.DB  0x33,0x10,0x33,0x30,0x31,0x9D,0x9D,0x81
	.DB  0x89,0x99,0x98,0x10,0xE3,0x30,0x33,0xA0
	.DB  0x33,0x30,0x31,0x99,0x99,0x81,0xD1,0x99
	.DB  0x98,0x10,0xE3,0x31,0xF1,0xA0,0x33,0xF0
	.DB  0x31,0x99,0x99,0x80,0xD1,0xF9,0x98,0x10
	.DB  0x61,0xE3,0x31,0xC0,0x33,0x0,0x31,0x99
	.DB  0x99,0x80,0xE1,0x81,0x98,0x10,0x22,0x3
	.DB  0x30,0xC0,0x33,0x10,0x35,0x99,0x99,0x80
	.DB  0x61,0x89,0x98,0x7C,0x23,0xF1,0xF8,0xC0
	.DB  0x79,0xE0,0x19,0xDD,0xDD,0xC0,0x60,0xF0
	.DB  0xFC,0x0,0x3,0xF8,0x0,0x80,0x0,0x0
	.DB  0x0,0x0,0x0,0x0,0x40,0x0,0x0,0x0
	.DB  0x2,0x8,0x6,0x80,0x0,0x0,0x0,0x0
	.DB  0x0,0x3,0x40,0x0,0x0,0x0,0x1,0xF0
	.DB  0x7,0x0,0x0,0x0,0x0,0x0,0x0,0x3
	.DB  0x80,0x0,0x0
_msg25:
	.DB  0x48,0xE,0x9,0xC3,0xC3,0xF,0xFF,0xFF
	.DB  0xFF,0xF0,0xF0,0xC3,0x81,0x98,0x67,0x8F
	.DB  0x1F,0xFF,0xE0,0x66,0x19,0x0,0xC,0x33
	.DB  0x76,0xE9,0xE3,0xC1,0x13,0xC,0x7,0xC4
	.DB  0x12,0xF9,0xD6,0xDD,0xC1,0x11,0x4,0x1
	.DB  0x4,0x12,0xDF,0xD7,0x3A,0xC1,0x11,0x4
	.DB  0x1,0x0,0x2,0xEF,0xD5,0xFA,0xC1,0x10
	.DB  0x0,0x81,0x0,0x6,0xEF,0x91,0xFA,0xE1
	.DB  0x10,0x1,0xC1,0x0,0xF,0x6B,0x2D,0xF2
	.DB  0xF1,0x10,0x3,0xE1,0x0,0x1F,0xB6,0x4D
	.DB  0x65,0xF8,0xE0,0x7,0xF7,0xC0,0x3F,0xCC
	.DB  0xB6,0xCB,0xFC,0x0,0xF,0xF8,0x0,0x7F
	.DB  0xED,0x7B,0x97,0xFE,0x0,0x1F,0xFC,0x30
	.DB  0xFF,0xF4,0xFD,0xAF,0xFF,0xC,0x3F,0xFE
	.DB  0x79,0xFF,0xF9,0xFE,0xDF,0xFF,0x9E,0x7F
	.DB  0xFE,0xFB,0xFF,0xFF,0xFF,0x3F,0xFF,0xBE
	.DB  0xFF
_msg26:
	.DB  0x8F,0x10,0x12,0x0,0x0,0x0,0x0,0x0
	.DB  0x0,0x0,0x0,0x8,0x0,0x0,0x8,0x0
	.DB  0x0,0x0,0x0,0x0,0x0,0x0,0x0,0x0
	.DB  0x0,0x0,0x0,0x0,0x0,0x10,0x0,0x0
	.DB  0x10,0x0,0x0,0x0,0x0,0x0,0x0,0xF9
	.DB  0xF0,0x0,0x0,0x0,0xF,0x0,0x1,0xC0
	.DB  0x0,0x1,0xC0,0xFF,0x30,0x0,0x0,0x0
	.DB  0x0,0x38,0x40,0x1,0x0,0x0,0x30,0xC0
	.DB  0x1,0x40,0x0,0x1,0x40,0x31,0xB0,0x0
	.DB  0x0,0x1,0x90,0x2C,0x40,0x0,0x80,0x0
	.DB  0x30,0xC0,0x2,0x20,0x0,0x42,0x20,0x31
	.DB  0xB0,0x0,0x0,0x1,0x70,0x26,0x40,0x0
	.DB  0x0,0x0,0x60,0x60,0x0,0x0,0x0,0xC0
	.DB  0x0,0x31,0xB0,0x0,0x0,0x0,0x0,0x26
	.DB  0x43,0xF3,0xCF,0x70,0x60,0x6E,0xE3,0xC3
	.DB  0xC1,0xF3,0xC0,0x31,0xB6,0x77,0x7,0x67
	.DB  0x74,0x23,0x46,0x66,0x66,0x20,0x60,0x66
	.DB  0x66,0x66,0xC0,0xC6,0x60,0x3F,0x3B,0x33
	.DB  0x3,0xB3,0x34,0x21,0xC6,0x60,0x67,0x40
	.DB  0x60,0x66,0x66,0x66,0x0,0xC6,0x60,0x30
	.DB  0x33,0x33,0x3,0x33,0x3C,0x21,0xC6,0x63
	.DB  0xE3,0x40,0x60,0x66,0x66,0x66,0x0,0xC7
	.DB  0xE0,0x30,0x33,0x33,0x3,0x33,0x30,0x20
	.DB  0xC3,0xC6,0x63,0x80,0x30,0xC6,0x66,0x66
	.DB  0x0,0xC6,0x0,0x30,0x33,0x33,0x3,0x33
	.DB  0x30,0x20,0x44,0x6,0x61,0x80,0x30,0xC6
	.DB  0x66,0x66,0x40,0xD6,0x20,0x30,0x33,0x33
	.DB  0x3,0x33,0x30,0xF8,0x47,0xE3,0xF1,0x80
	.DB  0xF,0x83,0xF3,0xC3,0x80,0x63,0xC0,0xFC
	.DB  0x7B,0x9F,0x87,0xB9,0xF8,0x0,0x7,0xF0
	.DB  0x1,0x0,0x3,0x0,0x0,0x0,0x0,0x0
	.DB  0x0,0x0,0x0,0x0,0x0,0x0,0x0,0x0
	.DB  0x4,0x10,0xD,0x0,0x1,0x80,0x0,0x0
	.DB  0x0,0x0,0x0,0x0,0x0,0xC,0x0,0x0
	.DB  0x0,0x0,0x3,0xE0,0xE,0x0,0x0,0xC0
	.DB  0x0,0x0,0x0,0x0,0x0,0x0,0x0,0xC
	.DB  0x0,0x0,0x0
_msg27:
	.DB  0xB8,0x10,0x17,0x0,0x0,0x0,0x0,0x0
	.DB  0x0,0x0,0x0,0x0,0x0,0x0,0x0,0x0
	.DB  0x0,0x0,0x0,0x0,0x20,0x0,0x0,0x0
	.DB  0x0,0x0,0x0,0x0,0x0,0x0,0x0,0x0
	.DB  0x0,0x0,0x0,0x0,0x0,0x0,0x0,0x0
	.DB  0x0,0x0,0x0,0x10,0x0,0x0,0x0,0x0
	.DB  0x0,0xF9,0xF0,0x0,0x0,0x0,0x0,0x63
	.DB  0xC6,0x0,0xE,0x0,0x0,0x0,0x0,0xF8
	.DB  0x1F,0x61,0xC0,0x0,0xF9,0xF0,0x0,0x0
	.DB  0x38,0x40,0x1,0x0,0x0,0x0,0x60,0x46
	.DB  0x0,0x6,0x0,0x80,0x0,0x0,0x38,0x1C
	.DB  0x61,0x40,0x0,0x38,0x40,0x0,0x0,0x2C
	.DB  0x40,0x0,0x80,0x0,0x0,0x1,0x80,0x0
	.DB  0x6,0x1,0x0,0x0,0x0,0x2C,0x2C,0x2
	.DB  0x20,0x0,0x2C,0x40,0x0,0x0,0x26,0x40
	.DB  0x0,0x0,0x0,0x0,0x0,0x0,0x0,0x6
	.DB  0x0,0x0,0x0,0x0,0x2C,0x2C,0x0,0x0
	.DB  0x0,0x26,0x40,0x0,0x0,0x26,0x43,0xF3
	.DB  0xCF,0x70,0x3F,0x63,0xCE,0xF,0xC6,0xC3
	.DB  0xCE,0xC3,0xF0,0x2C,0x2C,0xE3,0xCE,0xC0
	.DB  0x26,0x43,0xCE,0xCC,0x23,0x46,0x66,0x66
	.DB  0x20,0x66,0x66,0x66,0x6,0x67,0x66,0x67
	.DB  0x66,0x60,0x26,0x4C,0x66,0x67,0x60,0x23
	.DB  0x46,0x67,0x76,0x21,0xC6,0x60,0x67,0x40
	.DB  0x66,0x60,0x66,0x6,0x66,0x66,0x66,0x66
	.DB  0x60,0x26,0x4C,0x66,0x66,0x60,0x21,0xC0
	.DB  0x66,0x66,0x21,0xC6,0x63,0xE3,0x40,0x66
	.DB  0x63,0xE6,0x6,0x66,0x66,0x66,0x66,0x60
	.DB  0x26,0x8C,0x67,0xE6,0x60,0x21,0xC3,0xE6
	.DB  0x66,0x20,0xC3,0xC6,0x63,0x80,0x3C,0x66
	.DB  0x66,0x6,0x66,0x66,0x66,0x63,0xC0,0x23
	.DB  0x8C,0x66,0x6,0x60,0x20,0xC6,0x66,0x66
	.DB  0x20,0x44,0x6,0x61,0x80,0x40,0x66,0x66
	.DB  0x6,0x66,0x66,0x66,0x64,0x0,0x23,0xC
	.DB  0x66,0x26,0x60,0x20,0x46,0x66,0x66,0xF8
	.DB  0x47,0xE3,0xF1,0x80,0x7E,0x73,0xF7,0x7
	.DB  0xCF,0x73,0xCF,0x77,0xE0,0xF9,0x3F,0x73
	.DB  0xCF,0x70,0xF8,0x43,0xF7,0x77,0x0,0x7
	.DB  0xF0,0x1,0x0,0x7F,0x0,0x0,0x6,0x0
	.DB  0x0,0x0,0x7,0xF0,0x0,0x0,0x0,0x0
	.DB  0x0,0x0,0x0,0x0,0x0,0x0,0x4,0x10
	.DB  0xD,0x0,0x41,0x0,0x0,0x6,0x0,0x0
	.DB  0x0,0x4,0x10,0x0,0x0,0x0,0x0,0x0
	.DB  0x0,0x0,0x0,0x0,0x0,0x3,0xE0,0xE
	.DB  0x0,0x3E,0x0,0x0,0xF,0x0,0x0,0x0
	.DB  0x3,0xE0,0x0,0x0,0x0,0x0,0x0,0x0
	.DB  0x0,0x0,0x0
_msg28:
	.DB  0x98,0x10,0x13,0x0,0x0,0x0,0x0,0x0
	.DB  0x0,0x0,0x0,0x20,0x0,0x0,0x20,0x0
	.DB  0x0,0x0,0x0,0x0,0x0,0x0,0x0,0x0
	.DB  0x0,0x0,0x0,0x0,0x0,0x0,0x40,0x0
	.DB  0x0,0x40,0x0,0x0,0x0,0x0,0x0,0x0
	.DB  0x0,0x3E,0x7C,0x0,0x0,0x0,0x0,0x0
	.DB  0x7,0x0,0x0,0x7,0x3,0x80,0x0,0x0
	.DB  0x38,0x70,0x0,0x0,0xE,0x10,0x0,0x40
	.DB  0x0,0x0,0x0,0x5,0x0,0x0,0x5,0x1
	.DB  0x80,0x0,0x0,0x18,0x50,0x0,0x0,0xB
	.DB  0x10,0x0,0x20,0x0,0x0,0x0,0x8,0x80
	.DB  0x1,0x8,0x81,0x80,0x0,0x0,0x7C,0x88
	.DB  0x0,0x0,0x9,0x90,0x0,0x0,0x0,0x0
	.DB  0x0,0x0,0x0,0x3,0x0,0x1,0x80,0x0
	.DB  0x0,0x18,0x0,0x0,0x0,0x9,0x90,0xFC
	.DB  0xF3,0xDC,0xE,0xBB,0x8F,0xF,0x7,0xCF
	.DB  0x1,0x8F,0xF,0x0,0xF8,0xF3,0xB0,0xFC
	.DB  0x8,0xD1,0x99,0x99,0x88,0x19,0x99,0x99
	.DB  0x9B,0x3,0x19,0x81,0x99,0x99,0x81,0x99
	.DB  0x99,0xD9,0x98,0x8,0x71,0x98,0x19,0xD0
	.DB  0x19,0x99,0x99,0x98,0x3,0x19,0x81,0x81
	.DB  0x99,0x81,0x99,0x99,0x99,0x98,0x8,0x71
	.DB  0x98,0xF8,0xD0,0x19,0x99,0x99,0x98,0x3
	.DB  0x1F,0x81,0x8F,0x99,0x81,0x99,0x99,0x99
	.DB  0x98,0x8,0x30,0xF1,0x98,0xE0,0x19,0x99
	.DB  0x99,0x98,0x3,0x18,0x1,0x99,0x99,0x81
	.DB  0x99,0x99,0x98,0xF0,0x8,0x11,0x1,0x98
	.DB  0x60,0x19,0x99,0x99,0x99,0x3,0x58,0x81
	.DB  0x99,0x99,0x81,0x99,0x99,0x99,0x0,0x3E
	.DB  0x11,0xF8,0xFC,0x60,0xF,0x8F,0xCF,0xE
	.DB  0x1,0x8F,0x3,0xCF,0xCF,0x0,0xFC,0xF3
	.DB  0xDD,0xF8,0x0,0x1,0xFC,0x0,0x40,0x1
	.DB  0x80,0x0,0x0,0x0,0x0,0x0,0x0,0x0
	.DB  0x0,0x0,0x0,0x1,0xFC,0x0,0x1,0x4
	.DB  0x3,0x40,0x1,0x80,0x0,0x0,0x0,0x0
	.DB  0x0,0x0,0x0,0x0,0x0,0x60,0x1,0x4
	.DB  0x0,0x0,0xF8,0x3,0x80,0x3,0xC0,0x0
	.DB  0x0,0x0,0x0,0x0,0x0,0x0,0x0,0x0
	.DB  0x60,0x0,0xF8
_msg29:
	.DB  0x50,0x10,0x2A,0x0,0x0,0x0,0x0,0x0
	.DB  0x0,0x0,0x0,0x0,0x0,0x0,0x0,0x0
	.DB  0x0,0x0,0x0,0x0,0x0,0x0,0x0,0x0
	.DB  0x0,0x0,0x0,0x0,0x0,0x0,0x0,0x0
	.DB  0x0,0x0,0x0,0x0,0x0,0x0,0x0,0x0
	.DB  0x0,0x0,0x0,0x0,0x0,0x0,0x0,0x0
	.DB  0x0,0x0,0x0,0x0,0x0,0x0,0x0,0x0
	.DB  0x0,0x0,0x0,0x0,0x0,0x0,0x0,0x0
	.DB  0x0,0x0,0x0,0x0,0x0,0x0,0x0,0x0
	.DB  0x0,0x0,0x0,0x0,0x0,0x0,0x0,0x0
	.DB  0x0,0x0,0x0,0x0,0x0,0x0,0x0,0x7C
	.DB  0xF8,0x0,0x0,0x0,0x0,0x3C,0x0,0xF
	.DB  0x81,0xF0,0x0,0x0,0x7,0x2E,0x0,0x0
	.DB  0x0,0x0,0x0,0x1,0xC0,0x3,0x80,0x0
	.DB  0x0,0x0,0xC0,0x0,0x78,0x0,0x0,0x0
	.DB  0x0,0x0,0x0,0x1C,0x1,0xC0,0xE0,0x3C
	.DB  0x0,0x1C,0x20,0x0,0x80,0x0,0x0,0x4
	.DB  0x0,0x3,0x81,0xC0,0x0,0x0,0x18,0xE6
	.DB  0x0,0x80,0x0,0x0,0x0,0x0,0xC0,0x2
	.DB  0x80,0x0,0x0,0x0,0xC0,0x0,0x8,0x0
	.DB  0x2,0x0,0x0,0x0,0x0,0xC,0x0,0xC0
	.DB  0x60,0x4,0x0,0x16,0x20,0x0,0x40,0x0
	.DB  0x0,0x18,0x0,0x2,0xC2,0xC0,0x0,0x0
	.DB  0x18,0x66,0x1,0x0,0x0,0x0,0x0,0x0
	.DB  0xC0,0x4,0x40,0x0,0x0,0x0,0x0,0x0
	.DB  0x30,0x0,0x1,0x0,0x0,0x0,0x0,0xC
	.DB  0x0,0xC0,0x60,0x18,0x0,0x13,0x20,0x0
	.DB  0x0,0x0,0x0,0x0,0x0,0x2,0xC2,0xC0
	.DB  0x0,0x0,0x30,0x26,0x0,0x0,0x0,0x0
	.DB  0x0,0x0,0xC0,0x0,0x0,0x0,0x0,0x0
	.DB  0x0,0x0,0x0,0x0,0x0,0x0,0x0,0x0
	.DB  0x0,0xC,0x0,0xC0,0x60,0x0,0x0,0x13
	.DB  0x21,0xF9,0xE7,0xB8,0x1E,0xEE,0x3C,0x2
	.DB  0xC2,0xC3,0xC0,0x0,0x30,0x6,0xCE,0xE3
	.DB  0xC1,0xD9,0x87,0x80,0xDD,0xC7,0x9D,0x81
	.DB  0xEE,0xDD,0xC1,0xEE,0x78,0x1E,0xE7,0x81
	.DB  0xD9,0x87,0x9D,0x8D,0x80,0xCE,0x6C,0x3C
	.DB  0x3C,0x11,0xA3,0x33,0x33,0x10,0x36,0x66
	.DB  0x66,0x2,0x64,0xC6,0x60,0x0,0x30,0x7
	.DB  0x66,0x66,0xC0,0xEE,0xCC,0xC0,0xCC,0xCC
	.DB  0xCE,0xC0,0xC4,0xCC,0xC0,0xC4,0xCC,0xC
	.DB  0x4C,0xC0,0xEE,0xCC,0xCE,0xCE,0xC0,0xC8
	.DB  0x76,0x66,0x66,0x10,0xE3,0x30,0x33,0xA0
	.DB  0x30,0x66,0x6,0x2,0x64,0xC6,0x60,0x0
	.DB  0x30,0x6,0x66,0x66,0x0,0xCC,0xCC,0xC0
	.DB  0xCC,0xCC,0xCC,0xC0,0x68,0xCC,0xC0,0x68
	.DB  0xCC,0x6,0x80,0xC0,0xCC,0xC0,0xCC,0xCC
	.DB  0xC0,0xD0,0x66,0x66,0x66,0x10,0xE3,0x31
	.DB  0xF1,0xA0,0x30,0x66,0x3E,0x2,0x68,0xC7
	.DB  0xE0,0xF0,0x30,0x6,0x66,0x66,0x0,0xCC
	.DB  0xCF,0xC0,0xCC,0xCC,0xCC,0xC0,0x68,0xCC
	.DB  0xC0,0x68,0xFC,0x6,0x87,0xC0,0xCC,0xC7
	.DB  0xCC,0xCC,0xC0,0xF0,0x66,0x66,0x7E,0x10
	.DB  0x61,0xE3,0x31,0xC0,0x30,0x66,0x66,0x2
	.DB  0x38,0xC6,0x0,0x0,0x18,0x26,0x66,0x66
	.DB  0x0,0xCC,0xCC,0x0,0xCC,0xCC,0xCC,0xC0
	.DB  0x68,0xCC,0xC0,0x68,0xC0,0x6,0x8C,0xC0
	.DB  0xCC,0xCC,0xCC,0xCC,0xC0,0xD8,0x66,0x66
	.DB  0x60,0x10,0x22,0x3,0x30,0xC0,0x32,0x66
	.DB  0x66,0x2,0x30,0xC6,0x20,0x0,0x18,0x46
	.DB  0x66,0x66,0x40,0xCC,0xCC,0x40,0xCC,0xCC
	.DB  0xCC,0xC0,0x30,0xCC,0xC0,0x30,0xC4,0x3
	.DB  0xC,0xC0,0xCC,0xCC,0xCC,0xCC,0xC0,0xCC
	.DB  0x66,0x66,0x62,0x7C,0x23,0xF1,0xF8,0xC0
	.DB  0x1C,0x3F,0x3F,0xF,0x93,0xF3,0xC0,0x0
	.DB  0x7,0x8F,0x73,0xF3,0x81,0xEE,0xE7,0x81
	.DB  0xE7,0xE7,0x9E,0xE0,0x30,0x7E,0xE0,0x30
	.DB  0x78,0x3,0x7,0xE1,0xEE,0xE7,0xEE,0xEE
	.DB  0xE1,0xEF,0x77,0x3C,0x3C,0x0,0x3,0xF8
	.DB  0x0,0x80,0x0,0x0,0x0,0x0,0x0,0x0
	.DB  0x0,0x0,0x0,0x0,0x0,0x0,0x0,0x0
	.DB  0x0,0x0,0x0,0x0,0x0,0x0,0x0,0x0
	.DB  0x0,0x0,0x0,0x0,0x0,0x0,0x0,0x0
	.DB  0x0,0x0,0x0,0x0,0x0,0x0,0x0,0x0
	.DB  0x2,0x8,0x6,0x80,0x0,0x0,0x0,0x0
	.DB  0x0,0x1,0x80,0x0,0x0,0x0,0x0,0x0
	.DB  0x0,0x0,0x3,0x0,0x0,0x0,0x0,0x0
	.DB  0x0,0x0,0x0,0x0,0x0,0x0,0x0,0x0
	.DB  0x0,0x3,0x0,0x0,0x0,0x0,0x0,0x0
	.DB  0x0,0x0,0x1,0xF0,0x7,0x0,0x0,0x0
	.DB  0x0,0x0,0x0,0x1,0x80,0x0,0x0,0x0
	.DB  0x0,0x0,0x0,0x0,0x3,0x0,0x0,0x0
	.DB  0x0,0x0,0x0,0x0,0x0,0x0,0x0,0x0
	.DB  0x0,0x0,0x0,0x3,0x0,0x0,0x0,0x0
	.DB  0x0,0x0,0x0
_msg30:
	.DB  0xE0,0x10,0x1C,0x0,0x0,0x0,0x0,0x0
	.DB  0x0,0x0,0x0,0x0,0x0,0x0,0x0,0x0
	.DB  0x0,0x0,0x0,0x0,0x0,0x1,0x0,0x0
	.DB  0x0,0x0,0x0,0x0,0x0,0x0,0x0,0x0
	.DB  0x0,0x0,0x0,0x0,0x0,0x0,0x0,0x0
	.DB  0x0,0x0,0x0,0x0,0x0,0x0,0x0,0x0
	.DB  0x0,0x0,0x80,0x0,0x0,0x0,0x0,0x0
	.DB  0x0,0x0,0x0,0x1F,0x3E,0x0,0x0,0x0
	.DB  0x0,0x18,0x3,0x80,0x3,0x97,0x1,0xE0
	.DB  0x1,0x80,0x70,0x7,0xCF,0x8E,0x0,0x72
	.DB  0xE0,0x0,0xF8,0x1F,0x60,0xE,0x0,0x7
	.DB  0x8,0x0,0x20,0x0,0x0,0x18,0x1,0x80
	.DB  0xC,0x73,0x0,0x20,0x1,0x80,0x30,0x1
	.DB  0x86,0xA,0x1,0x8E,0x60,0x20,0x38,0x1C
	.DB  0x60,0x6,0x0,0x5,0x88,0x0,0x10,0x0
	.DB  0x0,0x0,0x1,0x80,0xC,0x33,0x0,0xC0
	.DB  0x10,0x0,0x30,0x1,0x86,0x11,0x1,0x86
	.DB  0x60,0x40,0x2C,0x2C,0x0,0x6,0x0,0x4
	.DB  0xC8,0x0,0x0,0x0,0x0,0x0,0x1,0x80
	.DB  0x18,0x13,0x0,0x0,0x30,0x0,0x30,0x1
	.DB  0x86,0x0,0x3,0x2,0x60,0x0,0x2C,0x2C
	.DB  0x0,0x6,0x0,0x4,0xC8,0x7E,0x79,0xEE
	.DB  0x7,0xBB,0xB1,0xB0,0x18,0x3,0x67,0x70
	.DB  0x7D,0x8F,0x36,0x1,0x86,0x1E,0x3,0x0
	.DB  0x6C,0xE0,0x2C,0x2C,0xEE,0xC6,0xC0,0x4
	.DB  0x68,0xCC,0xCC,0xC4,0xC,0x99,0xD9,0xD8
	.DB  0x18,0x3,0xB3,0x30,0x31,0x9B,0x3B,0x1
	.DB  0xFE,0x33,0x3,0x0,0x76,0x60,0x26,0x4C
	.DB  0x67,0x67,0x60,0x4,0x38,0xCC,0xC,0xE8
	.DB  0x8,0x19,0x99,0x98,0x18,0x3,0x33,0x30
	.DB  0x31,0x98,0x33,0x1,0x86,0x33,0x3,0x0
	.DB  0x66,0x60,0x26,0x4C,0x66,0x66,0x60,0x4
	.DB  0x38,0xCC,0x7C,0x68,0x7,0x19,0x99,0x98
	.DB  0x18,0x3,0x33,0x30,0x31,0x98,0x33,0x1
	.DB  0x86,0x33,0x3,0x0,0x66,0x60,0x26,0x8C
	.DB  0x66,0x66,0x60,0x4,0x18,0x78,0xCC,0x70
	.DB  0x3,0x99,0x99,0x98,0xC,0x13,0x33,0x30
	.DB  0x31,0x98,0x33,0x1,0x86,0x33,0x1,0x82
	.DB  0x66,0x60,0x23,0x8C,0x66,0x66,0x60,0x4
	.DB  0x8,0x80,0xCC,0x30,0x9,0x99,0x99,0x98
	.DB  0xC,0x23,0x33,0x30,0x35,0x99,0x33,0x1
	.DB  0x86,0x33,0x1,0x84,0x66,0x60,0x23,0xC
	.DB  0x66,0x66,0x60,0x1F,0x8,0xFC,0x7E,0x30
	.DB  0xF,0x3D,0xDD,0xDC,0x3,0xC7,0xB9,0xF8
	.DB  0x19,0xCE,0x7B,0x87,0xCF,0x9E,0x0,0x78
	.DB  0xF7,0x70,0xF9,0x3F,0x77,0x77,0x70,0x0
	.DB  0x0,0xFE,0x0,0x20,0x0,0x0,0x0,0x0
	.DB  0x0,0x0,0x0,0x0,0x0,0x0,0x0,0x0
	.DB  0x0,0x0,0x0,0x0,0x0,0x0,0x0,0x0
	.DB  0x0,0x0,0x0,0x0,0x0,0x82,0x1,0xA0
	.DB  0x0,0x0,0x0,0x0,0x0,0x0,0x0,0x0
	.DB  0x1,0x80,0x0,0x0,0x0,0x0,0x0,0x0
	.DB  0x0,0x0,0x0,0x0,0x0,0x0,0x0,0x0
	.DB  0x0,0x7C,0x1,0xC0,0x0,0x0,0x0,0x0
	.DB  0x0,0x0,0x0,0x0,0x1,0x80,0x0,0x0
	.DB  0x0,0x0,0x0,0x0,0x0,0x0,0x0,0x0
	.DB  0x0,0x0,0x0
_msg31:
	.DB  0x98,0x10,0x13,0x0,0x0,0x0,0x0,0x0
	.DB  0x0,0x0,0x0,0x20,0x0,0x0,0x20,0x0
	.DB  0x0,0x1,0x0,0x0,0x0,0x0,0x0,0x0
	.DB  0x0,0x0,0x0,0x0,0x0,0x0,0x40,0x0
	.DB  0x0,0x40,0x0,0x0,0x2,0x0,0x0,0x0
	.DB  0x0,0x3E,0x7C,0x0,0x0,0x0,0x0,0x0
	.DB  0x7,0x0,0x0,0x7,0x0,0x1C,0xC,0x38
	.DB  0x0,0x0,0x1C,0xC,0xE,0x10,0x0,0x40
	.DB  0x0,0x0,0x0,0x5,0x0,0x0,0x5,0x0
	.DB  0xC,0xC,0x28,0x0,0x0,0xC,0xC,0xB
	.DB  0x10,0x0,0x20,0x0,0x0,0x0,0x8,0x80
	.DB  0x1,0x8,0x80,0x8C,0x0,0x44,0x0,0x0
	.DB  0xC,0x0,0x9,0x90,0x0,0x0,0x0,0x0
	.DB  0x0,0x0,0x0,0x3,0x0,0x1,0x8C,0x0
	.DB  0x0,0x0,0x0,0xC,0x0,0x9,0x90,0xFC
	.DB  0xF3,0xDC,0xE,0xBB,0x8F,0xF,0x7,0xCF
	.DB  0x3,0xED,0x9C,0x79,0xDC,0x1D,0x8D,0x9C
	.DB  0x8,0xD1,0x99,0x99,0x88,0x19,0x99,0x99
	.DB  0x9B,0x3,0x19,0x81,0x8E,0xCC,0xCC,0xCC
	.DB  0xE,0xCE,0xCC,0x8,0x71,0x98,0x19,0xD0
	.DB  0x19,0x99,0x99,0x98,0x3,0x19,0x81,0x8C
	.DB  0xCC,0xCC,0xCC,0xC,0xCC,0xCC,0x8,0x71
	.DB  0x98,0xF8,0xD0,0x19,0x99,0x99,0x98,0x3
	.DB  0x1F,0x81,0x8C,0xCC,0xFC,0xCC,0xC,0xCC
	.DB  0xCC,0x8,0x30,0xF1,0x98,0xE0,0x19,0x99
	.DB  0x99,0x98,0x3,0x18,0x1,0x8C,0xCC,0xC0
	.DB  0xCC,0xC,0xCC,0xCC,0x8,0x11,0x1,0x98
	.DB  0x60,0x19,0x99,0x99,0x99,0x3,0x58,0x81
	.DB  0xAC,0xCC,0xC4,0xCC,0xC,0xCC,0xCC,0x3E
	.DB  0x11,0xF8,0xFC,0x60,0xF,0x8F,0xCF,0xE
	.DB  0x1,0x8F,0x0,0xCE,0xEE,0x78,0x7E,0x1E
	.DB  0xEE,0xEE,0x0,0x1,0xFC,0x0,0x40,0x1
	.DB  0x80,0x0,0x0,0x0,0x0,0x0,0x0,0x0
	.DB  0x0,0x0,0x0,0x0,0x0,0x0,0x1,0x4
	.DB  0x3,0x40,0x1,0x80,0x0,0x0,0x0,0x0
	.DB  0x0,0x0,0x0,0x0,0x0,0x0,0x0,0x0
	.DB  0x0,0x0,0xF8,0x3,0x80,0x3,0xC0,0x0
	.DB  0x0,0x0,0x0,0x0,0x0,0x0,0x0,0x0
	.DB  0x0,0x0,0x0
_msg32:
	.DB  0x48,0x10,0x29,0x0,0x0,0x0,0x0,0x0
	.DB  0x0,0x0,0x0,0x0,0x0,0x1,0x0,0x0
	.DB  0x0,0x0,0x0,0x0,0x0,0x0,0x20,0x0
	.DB  0x0,0x0,0x0,0x0,0x0,0x0,0x0,0x0
	.DB  0x0,0x0,0x0,0x0,0x0,0x0,0x0,0x0
	.DB  0x0,0x0,0x0,0x0,0x0,0x0,0x0,0x0
	.DB  0x0,0x0,0x0,0x0,0x0,0x0,0x2,0x0
	.DB  0x0,0x0,0x0,0x0,0x0,0x0,0x0,0x40
	.DB  0x0,0x0,0x0,0x0,0x0,0x0,0x0,0x0
	.DB  0x0,0x0,0x0,0x0,0x0,0x0,0x0,0x0
	.DB  0x0,0x0,0x0,0x0,0x0,0x7C,0xF8,0x0
	.DB  0x0,0x0,0x0,0x3C,0x0,0xF,0xF8,0x38
	.DB  0x0,0x0,0xE5,0xC0,0x0,0x0,0x38,0x7
	.DB  0x3,0x80,0x7,0x0,0x0,0x0,0x1,0x80
	.DB  0x0,0xF0,0x0,0x0,0x0,0x0,0x0,0x0
	.DB  0x38,0x3,0x81,0xC0,0x78,0x0,0x1C,0x20
	.DB  0x0,0x80,0x0,0x0,0x4,0x0,0x3,0xC
	.DB  0x28,0x0,0x3,0x1C,0xC0,0x10,0x0,0x18
	.DB  0x5,0x1,0x80,0x5,0x0,0x0,0x0,0x1
	.DB  0x80,0x0,0x10,0x0,0x4,0x0,0x0,0x0
	.DB  0x0,0x18,0x1,0x80,0xC0,0x8,0x0,0x16
	.DB  0x20,0x0,0x40,0x0,0x0,0x18,0x0,0x3
	.DB  0xC,0x44,0x0,0x3,0xC,0xC0,0x20,0x0
	.DB  0x18,0x8,0x81,0x80,0x8,0x80,0x0,0x0
	.DB  0x0,0x0,0x0,0x60,0x0,0x2,0x0,0x0
	.DB  0x0,0x0,0x18,0x1,0x80,0xC0,0x30,0x0
	.DB  0x13,0x20,0x0,0x0,0x0,0x0,0x0,0x0
	.DB  0x3,0xC,0x0,0x0,0x6,0x4,0xC0,0x0
	.DB  0x0,0x18,0x0,0x1,0x80,0x0,0x0,0x0
	.DB  0x0,0x0,0x0,0x0,0x0,0x0,0x0,0x0
	.DB  0x0,0x0,0x0,0x18,0x1,0x80,0xC0,0x0
	.DB  0x0,0x13,0x21,0xF9,0xE7,0xB8,0x1E,0xEE
	.DB  0x3C,0x3,0x18,0x78,0x0,0x6,0x0,0xD9
	.DB  0xDC,0x78,0x1F,0xF,0x1,0xBB,0x8F,0x3B
	.DB  0x3,0xDD,0xBB,0x83,0xDC,0xF0,0x3D,0xCF
	.DB  0x3,0xB3,0xF,0x3B,0x1B,0x1,0x9C,0xD8
	.DB  0x78,0x78,0x11,0xA3,0x33,0x33,0x10,0x36
	.DB  0x66,0x66,0x3,0xF0,0xCC,0x0,0x6,0x0
	.DB  0xEC,0xCC,0xD8,0x19,0x99,0x81,0x99,0x99
	.DB  0x9D,0x81,0x89,0x99,0x81,0x89,0x98,0x18
	.DB  0x99,0x81,0xDD,0x99,0x9D,0x9D,0x81,0x90
	.DB  0xEC,0xCC,0xCC,0x10,0xE3,0x30,0x33,0xA0
	.DB  0x30,0x66,0x6,0x3,0x18,0xCC,0x0,0x6
	.DB  0x0,0xCC,0xCC,0xC0,0x19,0x99,0x81,0x99
	.DB  0x99,0x99,0x80,0x91,0x99,0x80,0xD1,0x98
	.DB  0xD,0x1,0x81,0x99,0x81,0x99,0x99,0x81
	.DB  0xA0,0xCC,0xCC,0xCC,0x10,0xE3,0x31,0xF1
	.DB  0xA0,0x30,0x66,0x3E,0x3,0xC,0xCC,0x1E
	.DB  0x6,0x0,0xCC,0xCC,0xC0,0x19,0x99,0x81
	.DB  0x99,0x99,0x99,0x80,0xD1,0x99,0x80,0xD1
	.DB  0xF8,0xD,0xF,0x81,0x99,0x8F,0x99,0x99
	.DB  0x81,0xE0,0xCC,0xCC,0xFC,0x10,0x61,0xE3
	.DB  0x31,0xC0,0x30,0x66,0x66,0x3,0xC,0xCC
	.DB  0x0,0x3,0x4,0xCC,0xCC,0xC0,0x19,0x99
	.DB  0x81,0x99,0x99,0x99,0x80,0xD1,0x99,0x80
	.DB  0xD1,0x80,0xD,0x19,0x81,0x99,0x99,0x99
	.DB  0x99,0x81,0xB0,0xCC,0xCC,0xC0,0x10,0x22
	.DB  0x3,0x30,0xC0,0x32,0x66,0x66,0x3,0xC
	.DB  0xCC,0x0,0x3,0x8,0xCC,0xCC,0xC8,0x19
	.DB  0x99,0x81,0x99,0x99,0x99,0x80,0x61,0x99
	.DB  0x80,0x61,0x88,0x6,0x19,0x81,0x99,0x99
	.DB  0x99,0x99,0x81,0x98,0xCC,0xCC,0xC4,0x7C
	.DB  0x23,0xF1,0xF8,0xC0,0x1C,0x3F,0x3F,0xF
	.DB  0xF8,0x78,0x0,0x0,0xF1,0xEE,0x7E,0x70
	.DB  0x17,0xF,0x3,0xCF,0xCF,0x3D,0xC0,0x60
	.DB  0xFD,0xC0,0x60,0xF0,0x6,0xF,0xC3,0xDD
	.DB  0xCF,0xDD,0xDD,0xC3,0xDE,0xEE,0x78,0x78
	.DB  0x0,0x3,0xF8,0x0,0x80,0x0,0x0,0x0
	.DB  0x0,0x0,0x0,0x0,0x0,0x0,0x0,0x0
	.DB  0x0,0x0,0x0,0x0,0x0,0x0,0x0,0x0
	.DB  0x0,0x0,0x0,0x0,0x0,0x0,0x0,0x0
	.DB  0x0,0x0,0x0,0x0,0x0,0x0,0x0,0x0
	.DB  0x0,0x0,0x2,0x8,0x6,0x80,0x0,0x0
	.DB  0x0,0x0,0x0,0x0,0x0,0x0,0x0,0x0
	.DB  0x0,0x0,0x0,0x0,0x0,0x0,0x0,0x0
	.DB  0x0,0x0,0x0,0x0,0x0,0x0,0x0,0x0
	.DB  0x0,0x0,0x6,0x0,0x0,0x0,0x0,0x0
	.DB  0x0,0x0,0x0,0x1,0xF0,0x7,0x0,0x0
	.DB  0x0,0x0,0x0,0x0,0x0,0x0,0x0,0x0
	.DB  0x0,0x0,0x0,0x0,0x0,0x0,0x0,0x0
	.DB  0x0,0x0,0x0,0x0,0x0,0x0,0x0,0x0
	.DB  0x0,0x0,0x0,0x6,0x0,0x0,0x0,0x0
	.DB  0x0,0x0,0x0
_msg33:
	.DB  0xA0,0x10,0x14,0x0,0x0,0x0,0x0,0x0
	.DB  0x0,0x0,0x0,0x0,0x0,0x0,0x0,0x0
	.DB  0x0,0x0,0x0,0x0,0x0,0x0,0x0,0x0
	.DB  0x0,0x0,0x0,0x0,0x0,0x0,0x0,0x0
	.DB  0x0,0x0,0x0,0x0,0x0,0x0,0x0,0x0
	.DB  0x0,0x0,0x0,0xF9,0xF0,0x0,0x0,0x0
	.DB  0x0,0x60,0x0,0xE,0x0,0xE,0x0,0xF8
	.DB  0xEC,0x38,0x0,0xF9,0xF0,0x0,0x0,0x38
	.DB  0x40,0x1,0x0,0x0,0x0,0x60,0x0,0x6
	.DB  0x40,0x6,0x0,0x30,0x4C,0x28,0x0,0x38
	.DB  0x40,0x0,0x0,0x2C,0x40,0x0,0x80,0x0
	.DB  0x0,0x0,0x0,0x1F,0x20,0x6,0x0,0x30
	.DB  0x40,0x44,0x40,0x2C,0x40,0x0,0x0,0x26
	.DB  0x40,0x0,0x0,0x0,0x0,0x0,0x0,0x6
	.DB  0x0,0x6,0x0,0x18,0x80,0x0,0xC0,0x26
	.DB  0x40,0x0,0x0,0x26,0x43,0xF3,0xCF,0x70
	.DB  0x3F,0x63,0xC0,0x3E,0xEE,0xC6,0xC0,0x18
	.DB  0x9C,0x79,0xF0,0x26,0x43,0xCE,0xCC,0x23
	.DB  0x46,0x66,0x66,0x20,0x66,0x66,0x60,0x66
	.DB  0x67,0x67,0x60,0x19,0xC,0xCC,0xC0,0x23
	.DB  0x46,0x67,0x76,0x21,0xC6,0x60,0x67,0x40
	.DB  0x66,0x60,0x60,0x66,0x66,0x66,0x60,0xD
	.DB  0xC,0xCC,0xC0,0x21,0xC0,0x66,0x66,0x21
	.DB  0xC6,0x63,0xE3,0x40,0x66,0x63,0xE0,0x66
	.DB  0x66,0x66,0x60,0xD,0xC,0xFC,0xC0,0x21
	.DB  0xC3,0xE6,0x66,0x20,0xC3,0xC6,0x63,0x80
	.DB  0x3C,0x66,0x60,0x66,0x66,0x66,0x60,0x6
	.DB  0xC,0xC0,0xC0,0x20,0xC6,0x66,0x66,0x20
	.DB  0x44,0x6,0x61,0x80,0x40,0x66,0x60,0x66
	.DB  0x66,0x66,0x60,0x6,0xC,0xC4,0xD0,0x20
	.DB  0x46,0x66,0x66,0xF8,0x47,0xE3,0xF1,0x80
	.DB  0x7E,0x73,0xF0,0x3F,0x77,0x77,0x70,0x6
	.DB  0x1E,0x78,0x60,0xF8,0x43,0xF7,0x77,0x0
	.DB  0x7,0xF0,0x1,0x0,0x7F,0x0,0x0,0x0
	.DB  0x0,0x0,0x0,0x0,0x0,0x0,0x0,0x0
	.DB  0x0,0x0,0x0,0x0,0x4,0x10,0xD,0x0
	.DB  0x41,0x0,0x0,0x0,0x0,0x0,0x0,0x0
	.DB  0x0,0x30,0x0,0x0,0x0,0x0,0x0,0x0
	.DB  0x3,0xE0,0xE,0x0,0x3E,0x0,0x0,0x0
	.DB  0x0,0x0,0x0,0x0,0x0,0x30,0x0,0x0
	.DB  0x0,0x0,0x0
_msg34:
	.DB  0xA8,0x10,0x15,0x0,0x0,0x0,0x0,0x0
	.DB  0x0,0x0,0x0,0x0,0x0,0x0,0x0,0x0
	.DB  0x0,0x0,0x0,0x0,0x0,0x0,0x0,0x0
	.DB  0x0,0x0,0x0,0x0,0x0,0x0,0x0,0x0
	.DB  0x0,0x0,0x0,0x0,0x0,0x0,0x0,0x0
	.DB  0x0,0x0,0x0,0x0,0x0,0x3E,0x7C,0x0
	.DB  0x0,0x0,0x1,0xC0,0x0,0x0,0x0,0x0
	.DB  0x3,0x81,0x80,0x38,0x0,0x39,0x87,0x0
	.DB  0x0,0x0,0xE,0x10,0x0,0x40,0x0,0x0
	.DB  0xC0,0x0,0x0,0x0,0x0,0x1,0x81,0x80
	.DB  0x18,0x0,0x19,0x85,0x0,0x0,0x64,0xB
	.DB  0x10,0x0,0x20,0x0,0x8,0xC0,0x0,0x0
	.DB  0x0,0x0,0x1,0x80,0x0,0x18,0x0,0x18
	.DB  0x8,0x88,0x0,0x5C,0x9,0x90,0x0,0x0
	.DB  0x0,0x18,0xC0,0x0,0x0,0xC0,0x0,0x1
	.DB  0x80,0x0,0x18,0x0,0x18,0x0,0x18,0x0
	.DB  0x0,0x9,0x90,0xFC,0xF3,0xDC,0x3E,0xD9
	.DB  0xDD,0x1E,0x5B,0xF,0xC1,0xF3,0xBB,0x1B
	.DB  0x0,0x1B,0x8F,0x3E,0x7,0xB8,0x8,0xD1
	.DB  0x99,0x99,0x88,0x18,0xEC,0xCD,0x33,0x9D
	.DB  0x99,0x81,0x99,0x9D,0x9D,0x80,0x19,0x99
	.DB  0x98,0xC,0x98,0x8,0x71,0x98,0x19,0xD0
	.DB  0x18,0xCC,0xCF,0x33,0x19,0x99,0x81,0x99
	.DB  0x99,0x99,0x80,0x19,0x99,0x98,0xE,0x18
	.DB  0x8,0x71,0x98,0xF8,0xD0,0x18,0xCC,0xCC
	.DB  0x33,0x19,0x99,0x81,0x99,0x99,0x99,0x80
	.DB  0x19,0x9F,0x98,0x7,0x18,0x8,0x30,0xF1
	.DB  0x98,0xE0,0x18,0xCC,0xCC,0x33,0x19,0x8F
	.DB  0x1,0x99,0x99,0x99,0x80,0x19,0x98,0x18
	.DB  0x3,0x98,0x8,0x11,0x1,0x98,0x60,0x1A
	.DB  0xCC,0xCC,0x33,0x19,0x90,0x1,0x99,0x99
	.DB  0x99,0x8C,0x19,0x98,0x9A,0x9,0x98,0x3E
	.DB  0x11,0xF8,0xFC,0x60,0xC,0xEE,0x7E,0x1E
	.DB  0x3D,0xDF,0x81,0x73,0xDD,0xDD,0xCC,0x3D
	.DB  0xCF,0xC,0xF,0x3C,0x0,0x1,0xFC,0x0
	.DB  0x40,0x0,0x0,0x0,0x0,0x0,0x1F,0xC0
	.DB  0x0,0x0,0x0,0x4,0x0,0x0,0x0,0x0
	.DB  0x0,0x0,0x1,0x4,0x3,0x40,0x0,0x0
	.DB  0x0,0x0,0x0,0x10,0x40,0x0,0x0,0x0
	.DB  0x4,0x0,0x6,0x0,0x0,0x0,0x0,0x0
	.DB  0xF8,0x3,0x80,0x0,0x0,0x0,0x0,0x0
	.DB  0xF,0x80,0x0,0x0,0x0,0x8,0x0,0x6
	.DB  0x0,0x0,0x0
_msg35:
	.DB  0xC0,0x10,0x18,0x0,0x0,0x0,0x0,0x0
	.DB  0x0,0x0,0x0,0x8,0x0,0x0,0x0,0x0
	.DB  0x0,0x0,0x0,0x0,0x0,0x0,0x0,0x0
	.DB  0x0,0x0,0x0,0x0,0x0,0x0,0x0,0x0
	.DB  0x0,0x0,0x0,0x10,0x0,0x0,0x0,0x0
	.DB  0x0,0x0,0x0,0x0,0x0,0x0,0x0,0x0
	.DB  0x0,0x0,0x0,0xF9,0xF0,0x0,0x0,0x0
	.DB  0xF,0x0,0x1,0xC0,0x1,0xF9,0xDC,0x0
	.DB  0x0,0x1C,0x1,0xF1,0xD8,0x70,0x1,0xF3
	.DB  0xE0,0x0,0x0,0x38,0x40,0x1,0x0,0x0
	.DB  0x30,0xC0,0x1,0x40,0x0,0x60,0x8C,0x1
	.DB  0x0,0xC,0x0,0x60,0x98,0x50,0x0,0x70
	.DB  0x80,0x0,0x0,0x2C,0x40,0x0,0x80,0x0
	.DB  0x30,0xC0,0x2,0x20,0x0,0x61,0xC,0x2
	.DB  0x0,0xC,0x0,0x60,0x80,0x88,0x80,0x58
	.DB  0x80,0x0,0x0,0x26,0x40,0x0,0x0,0x0
	.DB  0x60,0x60,0x0,0x0,0x0,0x66,0xC,0x0
	.DB  0x0,0xC,0x0,0x31,0x0,0x1,0x80,0x4C
	.DB  0x80,0x0,0x0,0x26,0x43,0xF3,0xCF,0x70
	.DB  0x60,0x6E,0xE3,0xC3,0xC0,0x68,0xD,0x87
	.DB  0x9D,0x8D,0x80,0x31,0x38,0xF3,0xE0,0x4C
	.DB  0x87,0x9D,0x98,0x23,0x46,0x66,0x66,0x20
	.DB  0x60,0x66,0x66,0x66,0xC0,0x78,0xE,0xCC
	.DB  0xCE,0xCE,0xC0,0x32,0x19,0x99,0x80,0x46
	.DB  0x8C,0xCE,0xEC,0x21,0xC6,0x60,0x67,0x40
	.DB  0x60,0x66,0x66,0x66,0x0,0x6C,0xC,0xC0
	.DB  0xCC,0xCC,0xC0,0x1A,0x19,0x99,0x80,0x43
	.DB  0x80,0xCC,0xCC,0x21,0xC6,0x63,0xE3,0x40
	.DB  0x60,0x66,0x66,0x66,0x0,0x66,0xC,0xC7
	.DB  0xCC,0xCC,0xC0,0x1A,0x19,0xF9,0x80,0x43
	.DB  0x87,0xCC,0xCC,0x20,0xC3,0xC6,0x63,0x80
	.DB  0x30,0xC6,0x66,0x66,0x0,0x63,0xC,0xCC
	.DB  0xCC,0xCC,0xC0,0xC,0x19,0x81,0x80,0x41
	.DB  0x8C,0xCC,0xCC,0x20,0x44,0x6,0x61,0x80
	.DB  0x30,0xC6,0x66,0x66,0x40,0x61,0x8C,0xCC
	.DB  0xCC,0xCC,0xC0,0xC,0x19,0x89,0xA0,0x40
	.DB  0x8C,0xCC,0xCC,0xF8,0x47,0xE3,0xF1,0x80
	.DB  0xF,0x3,0xF3,0xC3,0x81,0xFB,0xEE,0xE7
	.DB  0xEE,0xEE,0xE0,0xC,0x3C,0xF0,0xC1,0xF0
	.DB  0x87,0xEE,0xEE,0x0,0x7,0xF0,0x1,0x0
	.DB  0x6,0x0,0x0,0x0,0x0,0x0,0x0,0x0
	.DB  0x0,0x0,0x0,0x0,0x0,0x0,0x0,0x0
	.DB  0x0,0x0,0x0,0x0,0x4,0x10,0xD,0x0
	.DB  0x3,0x0,0x0,0x0,0x0,0x0,0x0,0x0
	.DB  0x0,0x0,0x0,0x0,0x0,0x60,0x0,0x0
	.DB  0x0,0x0,0x0,0x0,0x3,0xE0,0xE,0x0
	.DB  0x1,0xC0,0x0,0x0,0x0,0x0,0x0,0x0
	.DB  0x0,0x0,0x0,0x0,0x0,0x60,0x0,0x0
	.DB  0x0,0x0,0x0
_msg36:
	.DB  0xC0,0x10,0x18,0x0,0x0,0x0,0x0,0x0
	.DB  0x0,0x0,0x0,0x20,0x0,0x0,0x20,0x0
	.DB  0x0,0x0,0x0,0x0,0x0,0x0,0x0,0x0
	.DB  0x0,0x1,0x80,0x0,0x0,0x0,0x0,0x0
	.DB  0x0,0x0,0x0,0x40,0x0,0x0,0x40,0x0
	.DB  0x0,0x0,0x0,0x0,0x0,0x0,0x0,0x0
	.DB  0x0,0x0,0x80,0x3E,0x7C,0x0,0x0,0x0
	.DB  0x0,0x0,0x7,0x0,0x0,0x7,0x0,0x0
	.DB  0x0,0x0,0x0,0x30,0x0,0x0,0x0,0x0
	.DB  0x0,0x4,0x30,0xE,0x10,0x0,0x40,0x0
	.DB  0x0,0x0,0x5,0x0,0x0,0x5,0x0,0x0
	.DB  0x0,0x0,0x10,0x30,0x0,0x0,0x0,0x0
	.DB  0x0,0xA,0x30,0xB,0x10,0x0,0x20,0x0
	.DB  0x0,0x0,0x8,0x80,0x1,0x8,0x80,0x0
	.DB  0x0,0x0,0x8,0x0,0x0,0x0,0x0,0x2
	.DB  0x0,0x11,0x0,0x9,0x90,0x0,0x0,0x0
	.DB  0x0,0x0,0x0,0x0,0x3,0x0,0x0,0x0
	.DB  0x0,0x0,0x1,0x80,0x0,0x0,0x0,0x6
	.DB  0x0,0x0,0x0,0x9,0x90,0xFC,0xF3,0xDC
	.DB  0xE,0xBB,0x8F,0xF,0x7,0xCF,0x3,0xB0
	.DB  0xFD,0xBA,0x3C,0xB0,0x1E,0x3C,0x3C,0xF
	.DB  0xB7,0x1E,0x70,0x8,0xD1,0x99,0x99,0x88
	.DB  0x19,0x99,0x99,0x9B,0x3,0x19,0x81,0xD9
	.DB  0x99,0x9A,0x67,0x30,0x36,0x66,0x66,0x6
	.DB  0x33,0x33,0x30,0x8,0x71,0x98,0x19,0xD0
	.DB  0x19,0x99,0x99,0x98,0x3,0x19,0x81,0x99
	.DB  0x99,0x9E,0x66,0x30,0x30,0x6,0x66,0x6
	.DB  0x33,0x33,0x30,0x8,0x71,0x98,0xF8,0xD0
	.DB  0x19,0x99,0x99,0x98,0x3,0x1F,0x81,0x99
	.DB  0x99,0x98,0x66,0x30,0x30,0x3E,0x66,0x6
	.DB  0x33,0x33,0x30,0x8,0x30,0xF1,0x98,0xE0
	.DB  0x19,0x99,0x99,0x98,0x3,0x18,0x1,0x98
	.DB  0xF1,0x98,0x66,0x30,0x30,0x66,0x66,0x6
	.DB  0x33,0x33,0x30,0x8,0x11,0x1,0x98,0x60
	.DB  0x19,0x99,0x99,0x99,0x3,0x58,0x81,0x99
	.DB  0x1,0x98,0x66,0x30,0x32,0x66,0x66,0x6
	.DB  0xB3,0x33,0x30,0x3E,0x11,0xF8,0xFC,0x60
	.DB  0xF,0x8F,0xCF,0xE,0x1,0x8F,0x3,0xDD
	.DB  0xF8,0xFC,0x3C,0x78,0x1C,0x3F,0x3C,0x3
	.DB  0x1F,0x9E,0x78,0x0,0x1,0xFC,0x0,0x40
	.DB  0x1,0x80,0x0,0x0,0x0,0x0,0x0,0x1
	.DB  0xFC,0x0,0x0,0x0,0x0,0x0,0x0,0x0
	.DB  0x0,0x0,0x0,0x0,0x1,0x4,0x3,0x40
	.DB  0x1,0x80,0x0,0x0,0x0,0x0,0x0,0x1
	.DB  0x4,0x0,0x0,0x0,0x0,0x0,0x0,0x0
	.DB  0x0,0x0,0x0,0x0,0x0,0xF8,0x3,0x80
	.DB  0x3,0xC0,0x0,0x0,0x0,0x0,0x0,0x0
	.DB  0xF8,0x0,0x0,0x0,0x0,0x0,0x0,0x0
	.DB  0x0,0x0,0x0
_msg37:
	.DB  0xA8,0x10,0x15,0x0,0x0,0x0,0x0,0x0
	.DB  0x0,0x0,0x0,0x0,0x0,0x0,0x0,0x0
	.DB  0x0,0x0,0x0,0x0,0x0,0x0,0x0,0x0
	.DB  0x0,0x0,0x0,0x0,0x0,0x0,0x0,0x0
	.DB  0x0,0x0,0x0,0x0,0x0,0x0,0x0,0x0
	.DB  0x0,0x0,0x0,0x0,0x0,0x3E,0x7C,0x0
	.DB  0x0,0x0,0x0,0x38,0x0,0x0,0x1,0x80
	.DB  0x0,0x3,0xE3,0xB0,0xE0,0x3,0xE7,0xC0
	.DB  0x0,0x0,0xE,0x10,0x0,0x40,0x0,0x0
	.DB  0x18,0x4,0x0,0x1,0x82,0x0,0x0,0xC1
	.DB  0x30,0xA0,0x0,0xE1,0x0,0x0,0x0,0xB
	.DB  0x10,0x0,0x20,0x0,0x0,0x18,0x2,0x0
	.DB  0x0,0x4,0x0,0x0,0xC1,0x1,0x11,0x0
	.DB  0xB1,0x0,0x0,0x0,0x9,0x90,0x0,0x0
	.DB  0x0,0x0,0x18,0x0,0x0,0x0,0x0,0x0
	.DB  0x0,0x62,0x0,0x3,0x0,0x99,0x0,0x0
	.DB  0x0,0x9,0x90,0xFC,0xF3,0xDC,0x3B,0x1B
	.DB  0xF,0x0,0xFD,0x8F,0xF,0x0,0x62,0x71
	.DB  0xE7,0xC0,0x99,0xF,0x3B,0x30,0x8,0xD1
	.DB  0x99,0x99,0x88,0x1D,0x9D,0x99,0x81,0x99
	.DB  0x99,0x99,0x80,0x64,0x33,0x33,0x0,0x8D
	.DB  0x19,0x9D,0xD8,0x8,0x71,0x98,0x19,0xD0
	.DB  0x19,0x99,0x81,0x81,0x99,0x81,0x99,0x80
	.DB  0x34,0x33,0x33,0x0,0x87,0x1,0x99,0x98
	.DB  0x8,0x71,0x98,0xF8,0xD0,0x19,0x99,0x8F
	.DB  0x81,0x99,0x8F,0x99,0x80,0x34,0x33,0xF3
	.DB  0x0,0x87,0xF,0x99,0x98,0x8,0x30,0xF1
	.DB  0x98,0xE0,0x19,0x99,0x99,0x80,0xF1,0x99
	.DB  0x99,0x80,0x18,0x33,0x3,0x0,0x83,0x19
	.DB  0x99,0x98,0x8,0x11,0x1,0x98,0x60,0x19
	.DB  0x99,0x99,0x81,0x1,0x99,0x99,0x80,0x18
	.DB  0x33,0x13,0x40,0x81,0x19,0x99,0x98,0x3E
	.DB  0x11,0xF8,0xFC,0x60,0x3D,0xDD,0xCF,0xC1
	.DB  0xF9,0xCF,0xCF,0x0,0x18,0x79,0xE1,0x83
	.DB  0xE1,0xF,0xDD,0xDC,0x0,0x1,0xFC,0x0
	.DB  0x40,0x0,0x0,0x0,0x1,0xFC,0x0,0x0
	.DB  0x0,0x0,0x0,0x0,0x0,0x0,0x0,0x0
	.DB  0x0,0x0,0x1,0x4,0x3,0x40,0x0,0x0
	.DB  0x0,0x1,0x4,0x0,0x0,0x0,0x0,0x0
	.DB  0xC0,0x0,0x0,0x0,0x0,0x0,0x0,0x0
	.DB  0xF8,0x3,0x80,0x0,0x0,0x0,0x0,0xF8
	.DB  0x0,0x0,0x0,0x0,0x0,0xC0,0x0,0x0
	.DB  0x0,0x0,0x0
_msg38:
	.DB  0xE0,0x10,0x1C,0x0,0x0,0x0,0x0,0x0
	.DB  0x0,0x0,0x0,0x80,0x0,0x0,0x0,0x0
	.DB  0x0,0x0,0x0,0x0,0x0,0x0,0x0,0x8
	.DB  0x0,0x0,0x0,0x0,0x0,0x0,0x0,0x0
	.DB  0x0,0x0,0x0,0x0,0x0,0x0,0x1,0x0
	.DB  0x0,0x0,0x0,0x0,0x0,0x0,0x0,0x0
	.DB  0x0,0x0,0x0,0x10,0x0,0x0,0x0,0x0
	.DB  0x0,0x0,0x0,0x1F,0x3E,0x0,0x0,0x0
	.DB  0x0,0xE0,0x1C,0x0,0x6,0x0,0x30,0x0
	.DB  0x70,0x0,0x0,0x0,0x0,0xE,0x1,0xC0
	.DB  0x0,0x0,0x4,0xF,0x3F,0x81,0xE8,0x7
	.DB  0x8,0x0,0x20,0x0,0x0,0x60,0x14,0x0
	.DB  0x6,0x8,0x30,0x0,0x30,0x8,0x0,0x0
	.DB  0x0,0x6,0x1,0x40,0x0,0x0,0xC,0x6
	.DB  0x18,0xC3,0x18,0x5,0x88,0x0,0x10,0x0
	.DB  0x4,0x60,0x22,0x0,0x0,0x10,0x0,0x0
	.DB  0x30,0x4,0x0,0x0,0x0,0x6,0x2,0x20
	.DB  0x0,0x0,0xE,0x6,0x18,0x63,0x8,0x4
	.DB  0xC8,0x0,0x0,0x0,0xC,0x60,0x0,0x0
	.DB  0x0,0x1,0x80,0x0,0x30,0x0,0x0,0x0
	.DB  0x0,0x6,0x0,0x0,0x0,0x0,0x16,0x6
	.DB  0x18,0x33,0x88,0x4,0xC8,0x7E,0x79,0xEE
	.DB  0x1F,0x6C,0x3C,0x3,0xF6,0x3C,0xB0,0x7E
	.DB  0x36,0x1E,0x76,0x1F,0x81,0xE6,0xC3,0xCE
	.DB  0xC3,0xF0,0x13,0x6,0x18,0x31,0xC0,0x4
	.DB  0x68,0xCC,0xCC,0xC4,0xC,0x76,0x66,0x6
	.DB  0x66,0x67,0x30,0x33,0x3B,0x33,0x3B,0x33
	.DB  0x3,0x67,0x66,0x67,0x66,0x60,0x13,0x6
	.DB  0x18,0x30,0xE0,0x4,0x38,0xCC,0xC,0xE8
	.DB  0xC,0x66,0x66,0x6,0x66,0x66,0x30,0x33
	.DB  0x33,0x33,0x33,0x33,0x3,0x6,0x66,0x66
	.DB  0x66,0x60,0x21,0x86,0x18,0x30,0x70,0x4
	.DB  0x38,0xCC,0x7C,0x68,0xC,0x66,0x7E,0x6
	.DB  0x66,0x66,0x30,0x33,0x33,0x33,0x33,0x33
	.DB  0x3,0x6,0x66,0x66,0x66,0x60,0x3F,0x86
	.DB  0x18,0x32,0x38,0x4,0x18,0x78,0xCC,0x70
	.DB  0xC,0x66,0x60,0x3,0xC6,0x66,0x30,0x33
	.DB  0x33,0x33,0x33,0x1E,0x3,0x6,0x66,0x66
	.DB  0x63,0xC0,0x21,0xC6,0x18,0x62,0x18,0x4
	.DB  0x8,0x80,0xCC,0x30,0xD,0x66,0x62,0x4
	.DB  0x6,0x66,0x30,0x33,0x33,0x33,0x33,0x20
	.DB  0x3,0x26,0x66,0x66,0x64,0x0,0x40,0xC6
	.DB  0x18,0xC3,0x18,0x1F,0x8,0xFC,0x7E,0x30
	.DB  0x6,0x77,0x3C,0x7,0xE7,0x3C,0x78,0x3E
	.DB  0x7B,0x9E,0x7B,0xBF,0x1,0xCF,0x73,0xCF
	.DB  0x77,0xE0,0xF1,0xEF,0x3F,0x82,0xF0,0x0
	.DB  0x0,0xFE,0x0,0x20,0x0,0x0,0x0,0x7
	.DB  0xF0,0x0,0x0,0x30,0x0,0x0,0x0,0x3F
	.DB  0x80,0x0,0x0,0x0,0x7,0xF0,0x0,0x0
	.DB  0x0,0x0,0x0,0x0,0x0,0x82,0x1,0xA0
	.DB  0x0,0x0,0x0,0x4,0x10,0x0,0x0,0x30
	.DB  0x0,0x0,0x0,0x20,0x80,0x0,0x0,0x0
	.DB  0x4,0x10,0x0,0x0,0x0,0x0,0x0,0x0
	.DB  0x0,0x7C,0x1,0xC0,0x0,0x0,0x0,0x3
	.DB  0xE0,0x0,0x0,0x78,0x0,0x0,0x0,0x1F
	.DB  0x0,0x0,0x0,0x0,0x3,0xE0,0x0,0x0
	.DB  0x0,0x0,0x0
_msg39:
	.DB  0xE8,0x10,0x1D,0x0,0x0,0x0,0x0,0x0
	.DB  0x0,0x0,0x0,0x0,0x0,0x0,0x0,0x0
	.DB  0x0,0x0,0x0,0x0,0x0,0x0,0x0,0x0
	.DB  0x0,0x0,0x0,0x0,0x0,0x0,0x0,0x0
	.DB  0x0,0x0,0x0,0x0,0x0,0x0,0x0,0x0
	.DB  0x0,0x0,0x0,0x0,0x0,0x0,0x0,0x0
	.DB  0x0,0x0,0x0,0x0,0x0,0x0,0x0,0x0
	.DB  0x0,0x0,0x0,0x0,0x0,0x3E,0x7C,0x0
	.DB  0x0,0x0,0x0,0x0,0x7,0x0,0x0,0x38
	.DB  0x71,0x80,0x3,0x80,0x70,0x0,0x3,0x87
	.DB  0x0,0x3,0xE3,0xB0,0xE0,0x3,0xE7,0xC0
	.DB  0x0,0x0,0xE,0x10,0x0,0x40,0x0,0x0
	.DB  0x0,0x5,0x0,0x0,0x18,0x51,0x80,0x1
	.DB  0x80,0x50,0x0,0x1,0x85,0x0,0x0,0xC1
	.DB  0x30,0xA0,0x0,0xE1,0x0,0x0,0x0,0xB
	.DB  0x10,0x0,0x20,0x0,0x0,0x0,0x8,0x80
	.DB  0x0,0x7C,0x88,0x0,0x1,0x80,0x88,0x0
	.DB  0x1,0x88,0x80,0x0,0xC1,0x1,0x11,0x0
	.DB  0xB1,0x0,0x0,0x0,0x9,0x90,0x0,0x0
	.DB  0x0,0x0,0x0,0x0,0x0,0x0,0x18,0x0
	.DB  0x0,0x1,0x80,0x0,0x0,0x1,0x80,0x0
	.DB  0x0,0x62,0x0,0x3,0x0,0x99,0x0,0x0
	.DB  0x0,0x9,0x90,0xFC,0xF3,0xDC,0xE,0xBB
	.DB  0x8F,0x3B,0x0,0xF8,0xF3,0x83,0xB1,0xB0
	.DB  0xF3,0xB0,0xF,0x8F,0x3B,0x0,0x62,0x71
	.DB  0xE7,0xC0,0x99,0xF,0x3B,0x30,0x8,0xD1
	.DB  0x99,0x99,0x88,0x19,0x99,0x99,0x9D,0x81
	.DB  0x99,0x99,0x81,0xD9,0xD9,0x99,0xD8,0x19
	.DB  0x99,0x9D,0x80,0x64,0x33,0x33,0x0,0x8D
	.DB  0x19,0x9D,0xD8,0x8,0x71,0x98,0x19,0xD0
	.DB  0x19,0x99,0x81,0x99,0x81,0x99,0x99,0x81
	.DB  0x99,0x98,0x19,0x98,0x19,0x81,0x99,0x80
	.DB  0x34,0x33,0x33,0x0,0x87,0x1,0x99,0x98
	.DB  0x8,0x71,0x98,0xF8,0xD0,0x19,0x99,0x8F
	.DB  0x99,0x81,0x99,0x99,0x81,0x99,0x98,0xF9
	.DB  0x98,0x19,0x8F,0x99,0x80,0x34,0x33,0xF3
	.DB  0x0,0x87,0xF,0x99,0x98,0x8,0x30,0xF1
	.DB  0x98,0xE0,0x19,0x99,0x99,0x99,0x81,0x99
	.DB  0x99,0x81,0x99,0x99,0x99,0x98,0x19,0x99
	.DB  0x99,0x80,0x18,0x33,0x3,0x0,0x83,0x19
	.DB  0x99,0x98,0x8,0x11,0x1,0x98,0x60,0x19
	.DB  0x99,0x99,0x99,0x81,0x99,0x99,0x81,0x99
	.DB  0x99,0x99,0x98,0x19,0x99,0x99,0x80,0x18
	.DB  0x33,0x13,0x40,0x81,0x19,0x99,0x98,0x3E
	.DB  0x11,0xF8,0xFC,0x60,0xF,0x8F,0xCF,0xDD
	.DB  0xC0,0xFC,0xF3,0xC3,0xDD,0xDC,0xFD,0xDC
	.DB  0xF,0xCF,0xDD,0xC0,0x18,0x79,0xE1,0x83
	.DB  0xE1,0xF,0xDD,0xDC,0x0,0x1,0xFC,0x0
	.DB  0x40,0x1,0x80,0x0,0x0,0x0,0x0,0x0
	.DB  0x0,0x0,0x0,0x0,0x0,0x0,0x0,0x0
	.DB  0x0,0x0,0x0,0x0,0x0,0x0,0x0,0x0
	.DB  0x0,0x0,0x1,0x4,0x3,0x40,0x1,0x80
	.DB  0x0,0x0,0x0,0x0,0x60,0x0,0x0,0x0
	.DB  0x0,0x0,0x0,0x0,0x0,0x0,0x0,0x0
	.DB  0xC0,0x0,0x0,0x0,0x0,0x0,0x0,0x0
	.DB  0xF8,0x3,0x80,0x3,0xC0,0x0,0x0,0x0
	.DB  0x0,0x60,0x0,0x0,0x0,0x0,0x0,0x0
	.DB  0x0,0x0,0x0,0x0,0x0,0xC0,0x0,0x0
	.DB  0x0,0x0,0x0
_msg40:
	.DB  0x78,0x10,0xF,0x0,0x0,0x0,0x0,0x0
	.DB  0x0,0x0,0x0,0x0,0x0,0x0,0x0,0x0
	.DB  0x0,0x0,0x0,0x0,0x0,0x0,0x0,0x0
	.DB  0x0,0x0,0x0,0x0,0x0,0x0,0x0,0x0
	.DB  0x0,0x7,0x23,0x0,0x0,0x0,0x0,0x6
	.DB  0x0,0xE0,0x0,0x0,0x6,0x0,0x3,0xC0
	.DB  0x18,0xE3,0x4,0x0,0x0,0x0,0x6,0x0
	.DB  0x60,0x0,0x0,0x6,0x0,0x0,0x40,0x18
	.DB  0x60,0x8,0x0,0x0,0x0,0x0,0x0,0x60
	.DB  0x0,0x0,0x0,0x0,0x1,0x80,0x30,0x20
	.DB  0x0,0x0,0x0,0x0,0x0,0x0,0x60,0x0
	.DB  0x0,0x0,0x0,0x0,0x0,0x30,0x7,0x1E
	.DB  0x76,0x1F,0x81,0xEE,0xEC,0x6C,0xF,0x76
	.DB  0xEE,0xF,0x73,0xC0,0x30,0x3,0x33,0x3B
	.DB  0x33,0x3,0x26,0x76,0x76,0x6,0x26,0x66
	.DB  0x6,0x26,0x60,0x30,0xF3,0x3,0x33,0x33
	.DB  0x3,0x86,0x66,0x66,0x3,0x46,0x66,0x3
	.DB  0x46,0x60,0x30,0x63,0x1F,0x33,0x33,0x1
	.DB  0xC6,0x66,0x66,0x3,0x46,0x66,0x3,0x47
	.DB  0xE0,0x18,0x63,0x33,0x33,0x1E,0x0,0xE6
	.DB  0x66,0x66,0x3,0x46,0x66,0x3,0x46,0x0
	.DB  0x18,0x63,0x33,0x33,0x20,0x2,0x66,0x66
	.DB  0x66,0x1,0x86,0x66,0x1,0x86,0x20,0x7
	.DB  0xC7,0x9F,0xBB,0xBF,0x3,0xCF,0x77,0x77
	.DB  0x1,0x83,0xF7,0x1,0x83,0xC0,0x0,0x0
	.DB  0x0,0x0,0x3F,0x80,0x0,0x0,0x0,0x0
	.DB  0x0,0x0,0x0,0x0,0x0,0x0,0x0,0x0
	.DB  0x0,0x20,0x80,0x0,0x0,0x0,0x0,0x0
	.DB  0x0,0x0,0x0,0x0,0x0,0x0,0x0,0x0
	.DB  0x1F,0x0,0x0,0x0,0x0,0x0,0x0,0x0
	.DB  0x0,0x0,0x0
_text_can1:
	.DB  0x38,0x44,0x40,0x40,0x40,0x44,0x38,0x0
	.DB  0x7C,0x10,0x10,0x10,0x10,0x10,0x10,0x0
	.DB  0x44,0x64,0x54,0x4C,0x44,0x44,0x44,0x0
	.DB  0x38,0x44,0x44,0x44,0x54,0x48,0x34,0x0
	.DB  0x38,0x44,0x40,0x40,0x5C,0x44,0x3C,0x0
	.DB  0x11,0x2A,0x38,0x4,0x3C,0x44,0x3C,0x0
	.DB  0x78,0x44,0x44,0x78,0x44,0x44,0x78,0x0
	.DB  0x78,0x44,0x44,0xE4,0x44,0x44,0x78,0x0
	.DB  0x44,0x6C,0x54,0x44,0x44,0x44,0x44,0x0
	.DB  0x44,0x48,0x50,0x60,0x50,0x48,0x44,0x0
_text_can2:
	.DB  0x0,0x0,0x38,0x4,0x3C,0x44,0x3C,0x0
	.DB  0x10,0x28,0x38,0x4,0x3C,0x44,0x3C,0x0
	.DB  0x40,0x40,0x78,0x44,0x44,0x44,0x44,0x0
	.DB  0x0,0x0,0x44,0x44,0x44,0x4C,0x34,0x0
	.DB  0x10,0x0,0x10,0x30,0x10,0x10,0x18,0x0
	.DB  0x0,0x10,0x7C,0x10,0x10,0x14,0x8,0x0
	.DB  0x2,0x14,0x0,0x10,0x30,0x10,0x18,0x0
	.DB  0x10,0x0,0x10,0x30,0x10,0x10,0x18,0x0
	.DB  0x10,0x28,0x38,0x4,0x3C,0x44,0x3C,0x0
	.DB  0x30,0x10,0x44,0x44,0x44,0x3C,0x8,0x30
_text_can3:
	.DB  0x0,0x0,0x78,0x44,0x44,0x44,0x44,0x0
	.DB  0x0,0x0,0x78,0x44,0x44,0x44,0x44,0x0
	.DB  0x10,0x28,0x38,0x4,0x3C,0x44,0x3C,0x0
	.DB  0x8,0x10,0x44,0x44,0x44,0x38,0x8,0x30
	.DB  0x1,0x2,0x38,0x4,0x3C,0x44,0x3C,0x0
	.DB  0x0,0x0,0x0,0x0,0x0,0x0,0x0,0x0
	.DB  0x0,0x0,0x78,0x44,0x44,0x44,0x44,0x0
	.DB  0x0,0x0,0x78,0x44,0x44,0x44,0x44,0x0
	.DB  0x0,0x0,0x44,0x44,0x44,0x4C,0x34,0x0
	.DB  0x0,0x0,0x0,0x0,0x0,0x0,0x0,0x0
_text_can4:
	.DB  0x40,0x40,0x78,0x44,0x44,0x44,0x44,0x0
	.DB  0x0,0x0,0x0,0x0,0x0,0x0,0x0,0x0
	.DB  0x0,0x0,0x68,0x54,0x54,0x54,0x54,0x0
	.DB  0x0,0x0,0x0,0x0,0x0,0x0,0x0,0x0
	.DB  0x0,0x0,0x78,0x44,0x44,0x78,0x40,0x40
	.DB  0x0,0x0,0x0,0x0,0x0,0x0,0x0,0x0
	.DB  0x40,0x40,0x78,0x44,0x44,0x44,0x44,0x0
	.DB  0x40,0x40,0x78,0x44,0x44,0x44,0x44,0x0
	.DB  0x0,0x0,0x0,0x0,0x0,0x0,0x0,0x0
	.DB  0x0,0x0,0x0,0x0,0x0,0x0,0x0,0x0
_text_chi1:
	.DB  0x0,0x0,0x0,0x0,0x0,0x0,0x0,0x0
	.DB  0x0,0x0,0x0,0x0,0x0,0x0,0x0,0x0
	.DB  0x0,0x0,0x0,0x0,0x0,0x0,0x0,0x0
	.DB  0x0,0x0,0x0,0x0,0x0,0x0,0x0,0x0
	.DB  0x0,0x7C,0x10,0x10,0x10,0x10,0x10,0x10
	.DB  0x0,0x0,0x0,0x0,0x0,0x0,0x0,0x0
	.DB  0x0,0x0,0x0,0x0,0x0,0x0,0x0,0x0
	.DB  0x0,0x0,0x0,0x0,0x0,0x0,0x0,0x0
	.DB  0x0,0x7C,0x10,0x10,0x10,0x10,0x10,0x10
	.DB  0x0,0x0,0x0,0x0,0x0,0x0,0x0,0x0
	.DB  0x0,0x7C,0x10,0x10,0x10,0x10,0x10,0x10
	.DB  0x0,0x0,0x0,0x0,0x0,0x0,0x0,0x0
_text_chi2:
	.DB  0x0,0x0,0x0,0x0,0x0,0x0,0x0,0x0
	.DB  0x0,0x38,0x44,0x40,0x38,0x4,0x44,0x38
	.DB  0x0,0x78,0x44,0x44,0x44,0x44,0x44,0x78
	.DB  0x0,0x44,0x6C,0x54,0x44,0x44,0x44,0x44
	.DB  0x0,0x40,0x40,0x78,0x44,0x44,0x44,0x44
	.DB  0x0,0x0,0x0,0x0,0x0,0x0,0x0,0x0
	.DB  0x0,0x44,0x64,0x54,0x4C,0x44,0x44,0x44
	.DB  0x0,0x44,0x6C,0x54,0x44,0x44,0x44,0x44
	.DB  0x0,0x40,0x40,0x78,0x44,0x44,0x44,0x44
	.DB  0x0,0x78,0x44,0x44,0x44,0x44,0x44,0x78
	.DB  0x0,0x0,0x0,0x44,0x44,0x44,0x4C,0x34
	.DB  0x0,0x44,0x44,0x44,0x7C,0x44,0x44,0x44
_text_chi3:
	.DB  0x0,0x7C,0x10,0x10,0x10,0x10,0x10,0x10
	.DB  0x30,0x16,0x2,0x44,0x44,0x44,0x4C,0x34
	.DB  0x2,0x11,0x28,0x38,0x4,0x3C,0x44,0x3C
	.DB  0x0,0x0,0x0,0x38,0x44,0x78,0x40,0x38
	.DB  0x8,0x4,0x10,0x0,0x10,0x30,0x10,0x18
	.DB  0x0,0x7C,0x10,0x10,0x10,0x10,0x10,0x10
	.DB  0x0,0x38,0x44,0x44,0x3C,0x4,0x4,0x38
	.DB  0x20,0x10,0x0,0x44,0x44,0x44,0x4C,0x34
	.DB  0x10,0x28,0x0,0x38,0x4,0x3C,0x44,0x3C
	.DB  0x10,0x28,0x0,0x38,0x4,0x3C,0x44,0x3C
	.DB  0x11,0x2A,0x0,0x38,0x4,0x3C,0x44,0x3C
	.DB  0x0,0x4,0x2,0x3A,0x44,0x44,0x44,0x38
_text_chi4:
	.DB  0x8,0x10,0x44,0x44,0x44,0x3C,0x8,0x30
	.DB  0x0,0x0,0x0,0x44,0x44,0x44,0x4C,0x34
	.DB  0x0,0x0,0x0,0x78,0x44,0x44,0x44,0x44
	.DB  0x0,0x0,0x0,0x38,0x44,0x44,0x44,0x38
	.DB  0x0,0x0,0x0,0x78,0x44,0x44,0x44,0x44
	.DB  0x0,0x44,0x44,0x28,0x10,0x60,0x0,0x10
	.DB  0x0,0x38,0x44,0x44,0x44,0x38,0x0,0x10
	.DB  0x0,0x10,0x0,0x10,0x30,0x10,0x10,0x18
	.DB  0x0,0x0,0x0,0x78,0x44,0x44,0x44,0x44
	.DB  0x0,0x0,0x0,0x44,0x44,0x44,0x4C,0x34
	.DB  0x0,0x0,0x10,0x7C,0x10,0x10,0x14,0x8
	.DB  0x0,0x10,0x0,0x10,0x30,0x10,0x10,0x18
_text_dauxet:
	.DB  0x3,0x6,0xC,0x8,0x0,0x0,0x0,0x0
	.DB  0x0,0x0,0x0,0x10,0x30,0x60,0xC0,0x80
	.DB  0x64,0x94,0xF4,0x94,0x97,0x0,0x0,0x0
_text_muiten:
	.DB  0x0,0x0,0x8,0x4,0x7E,0x4,0x8,0x0
_text_sec:
	.DB  0x38,0x44,0x40,0x38,0x4,0x44,0x38,0x0
	.DB  0x0,0x0,0x38,0x44,0x78,0x40,0x38,0x0
	.DB  0x0,0x0,0x38,0x40,0x40,0x40,0x38,0x0
_text_min:
	.DB  0x44,0x6C,0x54,0x44,0x44,0x44,0x44,0x0
	.DB  0x10,0x0,0x10,0x30,0x10,0x10,0x18,0x0
	.DB  0x0,0x0,0x78,0x44,0x44,0x44,0x44,0x0
_text_hour:
	.DB  0x44,0x44,0x44,0x7C,0x44,0x44,0x44,0x0
	.DB  0x0,0x0,0x38,0x44,0x44,0x44,0x38,0x0
	.DB  0x0,0x0,0x44,0x44,0x44,0x4C,0x34,0x0
	.DB  0x0,0x0,0x58,0x24,0x20,0x20,0x70,0x0
_text_week:
	.DB  0x7C,0x10,0x10,0x10,0x10,0x10,0x10,0x0
	.DB  0x40,0x40,0x78,0x44,0x44,0x44,0x44,0x0
	.DB  0x6,0x2,0x44,0x44,0x44,0x4C,0x34,0x0
	.DB  0x40,0x80,0x0,0x0,0x0,0x0,0x0,0x0
_text_day:
	.DB  0x78,0x44,0x44,0x44,0x44,0x44,0x78,0x0
	.DB  0x0,0x0,0x38,0x4,0x3C,0x44,0x3C,0x0
	.DB  0x0,0x10,0x7C,0x10,0x10,0x14,0x8,0x0
	.DB  0x0,0x0,0x38,0x44,0x78,0x40,0x38,0x0
_text_month:
	.DB  0x44,0x6C,0x54,0x44,0x44,0x44,0x44,0x0
	.DB  0x0,0x0,0x38,0x44,0x44,0x44,0x38,0x0
	.DB  0x0,0x1,0xE3,0x91,0x91,0x91,0x91,0x0
	.DB  0x8,0x8,0xCE,0x9,0x9,0x49,0x89,0x0
_text_year:
	.DB  0x44,0x44,0x44,0x28,0x10,0x10,0x10,0x0
	.DB  0x0,0x0,0x38,0x44,0x78,0x40,0x38,0x0
	.DB  0x0,0x0,0x38,0x4,0x3C,0x44,0x3C,0x0
	.DB  0x0,0x0,0x58,0x24,0x20,0x20,0x70,0x0
_text_autohand:
	.DB  0x38,0x44,0x44,0x44,0x7C,0x44,0x44,0x0
	.DB  0x0,0x0,0x44,0x44,0x44,0x4C,0x34,0x0
	.DB  0x0,0x10,0x7C,0x10,0x10,0x14,0x8,0x0
	.DB  0x0,0x0,0x38,0x44,0x44,0x44,0x38,0x0
	.DB  0x44,0x44,0x44,0x7C,0x44,0x44,0x44,0x0
	.DB  0x0,0x0,0x38,0x4,0x3C,0x44,0x3C,0x0
	.DB  0x0,0x0,0x78,0x44,0x44,0x44,0x44,0x0
	.DB  0x4,0x4,0x3C,0x44,0x44,0x44,0x3C,0x0
	.DB  0x44,0x6C,0x54,0x44,0x44,0x44,0x44,0x0
	.DB  0x10,0x0,0x10,0x30,0x10,0x10,0x18,0x0
	.DB  0x0,0x0,0x44,0x28,0x10,0x28,0x44,0x0
_font_weekled2:
	.DB  0x0,0x0,0x0,0x0,0x0,0x0,0x0,0x0
	.DB  0x0,0x38,0x44,0x40,0x40,0x40,0x44,0x39
	.DB  0x0,0x44,0x44,0x44,0x7C,0x44,0x44,0x44
	.DB  0x0,0x78,0x44,0x44,0x78,0x44,0x44,0x78
	.DB  0x0,0x7C,0x10,0x10,0x10,0x10,0x10,0x10
	.DB  0x0,0x44,0x64,0x54,0x4C,0x44,0x44,0x44
	.DB  0x0,0x38,0x44,0x40,0x38,0x4,0x44,0x38
	.DB  0x0,0x78,0x44,0x44,0x78,0x44,0x44,0x78
_font_weekled3:
	.DB  0x0,0x0,0x0,0x0,0x0,0x0,0x0,0x0
	.DB  0x0,0x0,0x0,0x70,0x48,0x48,0x48,0x4A
	.DB  0x0,0x0,0x0,0x38,0x4,0x3C,0x44,0x3C
	.DB  0x0,0x0,0x0,0x38,0x4,0x3C,0x44,0x3C
	.DB  0x0,0x6,0x2,0x44,0x44,0x44,0x4C,0x34
	.DB  0x24,0x18,0x0,0x38,0x4,0x3C,0x44,0x3C
	.DB  0x1,0x2,0x0,0x38,0x4,0x3C,0x44,0x3C
	.DB  0x0,0x6,0x2,0x38,0x4,0x3C,0x44,0x3C
_font_weekled4:
	.DB  0x0,0x0,0x0,0x0,0x0,0x0,0x0,0x0
	.DB  0x0,0x0,0x0,0x0,0x0,0x0,0x0,0x0
	.DB  0x0,0x10,0x0,0x10,0x30,0x10,0x10,0x18
	.DB  0x0,0x0,0x0,0x0,0x0,0x0,0x0,0x0
	.DB  0x0,0x0,0x0,0x0,0x0,0x0,0x0,0x0
	.DB  0x0,0x0,0x0,0x68,0x54,0x54,0x54,0x54
	.DB  0x0,0x0,0x0,0x44,0x44,0x44,0x4C,0x34
	.DB  0x0,0x0,0x44,0x44,0x44,0x3C,0x8,0x30
_font_chunhat:
	.DB  0x38,0x44,0x40,0x40,0x40,0x44,0x38,0x0
	.DB  0x40,0x40,0x78,0x44,0x44,0x44,0x44,0x0
	.DB  0x30,0x10,0x44,0x44,0x44,0x4C,0x34,0x0
	.DB  0x0,0x44,0x64,0x54,0x4C,0x44,0x44,0x44
	.DB  0x0,0x40,0x40,0x78,0x44,0x44,0x44,0x44
	.DB  0x10,0x28,0x0,0x38,0x4,0x3C,0x44,0x3C
	.DB  0x0,0x0,0x10,0x7C,0x10,0x10,0x14,0x8
_font_sohang1:
	.DB  0x38,0x44,0x44,0x44,0x44,0x44,0x38,0x0
	.DB  0x10,0x30,0x50,0x10,0x10,0x10,0x7C,0x0
	.DB  0x38,0x44,0x4,0x18,0x20,0x40,0x7C,0x0
	.DB  0x38,0x44,0x4,0x18,0x4,0x44,0x38,0x0
	.DB  0x8,0x18,0x28,0x48,0x7C,0x8,0x8,0x0
	.DB  0x7C,0x40,0x78,0x4,0x4,0x44,0x38,0x0
	.DB  0x18,0x20,0x40,0x78,0x44,0x44,0x38,0x0
	.DB  0x7C,0x4,0x8,0x10,0x20,0x20,0x20,0x0
	.DB  0x38,0x44,0x44,0x38,0x44,0x44,0x38,0x0
	.DB  0x38,0x44,0x44,0x3C,0x4,0x8,0x30,0x0
_font_sohang2:
	.DB  0x0,0x38,0x44,0x44,0x44,0x44,0x44,0x38
	.DB  0x0,0x10,0x30,0x50,0x10,0x10,0x10,0x7C
	.DB  0x0,0x38,0x44,0x4,0x18,0x20,0x40,0x7C
	.DB  0x0,0x38,0x44,0x4,0x18,0x4,0x44,0x38
	.DB  0x0,0x8,0x18,0x28,0x48,0x7C,0x8,0x8
	.DB  0x0,0x7C,0x40,0x78,0x4,0x4,0x44,0x38
	.DB  0x0,0x18,0x20,0x40,0x78,0x44,0x44,0x38
	.DB  0x0,0x7C,0x4,0x8,0x10,0x20,0x20,0x20
	.DB  0x0,0x38,0x44,0x44,0x38,0x44,0x44,0x38
	.DB  0x0,0x38,0x44,0x44,0x3C,0x4,0x8,0x30
_font_sohang1_tr:
	.DB  0x70,0x88,0x88,0x88,0x88,0x88,0x70,0x0
	.DB  0x20,0x60,0xA0,0x20,0x20,0x20,0xF8,0x0
	.DB  0x70,0x88,0x8,0x30,0x40,0x80,0xF8,0x0
	.DB  0x70,0x88,0x8,0x30,0x8,0x88,0x70,0x0
	.DB  0x10,0x30,0x50,0x90,0xF8,0x10,0x10,0x0
	.DB  0xF8,0x80,0xF0,0x8,0x8,0x88,0x70,0x0
	.DB  0x30,0x40,0x80,0xF0,0x88,0x88,0x70,0x0
	.DB  0xF8,0x8,0x10,0x20,0x40,0x40,0x40,0x0
	.DB  0x70,0x88,0x88,0x70,0x88,0x88,0x70,0x0
	.DB  0x70,0x88,0x88,0x78,0x8,0x10,0x60,0x0
_font_sohang1_ch:
	.DB  0x1C,0x22,0x22,0x22,0x22,0x22,0x1C,0x0
	.DB  0x8,0x18,0x28,0x8,0x8,0x8,0x3E,0x0
	.DB  0x1C,0x22,0x2,0xC,0x10,0x20,0x3E,0x0
	.DB  0x1C,0x22,0x2,0xC,0x2,0x22,0x1C,0x0
	.DB  0x4,0xC,0x14,0x24,0x3E,0x4,0x4,0x0
	.DB  0x3E,0x20,0x3C,0x2,0x2,0x22,0x1C,0x0
	.DB  0xC,0x10,0x20,0x3C,0x22,0x22,0x1C,0x0
	.DB  0x3E,0x2,0x4,0x8,0x10,0x10,0x10,0x0
	.DB  0x1C,0x22,0x22,0x1C,0x22,0x22,0x1C,0x0
	.DB  0x1C,0x22,0x22,0x1E,0x2,0x4,0x18,0x0
_font_sohang2_ch:
	.DB  0x0,0x1C,0x22,0x22,0x22,0x22,0x22,0x1C
	.DB  0x0,0x8,0x18,0x28,0x8,0x8,0x8,0x3E
	.DB  0x0,0x1C,0x22,0x2,0xC,0x10,0x20,0x3E
	.DB  0x0,0x1C,0x22,0x2,0xE,0x2,0x22,0x1C
	.DB  0x0,0x4,0xC,0x14,0x24,0x3E,0x4,0x4
	.DB  0x0,0x3E,0x20,0x3C,0x2,0x2,0x22,0x1C
	.DB  0x0,0xC,0x10,0x20,0x3C,0x22,0x22,0x1C
	.DB  0x0,0x3E,0x2,0x4,0x8,0x10,0x10,0x10
	.DB  0x0,0x1C,0x22,0x22,0x1C,0x22,0x22,0x1C
	.DB  0x0,0x1C,0x22,0x22,0x1E,0x2,0x4,0x18
_ngayALdauthangDL:
	.DB  0x14,0x15,0x14,0x15,0x16,0x17,0x18,0x19
	.DB  0x1A,0x1B,0x1C,0x1D,0x1,0x2,0x1,0x2
	.DB  0x3,0x4,0x5,0x6,0x8,0x8,0x9,0xA
	.DB  0xB,0xD,0xB,0xD,0xD,0xF,0x10,0x11
	.DB  0x13,0x13,0x14,0x14,0x16,0x17,0x17,0x18
	.DB  0x19,0x1A,0x1B,0x1D,0x1,0x1,0x2,0x3
	.DB  0x4,0x5,0x4,0x5,0x6,0x7,0x8,0xA
	.DB  0xB,0xC,0xD,0xE,0xF,0x10,0xE,0x10
	.DB  0x10,0x12,0x12,0x14,0x16,0x16,0x18,0x19
	.DB  0x1A,0x1B,0x19,0x1B,0x1B,0x1C,0x1D,0x1
	.DB  0x3,0x3,0x5,0x6,0x7,0x8,0x8,0x9
	.DB  0x9,0xA,0xB,0xC,0xE,0xF,0x10,0x11
	.DB  0x13,0x14,0x12,0x14,0x14,0x15,0x16,0x17
	.DB  0x19,0x19,0x1B,0x1B,0x1D,0x1,0x1D,0x1
	.DB  0x1,0x3,0x3,0x4,0x6,0x6,0x8,0x8
	.DB  0xA,0xB,0x14,0xB,0xC,0xE,0xE,0xF
	.DB  0x11,0x11,0x12,0x13,0x14,0x16,0x15,0x17
	.DB  0x17,0x19,0x1A,0x1B,0x1D,0x1D,0x1,0x1
	.DB  0x2,0x4,0x2,0x4,0x4,0x6,0x7,0x8
	.DB  0xA,0xA,0xC,0xC,0xD,0xE,0xD,0xE
	.DB  0xF,0x10,0x11,0x13,0x14,0x15,0x17,0x17
	.DB  0x18,0x19,0x18,0x19,0x19,0x1B,0x1B,0x1D
	.DB  0x1,0x2,0x4,0x4,0x5,0x7,0x6,0x7
	.DB  0x7,0x9,0x9,0xB,0xD,0xD,0xF,0x10
	.DB  0x11,0x12,0x11,0x12,0x12,0x14,0x14,0x16
	.DB  0x17,0x18,0x19,0x1A,0x1C,0x1D,0x1C,0x1D
	.DB  0x1D,0x1,0x1,0x3,0x4,0x5,0x6,0x7
_thangALdauthangDL:
	.DB  0xB,0xC,0x1,0x2,0x3,0x4,0x5,0x6
	.DB  0x7,0x8,0x9,0xA,0xC,0x1,0x2,0x3
	.DB  0x4,0x5,0x6,0x7,0x8,0x9,0x9,0xA
	.DB  0xB,0xC,0x1,0x2,0x3,0x4,0x5,0x6
	.DB  0x7,0x8,0x9,0xA,0xB,0xC,0x1,0x2
	.DB  0x3,0x4,0x5,0x6,0x8,0x9,0xA,0xB
	.DB  0xC,0x1,0x2,0x3,0x4,0x5,0x6,0x6
	.DB  0x7,0x8,0x9,0xA,0xB,0xC,0x1,0x2
	.DB  0x3,0x4,0x5,0x6,0x7,0x8,0x9,0xA
	.DB  0xB,0xC,0x1,0x2,0x3,0x4,0x5,0x7
	.DB  0x8,0x9,0xA,0xB,0xC,0x1,0x2,0x3
	.DB  0x4,0x4,0x5,0x6,0x7,0x8,0x9,0xA
	.DB  0xB,0xC,0x1,0x2,0x3,0x4,0x5,0x6
	.DB  0x7,0x8,0x9,0xA,0xB,0x1,0x1,0x3
	.DB  0x4,0x5,0x6,0x7,0x8,0x9,0xA,0xB
	.DB  0xC,0x1,0x2,0x2,0x3,0x4,0x5,0x6
	.DB  0x7,0x8,0x9,0xA,0xB,0xC,0x1,0x2
	.DB  0x3,0x4,0x5,0x6,0x7,0x8,0xA,0xB
	.DB  0xC,0x1,0x2,0x3,0x4,0x5,0x6,0x6
	.DB  0x7,0x8,0x9,0xA,0xB,0xC,0x1,0x2
	.DB  0x3,0x4,0x5,0x6,0x7,0x8,0x9,0xA
	.DB  0xB,0xC,0x1,0x2,0x3,0x4,0x5,0x6
	.DB  0x8,0x9,0xA,0xB,0xC,0x1,0x2,0x3
	.DB  0x4,0x5,0x5,0x6,0x7,0x8,0x9,0xA
	.DB  0xB,0xC,0x1,0x2,0x3,0x4,0x5,0x6
	.DB  0x7,0x8,0x9,0xA,0xB,0xC,0x1,0x2
	.DB  0x3,0x5,0x6,0x7,0x8,0x9,0xA,0xB
_ngayDLdauthangAL:
	.DB  0xC,0xA,0xC,0xA,0xA,0x8,0x8,0x7
	.DB  0x5,0x5,0x3,0x3,0x1F,0x1F,0x1F,0x1D
	.DB  0x1D,0x1B,0x1B,0x19,0x18,0x18,0x16,0x16
	.DB  0x14,0x13,0x14,0x13,0x12,0x10,0x10,0xE
	.DB  0xD,0xD,0xC,0xB,0xA,0x8,0x9,0x7
	.DB  0x7,0x5,0x4,0x3,0x1,0x1F,0x1D,0x1D
	.DB  0x1C,0x1A,0x1C,0x1A,0x1A,0x18,0x17,0x16
	.DB  0x14,0x14,0x12,0x12,0x11,0x10,0x11,0x10
	.DB  0xF,0xE,0xD,0xB,0xA,0x9,0x7,0x7
	.DB  0x6,0x5,0x6,0x5,0x5,0x3,0x3,0x1E
	.DB  0x1D,0x1C,0x1A,0x1A,0x19,0x17,0x18,0x17
	.DB  0x17,0x15,0x15,0x13,0x11,0x11,0xF,0xE
	.DB  0xD,0xC,0xD,0xC,0xC,0xA,0xA,0x8
	.DB  0x7,0x6,0x5,0x4,0x3,0x1D,0x3,0x1F
	.DB  0x1E,0x1D,0x1D,0x1B,0x1A,0x19,0x18,0x17
	.DB  0x16,0x14,0x16,0x14,0x13,0x12,0x12,0x10
	.DB  0xF,0xF,0xD,0xD,0xB,0xA,0xA,0x9
	.DB  0x8,0x6,0x6,0x4,0x3,0x3,0x1F,0x1F
	.DB  0x1D,0x1C,0x1D,0x1C,0x1B,0x19,0x19,0x17
	.DB  0x16,0x15,0x14,0x14,0x13,0x11,0x13,0x11
	.DB  0x11,0xF,0xE,0xD,0xB,0xA,0x9,0x9
	.DB  0x8,0x6,0x8,0x7,0x6,0x5,0x4,0x1
	.DB  0x1E,0x1D,0x1C,0x1C,0x1A,0x19,0x1A,0x19
	.DB  0x18,0x17,0x16,0x14,0x13,0x12,0x10,0x10
	.DB  0xF,0x17,0xF,0xE,0xD,0xC,0xB,0xA
	.DB  0x8,0x8,0x6,0x5,0x4,0x2,0x4,0x1F
	.DB  0x2,0x1E,0x1E,0x1D,0x1B,0x1B,0x19,0x19
_thangALdauthangAL:
	.DB  0xC,0x1,0x2,0x3,0x4,0x5,0x6,0x7
	.DB  0x8,0x9,0xA,0xB,0x1,0x2,0x3,0x4
	.DB  0x5,0x6,0x7,0x8,0x9,0x9,0xA,0xB
	.DB  0xC,0x1,0x2,0x3,0x4,0x5,0x6,0x7
	.DB  0x8,0x9,0xA,0xB,0xC,0x1,0x2,0x3
	.DB  0x4,0x5,0x6,0x7,0x8,0xA,0xB,0xC
	.DB  0x1,0x2,0x3,0x4,0x5,0x6,0x6,0x7
	.DB  0x8,0x9,0xA,0xB,0xC,0x1,0x2,0x3
	.DB  0x4,0x5,0x6,0x7,0x8,0x9,0xA,0xB
	.DB  0xC,0x1,0x2,0x3,0x4,0x5,0x6,0x8
	.DB  0x9,0xA,0xB,0xC,0x1,0x2,0x3,0x4
	.DB  0x4,0x5,0x6,0x7,0x8,0x9,0xA,0xB
	.DB  0xC,0x1,0x2,0x3,0x4,0x5,0x6,0x7
	.DB  0x8,0x9,0xA,0xB,0xC,0x1,0x2,0x3
	.DB  0x5,0x6,0x7,0x8,0x9,0xA,0xB,0xC
	.DB  0x1,0x2,0x2,0x3,0x4,0x5,0x6,0x7
	.DB  0x8,0x9,0xA,0xB,0xC,0x1,0x2,0x3
	.DB  0x4,0x5,0x6,0x7,0x8,0x9,0xA,0xC
	.DB  0x1,0x2,0x3,0x4,0x5,0x6,0x6,0x7
	.DB  0x8,0x9,0xA,0xB,0xC,0x1,0x2,0x3
	.DB  0x4,0x5,0x6,0x7,0x8,0x9,0xA,0xB
	.DB  0xC,0x1,0x2,0x3,0x4,0x5,0x6,0x7
	.DB  0x9,0xA,0xB,0xC,0x1,0x2,0x3,0x4
	.DB  0x5,0x5,0x6,0x7,0x8,0x9,0xA,0xB
	.DB  0xC,0x1,0x2,0x3,0x4,0x5,0x6,0x7
	.DB  0x8,0x9,0xA,0xB,0xC,0x1,0x2,0x3
	.DB  0x4,0x5,0x7,0x8,0x9,0xA,0xB,0xC

;REGISTER BIT VARIABLES INITIALIZATION
__REG_BIT_VARS:
	.DW  0x0000

;GLOBAL REGISTER VARIABLES INITIALIZATION
__REG_VARS:
	.DB  0x0,0x2,0x6,0x2
	.DB  0x0,0x0,0x0,0x0
	.DB  0x0,0x1

_0x3:
	.DB  0x4
_0x4:
	.DB  0x1

__GLOBAL_INI_TBL:
	.DW  0x02
	.DW  0x02
	.DW  __REG_BIT_VARS*2

	.DW  0x0A
	.DW  0x04
	.DW  __REG_VARS*2

	.DW  0x01
	.DW  _wb
	.DW  _0x3*2

	.DW  0x01
	.DW  _week
	.DW  _0x4*2

_0xFFFFFFFF:
	.DW  0

__RESET:
	CLI
	CLR  R30
	OUT  EECR,R30

;INTERRUPT VECTORS ARE PLACED
;AT THE START OF FLASH
	LDI  R31,1
	OUT  GICR,R31
	OUT  GICR,R30
	OUT  MCUCR,R30

;DISABLE WATCHDOG
	LDI  R31,0x18
	OUT  WDTCR,R31
	OUT  WDTCR,R30

;CLEAR R2-R14
	LDI  R24,(14-2)+1
	LDI  R26,2
	CLR  R27
__CLEAR_REG:
	ST   X+,R30
	DEC  R24
	BRNE __CLEAR_REG

;CLEAR SRAM
	LDI  R24,LOW(__CLEAR_SRAM_SIZE)
	LDI  R25,HIGH(__CLEAR_SRAM_SIZE)
	LDI  R26,__SRAM_START
__CLEAR_SRAM:
	ST   X+,R30
	SBIW R24,1
	BRNE __CLEAR_SRAM

;GLOBAL VARIABLES INITIALIZATION
	LDI  R30,LOW(__GLOBAL_INI_TBL*2)
	LDI  R31,HIGH(__GLOBAL_INI_TBL*2)
__GLOBAL_INI_NEXT:
	LPM  R24,Z+
	LPM  R25,Z+
	SBIW R24,0
	BREQ __GLOBAL_INI_END
	LPM  R26,Z+
	LPM  R27,Z+
	LPM  R0,Z+
	LPM  R1,Z+
	MOVW R22,R30
	MOVW R30,R0
__GLOBAL_INI_LOOP:
	LPM  R0,Z+
	ST   X+,R0
	SBIW R24,1
	BRNE __GLOBAL_INI_LOOP
	MOVW R30,R22
	RJMP __GLOBAL_INI_NEXT
__GLOBAL_INI_END:

;HARDWARE STACK POINTER INITIALIZATION
	LDI  R30,LOW(__SRAM_END-__HEAP_SIZE)
	OUT  SPL,R30
	LDI  R30,HIGH(__SRAM_END-__HEAP_SIZE)
	OUT  SPH,R30

;DATA STACK POINTER INITIALIZATION
	LDI  R28,LOW(__SRAM_START+__DSTACK_SIZE)
	LDI  R29,HIGH(__SRAM_START+__DSTACK_SIZE)

	JMP  _main

	.ESEG
	.ORG 0

	.DSEG
	.ORG 0x260

	.CSEG
;/*****************************************************
;This program was produced by the
;CodeWizardAVR V2.03.4 Standard
;Automatic Program Generator
; Copyright 1998-2008 Pavel Haiduc, HP InfoTech s.r.l.
;http://www.hpinfotech.com
;
;Project :
;Version :
;Date    : 11/8/2013
;Author  :
;Company :
;Comments:
;
;
;Chip type           : ATmega32
;Program type        : Application
;Clock frequency     : 4.000000 MHz
;Memory model        : Small
;External RAM size   : 0
;Data Stack size     : 512
;*****************************************************/
;
;#include <mega32.h>
	#ifndef __SLEEP_DEFINED__
	#define __SLEEP_DEFINED__
	.EQU __se_bit=0x80
	.EQU __sm_mask=0x70
	.EQU __sm_powerdown=0x20
	.EQU __sm_powersave=0x30
	.EQU __sm_standby=0x60
	.EQU __sm_ext_standby=0x70
	.EQU __sm_adc_noise_red=0x10
	.SET power_ctrl_reg=mcucr
	#endif
;#include <delay.h>
;
;unsigned char autohand=2,check_autohand=0,luu_autohand=2,mode1=6,mode2=0,setting=0,dem,dem1;
;unsigned char motcham =0x01;
;bit setup_old;
;bit up_old;
;bit down_old;
;bit ok_old;
;bit autohand_old;
;bit exit_old;
;bit setdown_old;
;
;#include <khaibao.c>
;//*****************************************************************************
;/*Khai bao chan, khai bao bien*/
;#define ROW            PORTB        // chon hang khi quet man hinh led
;#define R              PORTB.5     // chan
;#define SCLK           PORTB.3
;#define CKL            PORTB.7
;#define OE             PORTB.4
;#define CASE_EFF       PORTD.0
;#define CASE_MSG       PORTD.5
;
;// Khai bao cac bien su dung trong CT
;bit load_effect;    // "0" khong cho phep load du lieu cho hieu ung, "1" cho php load
;bit status_buf;     // "0" chon buf_screen_0[64], "1" chon buf_screen_1[64]
;bit b_shift=0 ;     // b_shift=0 Mac dinh dich du lieu tu man hinh led ra ngoai va tu flash vao man hinh led
;                    // b_shift=1 Luon chi dich du lieu tu man hinh led ra ngoai, khng dich du lieu tu flash vao man hinh
;unsigned  int    wb=4;   // do rong byte man hinh led

	.DSEG
;unsigned  int    r;
;unsigned  int    count_byte;
;unsigned  int    count_bit;
;unsigned  int    i,j,k;
;unsigned  int    effect;         //Khong thay tac dung gi
;unsigned  char   check_effect;  //Khong thay tac dung gi
;unsigned  int    b_data;
;unsigned  int    row;
;unsigned char hour,min,sec,week=1,day,month,year, ch_hour,ch_min,ch_sec, dv_hour,dv_min,dv_sec;
;unsigned char ngay_amlich, thang_amlich, nam_amlich;
;unsigned int  allnam_amlich;
;unsigned char hieuung=0;
;// khai bao mang du lieu bo dem man hinh
;unsigned char buf_screen_0[64];   // gia tri "64" la kich thuoc byte cho 1 modul 16x32 pixel
;unsigned char buf_screen_1[64];   //  Man hinh led co n modul thi gia tri tuong ung la n*64
;
;//******************************************************************************************
;#include <bitmap_flash.c>
;// FONT LED MATRIX
;////********************************************************************************
;///*------------------------------------------------------------------------------
;//; If font display distortion, please check Fonts format of setup.
;//; Source file / text :tien vao nhu nuoc song da- tien ra nho giot nhu cafe phin
;//; Width x Height (pixels) :460X16
;//;  Font Format/Size : Monochrome LCD Fonts ,Horizontal scan ,Big endian order/928Byte
;//;  Font make date  : 10/10/2013 1:08:04 Chi?u/T?i
;//------------------------------------------------------------------------------*/
;//0xCC,0x10,0x3A,//Width pixels,Height pixels,Width bytes
;//0x00,0x18,0x00,0x00,0x00,0x00,0x00,0x00,0x00,0x00,0x00,0x00,0x00,0x00,0x00,0x00,
;//0x00,0xC0,0x00,0x00,0x00,0x00,0x00,0x00,0x07,0x00,0x00,0x00,0x00,0xC0,0x00,0x00,
;//0x00,0x00,0x00,0x00,0x00,0x00,0x00,0x00,0x00,0x00,0x00,0x00,0x00,0x00,0x00,0x00,
;//0x00,0x00,0x00,0x00,0x00,0x00,0x00,0x00,0x00,0x00,0x00,0x0C,0x00,0x00,0x00,0x03,
;//0x00,0x00,0x00,0x00,0x00,0x00,0xC0,0x00,0x00,0x60,0x31,0x80,0x00,0x00,0x00,0x00,
;//0x00,0x00,0x07,0x18,0x00,0x00,0x00,0x60,0x00,0x00,0x00,0x00,0x00,0x00,0x00,0x00,
;//0xC0,0x00,0x00,0x00,0x00,0x00,0x00,0x00,0x00,0x30,0x00,0x00,0x00,0x00,0x00,0x00,
;//0x00,0x00,0x00,0x00,0x11,0xC5,0x80,0x00,0x00,0x01,0x80,0x00,0x00,0x01,0xE0,0x00,
;//0x20,0x00,0x00,0x10,0x09,0x00,0x00,0x00,0xC0,0x00,0x00,0x00,0x0F,0x8C,0x00,0x00,
;//0x47,0x26,0x00,0x00,0x00,0x00,0x00,0x00,0x3C,0x00,0x20,0x00,0x03,0x80,0x01,0x00,
;//0x00,0x78,0x00,0x08,0x00,0x00,0x01,0xF0,0x00,0x00,0x1E,0x03,0x80,0x00,0x11,0xC2,
;//0x40,0x00,0x00,0x00,0x80,0x00,0x00,0x00,0xE0,0x00,0x20,0x00,0x00,0x10,0x08,0x00,
;//0x00,0x01,0x20,0x00,0x00,0x00,0x07,0x04,0x00,0x00,0x47,0x09,0x00,0x00,0x00,0x00,
;//0x00,0x00,0x1C,0x00,0x40,0x00,0x03,0x80,0x01,0x00,0x00,0x38,0x00,0x08,0x00,0x00,
;//0x03,0xB0,0x00,0x00,0x0E,0x03,0x80,0x00,0x30,0x00,0x00,0x00,0x00,0x00,0x00,0x00,
;//0x00,0x00,0xE0,0x00,0x40,0x00,0x00,0x20,0x10,0x00,0x00,0x00,0x00,0x00,0x00,0x00,
;//0x07,0x00,0x00,0x00,0xC0,0x00,0x00,0x00,0x00,0x00,0x00,0x00,0x1C,0x00,0x00,0x00,
;//0x00,0x00,0x03,0x00,0x00,0x38,0x00,0x10,0x00,0x00,0x03,0x80,0x00,0x00,0x0E,0x00,
;//0x00,0x00,0xFF,0xC3,0x8F,0x70,0x1F,0x71,0xF0,0x78,0x07,0xB8,0xEE,0x7B,0xC0,0xF7,
;//0x3D,0xE1,0xE0,0x78,0x03,0xA1,0xE3,0xDC,0x1F,0xC0,0x37,0x0F,0x80,0x03,0xFF,0x0E,
;//0x3D,0xC0,0x7B,0x8F,0x80,0xF7,0x1D,0xC1,0xE0,0x03,0xFF,0x87,0x8F,0xC1,0xEE,0x3B,
;//0x9E,0xF0,0x07,0x83,0xE7,0xC3,0x80,0x7B,0x0E,0xE7,0xBD,0xC0,0x71,0xC6,0xC7,0xB8,
;//0x0E,0x26,0x38,0xCC,0x03,0xDC,0xF7,0x39,0xC0,0x7B,0x9C,0xE3,0x30,0xCC,0x06,0x63,
;//0x31,0xEE,0x33,0x00,0x6F,0x31,0xC3,0x81,0xC7,0x1B,0x1E,0xE0,0x3D,0xB1,0xC0,0x7B,
;//0x9E,0xE3,0x30,0x06,0x63,0x8C,0xC7,0x00,0xF7,0x3D,0xCE,0x70,0x0C,0xCC,0x73,0x86,
;//0xC0,0x3D,0x8F,0x73,0x9E,0xE0,0x71,0xCE,0xE7,0x38,0x0E,0x27,0x39,0xCE,0x03,0x9C,
;//0xE7,0x39,0xC0,0x73,0x9C,0xE7,0x39,0xCC,0x07,0x27,0x39,0xCE,0x73,0x80,0xE7,0x39,
;//0xC3,0x81,0xC7,0x3B,0x9C,0xE0,0x39,0xB9,0xC0,0x73,0x9C,0xE7,0x38,0x0E,0x73,0x9C,
;//0xE7,0x00,0xE7,0x39,0xCE,0x70,0x1C,0xCE,0x73,0x8E,0xE0,0x39,0xCE,0x73,0x9C,0xE0,
;//0x71,0xCF,0xE7,0x38,0x07,0x47,0x39,0xCE,0x03,0x9C,0xE7,0x39,0xC0,0x73,0x9C,0xE7,
;//0x39,0xC0,0x07,0x87,0x39,0xCE,0x73,0x80,0xE7,0x39,0xCF,0xE1,0xC7,0x3F,0x9C,0xE0,
;//0x38,0x39,0xC0,0x73,0x9C,0xE7,0x38,0x0E,0x73,0x9C,0xE7,0x00,0xE7,0x39,0xCE,0x70,
;//0x1C,0x0E,0x73,0x8F,0xE0,0x39,0xCE,0x73,0x9C,0xE0,0x71,0xCE,0x07,0x38,0x07,0x40,
;//0xF9,0xCE,0x03,0x9C,0xE7,0x39,0xC0,0x73,0x9C,0xE7,0x39,0xC0,0x03,0xC7,0x39,0xCE,
;//0x73,0x00,0xE7,0x07,0xCF,0xE1,0xC7,0x38,0x1C,0xE0,0x38,0x07,0xC0,0x73,0x9C,0xE7,
;//0x38,0x0E,0x63,0x9C,0xE7,0x00,0xE7,0x39,0xCE,0x70,0x1C,0x01,0xF3,0x8E,0x00,0x39,
;//0xCE,0x73,0x9C,0xE0,0x71,0xCE,0x07,0x38,0x07,0x43,0xB9,0xCE,0x03,0x9C,0xE7,0x39,
;//0xC0,0x73,0x9C,0xE7,0x39,0xC0,0x01,0xE7,0x39,0xCE,0x1E,0x00,0xE7,0x1D,0xC3,0x81,
;//0xC7,0x38,0x1C,0xE0,0x38,0x1D,0xC0,0x73,0x9C,0xE7,0x38,0x03,0xC3,0x9C,0xE7,0x00,
;//0xE7,0x39,0xCE,0x70,0x1C,0x07,0x73,0x8E,0x00,0x39,0xCE,0x73,0x9C,0xE0,0x71,0xCE,
;//0x07,0x38,0x03,0x87,0x39,0xCE,0x03,0x9C,0xE7,0x39,0xC0,0x73,0x9C,0xE7,0x39,0xC0,
;//0x04,0xE7,0x39,0xCE,0x20,0x00,0xE7,0x39,0xC3,0x81,0xC7,0x38,0x1C,0xE0,0x38,0x39,
;//0xC0,0x73,0x9C,0xE7,0x38,0x04,0x03,0x9C,0xE7,0x00,0xE7,0x39,0xCE,0x70,0x1C,0x0E,
;//0x73,0x8E,0x00,0x39,0xCE,0x73,0x9C,0xE0,0x75,0xC7,0x27,0x38,0x03,0x87,0x78,0xCC,
;//0x03,0x9C,0xE7,0x3B,0xC0,0x73,0x9D,0xE3,0x30,0xE4,0x06,0x63,0x31,0xCE,0x7F,0x80,
;//0x6F,0xBB,0xC0,0x01,0xD7,0x1C,0x9C,0xE0,0x38,0x3B,0xC0,0x73,0x9C,0xE3,0x30,0x0F,
;//0xF3,0x8C,0xC7,0x40,0xE7,0x39,0xCE,0xF0,0x0E,0x4E,0xF3,0x87,0x20,0x3D,0x8E,0x73,
;//0x9C,0xE0,0x3B,0xE3,0xCF,0xBC,0x01,0x03,0xBC,0x78,0x07,0xDF,0xF7,0x9D,0xE0,0xFB,
;//0xCE,0xF1,0xE0,0x78,0x05,0xC1,0xE3,0xEF,0x7F,0xC0,0x36,0x1D,0xE0,0x00,0xEF,0x8F,
;//0x3E,0xF0,0x7C,0x1D,0xE0,0xFB,0xFE,0xF1,0xE0,0x0F,0xFF,0xC7,0x83,0x81,0xF7,0xFD,
;//0xE7,0x78,0x07,0x87,0x7F,0xC3,0xC0,0x3B,0x1F,0x7F,0xFE,0xF0,0x00,0x00,0x00,0x00,
;//0x00,0x00,0x00,0x00,0x00,0x00,0x00,0x00,0x00,0x00,0x00,0x00,0x00,0x00,0x00,0x00,
;//0x00,0x00,0x3F,0xC0,0x00,0x00,0x00,0x00,0x00,0x00,0x00,0x00,0x00,0x00,0x00,0x00,
;//0x00,0x00,0x00,0x07,0xF8,0x00,0x00,0x00,0x00,0x00,0x00,0x00,0x00,0x00,0x00,0x00,
;//0x00,0x38,0x00,0x00,0x00,0x00,0x00,0x00,0x00,0x00,0x00,0x00,0x00,0x00,0x00,0x00,
;//0x00,0x00,0x00,0x00,0x00,0x00,0x00,0x00,0x00,0x00,0x00,0x00,0x40,0x40,0x00,0x00,
;//0x00,0x00,0x00,0x00,0x00,0x00,0x00,0x00,0x00,0x00,0x00,0x00,0x00,0x08,0x08,0x03,
;//0x00,0x00,0x00,0x00,0x00,0x00,0x00,0x00,0x00,0x00,0x00,0x38,0x00,0x00,0x00,0x00,
;//};
;
;//flash unsigned  int msg9[]=
;//{
;///*------------------------------------------------------------------------------
;//; If font display distortion, please check Fonts format of setup.
;//; Source file / text :mot bau troi suc khoe , mot bien ca tinh thuong , mot dai duong tinh cam
;//; Width x Height (pixels) :590X16
;//;  Font Format/Size : Monochrome LCD Fonts ,Horizontal scan ,Big endian order/1184Byte
;//;  Font make date  : 10/10/2013 1:25:44 Chi?u/T?i
;//------------------------------------------------------------------------------*/
;//0x4E,0x10,0x4A,//Width pixels,Height pixels,Width bytes
;//0x00,0x00,0x00,0x00,0x00,0x18,0x00,0x00,0x00,0x00,0x00,0x00,0x00,0x00,0x00,0x06,
;//0x00,0x00,0x00,0x00,0x00,0x00,0x00,0x00,0x00,0x00,0x00,0x00,0x00,0x00,0x00,0x18,
;//0x00,0x00,0x00,0x00,0x01,0x80,0x00,0x00,0x00,0x00,0x00,0x00,0x00,0x00,0x00,0x00,
;//0x00,0x00,0x00,0x00,0x00,0x00,0x00,0xE0,0x00,0x00,0x00,0x00,0x00,0x00,0x00,0x00,
;//0x00,0x18,0x00,0x00,0x00,0x00,0x00,0x00,0x00,0x00,0x00,0x00,0x00,0x00,0x00,0x0C,
;//0x00,0x00,0x00,0x00,0x06,0x30,0x00,0x00,0x00,0xCC,0x00,0x00,0x00,0x00,0x30,0x00,
;//0x00,0x00,0x00,0x00,0x00,0x00,0x00,0x00,0x00,0x04,0x00,0x00,0x00,0xC0,0x00,0xC0,
;//0x00,0x00,0x00,0x00,0x00,0x03,0x03,0x00,0x00,0x00,0x00,0x00,0x00,0x00,0x00,0x00,
;//0x00,0xE0,0x00,0x00,0x00,0x00,0x60,0x30,0x00,0x00,0x00,0x0C,0x00,0x00,0x00,0x00,
;//0x01,0x80,0x00,0x00,0x00,0x00,0x18,0x08,0x0F,0x04,0x30,0x00,0x00,0x20,0x03,0x08,
;//0xE0,0x00,0x00,0x28,0x00,0x78,0x0F,0x00,0x08,0x00,0x00,0x00,0x00,0x00,0x18,0x08,
;//0x0F,0x01,0xC1,0x88,0x00,0x00,0x00,0x20,0x02,0x38,0x00,0xF0,0x00,0x27,0x80,0x00,
;//0x80,0x80,0x00,0x00,0x00,0x00,0x00,0x00,0x60,0x20,0x01,0xE0,0x01,0xC0,0x07,0x80,
;//0x10,0x08,0x00,0x00,0x00,0x23,0x80,0x0F,0x00,0x00,0x00,0x40,0x00,0x00,0x00,0x00,
;//0x24,0x08,0x07,0x00,0x48,0x00,0x00,0x20,0x01,0x08,0xE0,0x00,0x00,0x20,0x00,0x38,
;//0x07,0x00,0x10,0x00,0x00,0x00,0x00,0x00,0x24,0x08,0x07,0x01,0xC2,0x40,0x00,0x00,
;//0x00,0x40,0x02,0x38,0x00,0x70,0x00,0x23,0x80,0x00,0x80,0x80,0x00,0x00,0x00,0x00,
;//0x00,0x00,0x90,0x20,0x00,0xE0,0x01,0xC0,0x03,0x80,0x10,0x08,0x00,0x00,0x00,0x23,
;//0x80,0x07,0x00,0x00,0x00,0x80,0x00,0x00,0x00,0x00,0x00,0x18,0x07,0x00,0x00,0x00,
;//0x00,0x60,0x00,0x10,0x00,0x00,0x00,0x40,0x00,0x38,0x07,0x00,0x00,0x00,0x00,0x00,
;//0x00,0x00,0x00,0x18,0x07,0x00,0x00,0x00,0x00,0x00,0x00,0x00,0x06,0x00,0x00,0x70,
;//0x00,0x63,0x80,0x01,0x01,0x00,0x00,0x00,0x00,0x00,0x00,0x00,0x00,0x60,0x00,0xE0,
;//0x00,0x00,0x03,0x80,0x20,0x10,0x00,0x00,0x00,0x60,0x00,0x07,0x00,0x00,0x00,0x00,
;//0x00,0x00,0xF7,0x38,0x3C,0x7E,0x07,0x60,0x7C,0xF7,0x81,0xFF,0xB8,0xF1,0xE0,0x1D,
;//0x7B,0xC3,0xC0,0x39,0xE7,0x70,0x78,0x1C,0x00,0x00,0xF7,0x38,0x3C,0x7E,0x07,0x63,
;//0xC3,0x8F,0x70,0x03,0xC1,0xF0,0x1F,0xFB,0xDC,0x77,0x01,0xFB,0xB9,0xEF,0x0F,0x1E,
;//0xE0,0xFE,0x00,0x03,0xDC,0xE0,0xF1,0xF8,0x06,0xE1,0xF3,0xC0,0x1B,0xBD,0xE1,0xE3,
;//0xDC,0x1F,0xC1,0xFF,0xBD,0xC7,0x70,0x03,0xC1,0xF3,0xDC,0xE0,0x7B,0xDC,0x66,0x38,
;//0x07,0xB1,0x8E,0x73,0x80,0xE3,0xD9,0x98,0xE0,0x33,0x39,0xC6,0x60,0x38,0xC7,0xB8,
;//0xCC,0x36,0x00,0x00,0x7B,0xDC,0x66,0x38,0x07,0xB1,0xC6,0xC7,0xB8,0x06,0x66,0x38,
;//0x0E,0x39,0xEE,0x7B,0x80,0xE3,0xDC,0xE7,0x19,0x8F,0x71,0x98,0x00,0x01,0xEF,0x71,
;//0x98,0xE0,0x0D,0xE6,0x39,0xC0,0x37,0x9C,0xE3,0x31,0xEE,0x33,0x00,0xE3,0x9E,0xE7,
;//0xB8,0x06,0x66,0x39,0xEF,0x70,0x73,0x9C,0xE7,0x38,0x07,0x39,0xCE,0x73,0x80,0xE3,
;//0x9B,0x9C,0xE0,0x39,0x39,0xCE,0x60,0x38,0x87,0x39,0xCE,0x77,0x00,0x00,0x73,0x9C,
;//0xE7,0x38,0x07,0x39,0xCE,0xE7,0x38,0x0E,0x67,0x38,0x0E,0x39,0xCE,0x73,0x80,0xE3,
;//0x9C,0xE7,0x39,0xCE,0x73,0x9C,0x00,0x01,0xCE,0x73,0x9C,0xE0,0x1C,0xE7,0x39,0xC0,
;//0x73,0x9C,0xE7,0x39,0xCE,0x73,0x80,0xE3,0x9C,0xE7,0x38,0x0E,0x67,0x39,0xCE,0x70,
;//0x73,0x9C,0xE7,0x38,0x07,0x39,0xCE,0x73,0x80,0xE3,0x83,0x9C,0xE0,0x3C,0x39,0xCE,
;//0x00,0x3B,0x07,0x39,0xCE,0x7F,0x00,0x00,0x73,0x9C,0xE7,0x38,0x07,0x39,0xCF,0xE7,
;//0x38,0x0E,0x07,0x38,0x0E,0x39,0xCE,0x73,0x80,0xE3,0x9C,0xE7,0x39,0xCE,0x73,0x9C,
;//0x00,0x01,0xCE,0x73,0x9C,0xE0,0x1C,0xE7,0x39,0xC0,0x73,0x9C,0xE7,0x39,0xCE,0x73,
;//0x80,0xE3,0x9C,0xE7,0x38,0x0E,0x07,0x39,0xCE,0x70,0x73,0x9C,0xE7,0x38,0x07,0x38,
;//0x3E,0x73,0x80,0xE3,0x83,0x9C,0xE0,0x1E,0x39,0xCE,0x00,0x3F,0x07,0x39,0xCE,0x70,
;//0x00,0x00,0x73,0x9C,0xE7,0x38,0x07,0x39,0xCE,0x07,0x38,0x0E,0x00,0xF8,0x0E,0x39,
;//0xCE,0x73,0x80,0xE3,0x9C,0xE7,0x39,0xCE,0x73,0x98,0x00,0x01,0xCE,0x73,0x9C,0xE0,
;//0x1C,0xE0,0xF9,0xC0,0x73,0x9C,0xE7,0x39,0xCE,0x73,0x00,0xE3,0x9C,0xE7,0x38,0x0E,
;//0x00,0xF9,0xCE,0x70,0x73,0x9C,0xE7,0x38,0x07,0x38,0xEE,0x73,0x80,0xE3,0x83,0x9C,
;//0xE0,0x0F,0x39,0xCE,0x00,0x3B,0x87,0x39,0xCE,0x70,0x00,0x00,0x73,0x9C,0xE7,0x38,
;//0x07,0x39,0xCE,0x07,0x38,0x0E,0x03,0xB8,0x0E,0x39,0xCE,0x73,0x80,0xE3,0x9C,0xE7,
;//0x39,0xCE,0x70,0xF0,0x00,0x01,0xCE,0x73,0x9C,0xE0,0x1C,0xE3,0xB9,0xC0,0x73,0x9C,
;//0xE7,0x39,0xCE,0x1E,0x00,0xE3,0x9C,0xE7,0x38,0x0E,0x03,0xB9,0xCE,0x70,0x73,0x9C,
;//0xE7,0x38,0x07,0x39,0xCE,0x73,0x80,0xE3,0x83,0x9C,0xE0,0x27,0x39,0xCE,0x00,0x39,
;//0xC7,0x39,0xCE,0x70,0x01,0x80,0x73,0x9C,0xE7,0x38,0x07,0x39,0xCE,0x07,0x38,0x0E,
;//0x07,0x38,0x0E,0x39,0xCE,0x73,0x80,0xE3,0x9C,0xE7,0x39,0xCE,0x71,0x00,0x06,0x01,
;//0xCE,0x73,0x9C,0xE0,0x1C,0xE7,0x39,0xC0,0x73,0x9C,0xE7,0x39,0xCE,0x20,0x00,0xE3,
;//0x9C,0xE7,0x38,0x0E,0x07,0x39,0xCE,0x70,0x73,0x9C,0x66,0x3A,0x07,0x31,0xDE,0x77,
;//0x80,0xEB,0x81,0x98,0xE0,0x33,0x3B,0xC7,0x20,0x38,0xE7,0x38,0xCC,0x39,0x01,0xC0,
;//0x73,0x9C,0x66,0x3A,0x07,0x31,0xC7,0x27,0x38,0x07,0x27,0x78,0x0E,0xB9,0xCE,0x73,
;//0x80,0xEB,0x9C,0xEF,0x19,0x8E,0x73,0xFC,0x07,0x01,0xCE,0x71,0x98,0xE8,0x0D,0xF7,
;//0x79,0xC0,0x37,0xDD,0xE3,0x31,0xCE,0x7F,0x80,0xEB,0x9C,0xE7,0x38,0x07,0x27,0x79,
;//0xCE,0x70,0xFB,0xDE,0x3C,0x1C,0x04,0xE0,0xEF,0x3B,0xC0,0x77,0xC0,0xF1,0xF0,0x2E,
;//0x1D,0xE3,0xC0,0x7D,0xFF,0xBC,0x78,0x1E,0x01,0xC0,0xFB,0xDE,0x3C,0x1C,0x04,0xE3,
;//0xE3,0xCF,0xBC,0x03,0xC3,0xBC,0x07,0x7F,0xEF,0xFB,0xC0,0x77,0xDE,0x77,0x8F,0x1F,
;//0x7B,0xFE,0x07,0x03,0xEF,0x78,0xF0,0x70,0x06,0xC3,0xBF,0xE0,0x1B,0x0E,0xF1,0xE3,
;//0xEF,0x7F,0xC0,0x77,0xFE,0xFF,0xBC,0x03,0xC3,0xBF,0xEF,0x78,0x00,0x00,0x00,0x00,
;//0x00,0x00,0x00,0x00,0x00,0x00,0x00,0x00,0x00,0x00,0x00,0x00,0x00,0x00,0x00,0x00,
;//0x00,0x00,0x00,0x40,0x00,0x00,0x00,0x00,0x00,0x00,0x00,0x00,0x00,0x00,0x00,0x00,
;//0x00,0x00,0x00,0x00,0x00,0x00,0x00,0x00,0x00,0x00,0x01,0xFE,0x01,0x00,0x00,0x00,
;//0x00,0x00,0x00,0x00,0x00,0x00,0x00,0x00,0x00,0x00,0x00,0x3F,0xC0,0x00,0x00,0x00,
;//0x00,0x00,0x00,0x00,0x00,0x00,0x00,0x00,0x18,0x00,0x00,0x00,0x00,0x00,0x00,0x00,
;//0x00,0x00,0x00,0x00,0x00,0x00,0x00,0x00,0x00,0x00,0x00,0x00,0x00,0x80,0x00,0x00,
;//0x18,0x00,0x00,0x00,0x00,0x00,0x00,0x00,0x00,0x00,0x00,0x00,0x00,0x00,0x00,0x00,
;//0x00,0x00,0x00,0x00,0x02,0x02,0x02,0x00,0x00,0x00,0x60,0x00,0x00,0x00,0x60,0x00,
;//0x00,0x00,0x00,0x00,0x00,0x40,0x40,0x00,0x00,0x00,0x00,0x00,0x00,0x00,0x00,0x00,
;//};
;
;
;////HINH: CON RONG
;//flash unsigned  int msg1[]=
;//{
;////------------------------------------------------------------------------------
;////; If font display distortion, please check Fonts format of setup.
;////; Source file / text :C:\Users\Win 8 32bit VS7\Desktop\Nokia Logos and Tones\animals\drag on...bmpLCD Font Maker
;////; Width x Height (pixels) :72X14
;////;  Font Format/Size : Monochrome LCD Fonts ,Horizontal scan ,Big endian order/126Byte
;////;  Font make date  : 11/10/2013 11:28:11 Sng
;////------------------------------------------------------------------------------
;//0x48,0x0E,0x09,//Width pixels,Height pixels,Width bytes
;//0x00,0x00,0x60,0x00,0x00,0x00,0x00,0x02,0x00,0x00,0x0F,0xC8,0x00,0x02,0x50,0x00,
;//0x14,0x80,0x30,0x33,0xF4,0x00,0x24,0xA7,0x00,0x5F,0x10,0x7F,0xFF,0xF0,0x00,0x4F,
;//0xFC,0x01,0x7F,0xE0,0x3F,0xEF,0xFC,0x01,0x7F,0xFF,0xC2,0xFF,0xF0,0x10,0x1F,0xFA,
;//0x0A,0xFF,0x1F,0x83,0xF0,0xFC,0x23,0xF8,0xF8,0x13,0xF8,0x0F,0x0B,0xC0,0x38,0x1F,
;//0x03,0xF4,0x5F,0xC0,0x0F,0x0F,0x80,0x1E,0x00,0x0F,0xF0,0xBF,0x0A,0x1E,0x2F,0x00,
;//0x4C,0x7E,0x1F,0xD2,0xFE,0x0F,0x3E,0x3F,0xC0,0x8E,0x8F,0x1F,0xC5,0xFF,0x37,0xFC,
;//0x7F,0xE0,0x9C,0x4F,0xBF,0xE7,0xE3,0x03,0x3F,0xF8,0xC0,0x78,0x11,0xF7,0xFF,0x9F,
;//0xC3,0x1F,0xE7,0xF8,0x08,0x00,0xC1,0xFE,0x13,0xA4,0x07,0x8C,0xEC,0x00
;//};
;
;
;//CON VOI
;//flash unsigned  int msg1[]=
;//{
;///*------------------------------------------------------------------------------
;//; If font display distortion, please check Fonts format of setup.
;//; Source file / text :C:\Users\Win 8 32bit VS7\Desktop\Nokia Logos and Tones\animals\more phants.bmpLCD Font Maker
;//; Width x Height (pixels) :72X14
;//;  Font Format/Size : Monochrome LCD Fonts ,Horizontal scan ,Big endian order/126Byte
;//;  Font make date  : 11/10/2013 11:32:38 Sng
;//------------------------------------------------------------------------------*/
;//0x48,0x0E,0x09,//Width pixels,Height pixels,Width bytes
;//0xFF,0xFF,0xFF,0xFF,0xFF,0xFF,0xFF,0xFF,0xFF,0xFE,0x00,0x7F,0xFE,0x00,0x7F,0xFF,
;//0x00,0x3F,0xFC,0xF1,0x1F,0xFC,0xF1,0x1F,0xFE,0x78,0x8F,0xFD,0x57,0xEF,0xFD,0x57,
;//0xEF,0xFE,0xAB,0xF7,0xF9,0xDB,0xF7,0xF9,0xDB,0xF7,0xFC,0xED,0xFB,0xFA,0x5B,0xD7,
;//0xFA,0x5B,0xD7,0xFD,0x2D,0xEB,0xF8,0x9B,0x93,0xF8,0x9B,0x93,0xFC,0x4D,0xC9,0xB9,
;//0x4A,0x13,0xB9,0x4A,0x13,0xDC,0xA5,0x09,0x36,0x80,0x13,0x36,0x80,0x13,0x9B,0x40,
;//0x09,0x91,0x90,0x13,0x91,0x90,0x13,0x48,0xC8,0x09,0xC1,0x97,0x54,0xC1,0x97,0x54,
;//0xE0,0xCB,0xAA,0xF7,0x97,0x57,0xF7,0x97,0x57,0xFB,0xCB,0xAB,0xFF,0x87,0x07,0xFF,
;//0x87,0x07,0xFF,0xC3,0x83,0xFF,0xFF,0xFF,0xFF,0xFF,0xFF,0xFF,0xFF,0xFF,
;//};
;
;
;//not nhac, con ran
;//flash unsigned  int msg1[]=
;//{
;///*------------------------------------------------------------------------------
;//; If font display distortion, please check Fonts format of setup.
;//; Source file / text :C:\Users\Win 8 32bit VS7\Desktop\Nokia Logos and Tones\music\2355.bmpLCD Font Maker
;//; Width x Height (pixels) :72X14
;//;  Font Format/Size : Monochrome LCD Fonts ,Horizontal scan ,Big endian order/126Byte
;//;  Font make date  : 11/10/2013 11:36:32 Sng
;//------------------------------------------------------------------------------*/
;//0x48,0x0E,0x09,//Width pixels,Height pixels,Width bytes
;//0x00,0x00,0x0F,0x80,0x00,0x00,0x00,0x00,0x00,0x60,0x00,0x1B,0x40,0x00,0x00,0x00,
;//0x00,0x0C,0x3F,0x07,0xF7,0x00,0x00,0x00,0x18,0x00,0x18,0x18,0x8F,0x89,0x80,0x00,
;//0x00,0x3C,0x03,0xF0,0x08,0x01,0xF0,0xC1,0xC0,0x00,0x62,0x1E,0x10,0x04,0x00,0xC0,
;//0x66,0x20,0x1C,0x9A,0x28,0x70,0x1A,0xE0,0x60,0x30,0x10,0x3F,0x08,0x0F,0xA0,0x21,
;//0x10,0x30,0xF3,0xC8,0x3A,0x00,0x18,0x20,0x44,0x8F,0x91,0xF4,0x24,0x1C,0x20,0x10,
;//0x20,0x8B,0xD0,0x79,0x90,0x12,0x00,0x40,0x10,0x20,0x12,0xCE,0xF8,0xE0,0x09,0x8C,
;//0x80,0xD0,0xF0,0x23,0xC0,0x98,0x00,0x04,0x71,0x01,0xF1,0xF0,0xC1,0x80,0x70,0x00,
;//0x03,0x06,0x01,0x90,0x90,0x00,0x00,0x00,0x00,0x00,0xF8,0x00,0xF0,0x60,
;//};
;
;
;////2 con ngua
;//flash unsigned  int msg0[]=
;//{
;///*------------------------------------------------------------------------------
;//; If font display distortion, please check Fonts format of setup.
;//; Source file / text :C:\Users\Win 8 32bit VS7\Desktop\Nokia Logos and Tones\animals\black beauty.bmpLCD Font Maker
;//; Width x Height (pixels) :72X14
;//;  Font Format/Size : Monochrome LCD Fonts ,Horizontal scan ,Big endian order/126Byte
;//;  Font make date  : 11/10/2013 9:52:16 Sng
;//------------------------------------------------------------------------------*/
;//0x48,0x0E,0x09,//Width pixels,Height pixels,Width bytes
;//0x00,0x00,0x00,0x01,0x00,0x00,0x00,0x10,0x00,0x00,0x00,0x00,0x1F,0x00,0x00,0x01,
;//0xF0,0x00,0x00,0x00,0x00,0x3F,0x00,0x00,0x03,0xF0,0x00,0x00,0x0E,0x00,0xFF,0x01,
;//0xE0,0x0F,0xF0,0x00,0x00,0x1F,0xFF,0xFB,0x03,0xFF,0xFF,0xB0,0x00,0x00,0x39,0xFF,
;//0xF3,0x03,0x9F,0xFF,0xB0,0x00,0x00,0x39,0xFF,0xF0,0x07,0x1F,0xFF,0x00,0x00,0x00,
;//0x39,0xFF,0xFC,0x06,0x3F,0xFF,0x00,0x00,0x00,0x73,0xFF,0xFC,0x04,0xFF,0xFF,0x00,
;//0x00,0x00,0x47,0x70,0xC4,0x04,0xE7,0x0F,0x80,0x00,0x00,0x06,0x78,0x84,0x00,0x8E,
;//0x6D,0x80,0x00,0x00,0x04,0x0C,0x8C,0x00,0x87,0x38,0xC0,0x00,0x00,0x0C,0x04,0xC0,
;//0x01,0x81,0x80,0x60,0x00,0x00,0x06,0x00,0x60,0x00,0x00,0xC0,0x30,0x00,
;//};
;
;
;/// con rong
;//flash unsigned  int msg1[]=
;//{
;///*------------------------------------------------------------------------------
;//; If font display distortion, please check Fonts format of setup.
;//; Source file / text :C:\Users\Win 8 32bit VS7\Desktop\Nokia Logos and Tones\animals\drag on...bmpLCD Font Maker
;//; Width x Height (pixels) :72X14
;//;  Font Format/Size : Monochrome LCD Fonts ,Horizontal scan ,Big endian order/126Byte
;//;  Font make date  : 11/10/2013 9:53:07 Sng
;//------------------------------------------------------------------------------*/
;//0x48,0x0E,0x09,//Width pixels,Height pixels,Width bytes
;//0x00,0x00,0x60,0x00,0x00,0x00,0x00,0x02,0x00,0x00,0x0F,0xC8,0x00,0x02,0x50,0x00,
;//0x14,0x80,0x30,0x33,0xF4,0x00,0x24,0xA7,0x00,0x5F,0x10,0x7F,0xFF,0xF0,0x00,0x4F,
;//0xFC,0x01,0x7F,0xE0,0x3F,0xEF,0xFC,0x01,0x7F,0xFF,0xC2,0xFF,0xF0,0x10,0x1F,0xFA,
;//0x0A,0xFF,0x1F,0x83,0xF0,0xFC,0x23,0xF8,0xF8,0x13,0xF8,0x0F,0x0B,0xC0,0x38,0x1F,
;//0x03,0xF4,0x5F,0xC0,0x0F,0x0F,0x80,0x1E,0x00,0x0F,0xF0,0xBF,0x0A,0x1E,0x2F,0x00,
;//0x4C,0x7E,0x1F,0xD2,0xFE,0x0F,0x3E,0x3F,0xC0,0x8E,0x8F,0x1F,0xC5,0xFF,0x37,0xFC,
;//0x7F,0xE0,0x9C,0x4F,0xBF,0xE7,0xE3,0x03,0x3F,0xF8,0xC0,0x78,0x11,0xF7,0xFF,0x9F,
;//0xC3,0x1F,0xE7,0xF8,0x08,0x00,0xC1,0xFE,0x13,0xA4,0x07,0x8C,0xEC,0x00,
;//};
;
;
;// con Heo
;//flash unsigned  int msg1[]=
;//{
;///*------------------------------------------------------------------------------
;//; If font display distortion, please check Fonts format of setup.
;//; Source file / text :C:\Users\Win 8 32bit VS7\Desktop\Nokia Logos and Tones\animals\2284.bmpLCD Font Maker
;//; Width x Height (pixels) :72X14
;//;  Font Format/Size : Monochrome LCD Fonts ,Horizontal scan ,Big endian order/126Byte
;//;  Font make date  : 11/10/2013 9:54:05 Sng
;//------------------------------------------------------------------------------*/
;//0x48,0x0E,0x09,//Width pixels,Height pixels,Width bytes
;//0x00,0x00,0x00,0x00,0x01,0xF6,0x00,0x00,0x00,0x00,0x00,0x00,0x00,0x06,0x09,0x08,
;//0x80,0x00,0x00,0x00,0x00,0x30,0x0A,0x09,0x11,0x00,0x00,0x00,0x00,0x06,0x20,0x09,
;//0x09,0x22,0x00,0x00,0x00,0x00,0x04,0x30,0x04,0x92,0x24,0x00,0x00,0x00,0x00,0xC6,
;//0x10,0x02,0x94,0xF8,0x00,0x00,0x00,0x00,0x82,0x32,0x1F,0xFF,0x0C,0x00,0x00,0x00,
;//0x00,0xC6,0x80,0x36,0xDB,0x14,0x00,0x00,0x00,0x00,0x50,0x00,0x36,0xDB,0x03,0x00,
;//0x00,0x00,0x01,0xC0,0x03,0xF6,0xDB,0x03,0x00,0x00,0x00,0x00,0x00,0x00,0x16,0xDB,
;//0x04,0x00,0x00,0x00,0x00,0x00,0x00,0x0F,0xFC,0xF8,0x00,0x00,0x00,0x00,0x00,0x00,
;//0x00,0x00,0x00,0x00,0x00,0x00,0x00,0x00,0x00,0x00,0x00,0x00,0x00,0x00,
;//};
;
;// con chuot
;//flash unsigned  int msg1[]=
;//{
;///*------------------------------------------------------------------------------
;//; If font display distortion, please check Fonts format of setup.
;//; Source file / text :C:\Users\Win 8 32bit VS7\Desktop\Nokia Logos and Tones\animals\3035.bmpLCD Font Maker
;//; Width x Height (pixels) :72X14
;//;  Font Format/Size : Monochrome LCD Fonts ,Horizontal scan ,Big endian order/126Byte
;//;  Font make date  : 11/10/2013 9:55:07 Sng
;//------------------------------------------------------------------------------*/
;//0x48,0x0E,0x09,//Width pixels,Height pixels,Width bytes
;//0xFF,0xFF,0xE0,0xFF,0xFF,0xFF,0xFF,0xFF,0xFB,0xFF,0xFF,0xDF,0x3F,0xFF,0xFF,0xFF,
;//0xFF,0x17,0xFF,0xFF,0xB5,0x9F,0xFF,0xFF,0xFF,0xFC,0xE7,0xFF,0xFF,0x6A,0xDF,0xE0,
;//0x07,0xFF,0xF9,0xFF,0xFF,0xFF,0x55,0xDF,0x1F,0xF8,0xFF,0xFB,0xFF,0xFF,0xFF,0xAA,
;//0xBC,0xFF,0xFF,0x1F,0xFB,0xFF,0xFF,0xFC,0x35,0xA3,0xFF,0xFF,0xE7,0xF3,0xFF,0xFF,
;//0xFA,0xFB,0x1F,0xFF,0xFF,0xF3,0xE7,0xFF,0xFF,0xE4,0x7E,0x7F,0xFF,0xC7,0xF9,0xCF,
;//0xFF,0xFC,0x9C,0x7F,0xE7,0xFF,0x03,0xFC,0x1F,0xFF,0xF8,0x7E,0xFF,0xCF,0xFE,0x7F,
;//0xFE,0x3F,0xFF,0xF8,0x7F,0xF9,0xBF,0x9C,0xFF,0xFC,0xFF,0xFF,0xF8,0x3F,0xF0,0x7F,
;//0x00,0xFF,0xF9,0xFF,0xFF,0xFC,0xC0,0x00,0x00,0x00,0x00,0x03,0xFF,0xFF,
;//};
;
;///2 con rong quay dduoi vao nhau
;//flash unsigned  int msg1[]=
;//{
;//0x48,0x0E,0x09,//Width pixels,Height pixels,Width bytes
;//0xFF,0xFF,0xCF,0xFE,0xF7,0xFF,0xF9,0xFF,0xFF,0xFF,0xE0,0x1B,0xFF,0x70,0x7F,0xEC,
;//0x03,0xFF,0xCF,0xCC,0x05,0xFC,0x17,0xFF,0xD0,0x19,0xF3,0x80,0x00,0x07,0xFE,0xB0,
;//0x7F,0xF0,0x00,0x01,0xC0,0x10,0x01,0xFF,0x7F,0x7F,0xC0,0x04,0x03,0xEF,0xE0,0x02,
;//0xFC,0x10,0xFF,0xA0,0x03,0xF7,0xDC,0x07,0x03,0xF7,0xF7,0xF7,0xE0,0x70,0x3B,0xE0,
;//0xFC,0x05,0xD6,0x10,0xF5,0xD0,0x1F,0x07,0xFF,0xF0,0x07,0xA5,0xD7,0xF2,0xF0,0x07,
;//0xFF,0x81,0xE0,0x16,0x84,0x10,0xF0,0xB4,0x03,0xC1,0x70,0xE0,0x1D,0x05,0xD7,0xB0,
;//0x5C,0x03,0x8E,0xB0,0x40,0x0C,0x0C,0x10,0xD8,0x18,0x01,0x0D,0xEE,0x08,0x00,0x3D,
;//0xD7,0xDE,0x00,0x08,0x37,0xFF,0x3E,0x00,0xFB,0xB8,0x3F,0x80,0x3E,0x7F,
;//};
;// 2 con rong quay dau vao nhau
;//flash unsigned  int msg1[]=
;//{
;//0x48,0x0E,0x09,//Width pixels,Height pixels,Width bytes
;//0xFF,0xFF,0xFF,0xDF,0xFF,0xF7,0xFF,0xFF,0xEF,0xF3,0xF9,0xFF,0xA3,0xFF,0xC7,0xFE,
;//0xFF,0xF7,0xA1,0xE7,0x5F,0xC5,0xDB,0xA1,0xFF,0x2F,0xCF,0xC0,0xF0,0x7F,0xC0,0x10,
;//0x03,0xF4,0x1F,0x83,0x81,0xC0,0x1F,0x80,0x18,0x41,0xE0,0x06,0x03,0x18,0xE2,0x03,
;//0x03,0xFB,0x83,0xF0,0xC6,0x31,0xBC,0xE7,0x87,0x88,0x5E,0x33,0xA1,0xCC,0x79,0x3E,
;//0x67,0xE3,0xC7,0x38,0xE1,0x07,0xCC,0x7C,0x5E,0x73,0xF0,0xC3,0xFF,0xC3,0x8C,0xC8,
;//0xFD,0x7C,0x32,0x70,0x63,0x11,0x83,0x1C,0x88,0x74,0x3C,0x10,0x10,0xE3,0x2C,0x84,
;//0x0A,0x18,0x35,0x9D,0x82,0xF4,0x40,0x34,0x84,0x6E,0x81,0x79,0xF8,0x42,0xE2,0x04,
;//0xFA,0x00,0x86,0xC2,0x1D,0xF5,0x67,0x47,0x0E,0xFF,0x61,0xAF,0xE5,0x1F,
;//};
;
;/********************************************/
;/***********************************************/
;///// Bang Luu msg  ;Font: Times New Roman,Bold,12
;/******************************************/
;flash unsigned  char msg[]=
;{
;/*------------------------------------------------------------------------------
;; If font display distortion, please check Fonts format of setup.
;; Source file / text :Ngy M?i Vui V? !
;; Width x Height (pixels) :128X16
;;  Font Format/Size : Monochrome LCD Fonts ,Horizontal scan ,Big endian order/256Byte
;;  Font make date  : 12/17/2013 8:09:58 PM
;------------------------------------------------------------------------------*/
;0x80,0x10,0x10,//Width pixels,Height pixels,Width bytes
;0x00,0x00,0x00,0x00,0x00,0x00,0x00,0x00,0x00,0x00,0x00,0x00,0x00,0x00,0x00,0x00,
;0x00,0x00,0x00,0x00,0x00,0x00,0x00,0x00,0x00,0x00,0x00,0x00,0x00,0x00,0x00,0x00,
;0x7C,0xF8,0x00,0x00,0x00,0x7C,0x0F,0x80,0x18,0x3E,0x38,0x03,0x07,0xC7,0x3C,0x06,
;0x1C,0x20,0x00,0x80,0x00,0x1C,0x0E,0x04,0x18,0x0C,0x10,0x03,0x01,0x82,0x04,0x06,
;0x16,0x20,0x00,0x40,0x00,0x16,0x16,0x08,0x00,0x0C,0x10,0x00,0x01,0x82,0x18,0x06,
;0x13,0x20,0x00,0x00,0x00,0x16,0x16,0x00,0xC0,0x06,0x20,0x00,0x00,0xC4,0x00,0x06,
;0x13,0x21,0xF9,0xE7,0xB8,0x16,0x16,0x1E,0x58,0x06,0x27,0x77,0x00,0xC4,0x3C,0x06,
;0x11,0xA3,0x33,0x33,0x10,0x13,0x26,0x33,0x98,0x06,0x43,0x33,0x00,0xC8,0x66,0x06,
;0x10,0xe3,0x30,0x33,0xa0,0x13,0x26,0x33,0x18,0x03,0x43,0x33,0x00,0x68,0x66,0x06,
;0x10,0xE3,0x31,0xF1,0xA0,0x13,0x46,0x33,0x18,0x03,0x43,0x33,0x00,0x68,0x7E,0x06,
;0x10,0x61,0xE3,0x31,0xC0,0x11,0xC6,0x33,0x18,0x01,0x83,0x33,0x00,0x30,0x60,0x00,
;0x10,0x22,0x03,0x30,0xC0,0x11,0x86,0x33,0x18,0x01,0x83,0x33,0x00,0x30,0x62,0x06,
;0x7C,0x23,0xF1,0xF8,0xC0,0x7C,0x9F,0x9E,0x3C,0x01,0x81,0xFB,0x80,0x30,0x3C,0x06,
;0x00,0x03,0xF8,0x00,0x80,0x00,0x00,0x00,0x00,0x00,0x00,0x00,0x00,0x00,0x00,0x00,
;0x00,0x02,0x08,0x06,0x80,0x00,0x00,0x00,0x00,0x00,0x00,0x00,0x00,0x00,0x00,0x00,
;0x00,0x01,0xF0,0x07,0x00,0x00,0x00,0x00,0x00,0x00,0x00,0x00,0x00,0x00,0x00,0x00
;};
;/***********************************/
;flash unsigned char msg0[]=
;{
;/*------------------------------------------------------------------------------
;; If font display distortion, please check Fonts format of setup.
;; Source file / text :Time :
;; Width x Height (pixels) :40X16
;;  Font Format/Size : Monochrome LCD Fonts ,Horizontal scan ,Big endian order/80Byte
;;  Font make date  : 12/19/2013 11:47:09 AM
;------------------------------------------------------------------------------*/
;0x28,0x10,0x05,//Width pixels,Height pixels,Width bytes
;0x00,0x00,0x00,0x00,0x00,0x00,0x00,0x00,0x00,0x00,0x3F,0xCC,0x00,0x00,0x00,0x36,
;0xCC,0x00,0x00,0x00,0x26,0x40,0x00,0x00,0x00,0x06,0x00,0x00,0x00,0x00,0x06,0x1D,
;0xD9,0x87,0x86,0x06,0x0C,0xEE,0xCC,0xC6,0x06,0x0c,0xcc,0xcc,0xc0,0x06,0x0C,0xCC,
;0xCF,0xC0,0x06,0x0C,0xCC,0xCC,0x00,0x06,0x0C,0xCC,0xCC,0x46,0x0F,0x1E,0xEE,0xE7,
;0x86,0x00,0x00,0x00,0x00,0x00,0x00,0x00,0x00,0x00,0x00,0x00,0x00,0x00,0x00,0x00,
;};
;/******************************************/
;flash unsigned char msg1[]=
;{
;/*------------------------------------------------------------------------------
;; If font display distortion, please check Fonts format of setup.
;; Source file / text :Hm Nay
;; Width x Height (pixels) :64X16
;;  Font Format/Size : Monochrome LCD Fonts ,Horizontal scan ,Big endian order/128Byte
;;  Font make date  : 12/17/2013 8:43:15 PM
;------------------------------------------------------------------------------*/
;0x40,0x10,0x08,//Width pixels,Height pixels,Width bytes
;0x00,0x00,0x00,0x00,0x00,0x00,0x00,0x00,0x00,0x00,0x00,0x00,0x00,0x00,0x00,0x00,
;0xF9,0xF1,0xC0,0x00,0x0F,0x9F,0x00,0x00,0x30,0xC1,0x40,0x00,0x03,0x84,0x00,0x00,
;0x30,0xC2,0x20,0x00,0x02,0xC4,0x00,0x00,0x30,0xC0,0x00,0x00,0x02,0x64,0x00,0x00,
;0x30,0xC3,0xCE,0xCC,0x02,0x64,0x3C,0xF7,0x3F,0xC6,0x67,0x76,0x02,0x34,0x66,0x62,
;0x30,0xc6,0x66,0x66,0x02,0x1c,0x06,0x74,0x30,0xC6,0x66,0x66,0x02,0x1C,0x3E,0x34,
;0x30,0xC6,0x66,0x66,0x02,0x0C,0x66,0x38,0x30,0xC6,0x66,0x66,0x02,0x04,0x66,0x18,
;0xF9,0xF3,0xCF,0x77,0x0F,0x84,0x3F,0x18,0x00,0x00,0x00,0x00,0x00,0x00,0x00,0x10,
;0x00,0x00,0x00,0x00,0x00,0x00,0x00,0xD0,0x00,0x00,0x00,0x00,0x00,0x00,0x00,0xE0
;};
;
;/*****************************************/
;flash unsigned char msg2[]=
;{
;/*------------------------------------------------------------------------------
;; If font display distortion, please check Fonts format of setup.
;; Source file / text :Duong L?ch:
;; Width x Height (pixels) :88X16
;;  Font Format/Size : Monochrome LCD Fonts ,Horizontal scan ,Big endian order/176Byte
;;  Font make date  : 12/17/2013 2:23:30 PM
;------------------------------------------------------------------------------*/
;0x58,0x10,0x0B,//Width pixels,Height pixels,Width bytes
;0x00,0x00,0x00,0x00,0x00,0x00,0x00,0x00,0x00,0x00,0x00,0x00,0x00,0x00,0x00,0x00,
;0x00,0x00,0x00,0x00,0x00,0x00,0x3F,0xC0,0x00,0x00,0x00,0x00,0x07,0xE0,0xC0,0x38,
;0x00,0x0C,0x60,0x00,0x00,0x00,0x00,0x01,0x80,0xC0,0x18,0x00,0x0C,0x30,0x00,0x00,
;0x00,0x00,0x01,0x80,0x00,0x18,0x00,0x0C,0x18,0x00,0x01,0x80,0x00,0x01,0x80,0x00,
;0x18,0x00,0x0C,0x1B,0xBA,0x3C,0xB6,0x1F,0x81,0x81,0xC7,0x9B,0x18,0x0C,0x19,0x9A,
;0x67,0x3B,0x33,0x01,0x80,0xCD,0x9D,0x98,0x0c,0x19,0x9e,0x66,0x33,0x33,0x01,0x80,
;0xcc,0x19,0x80,0x0C,0x19,0x98,0x66,0x33,0x33,0x01,0x80,0xCC,0x19,0x80,0x0C,0x31,
;0x98,0x66,0x33,0x1E,0x01,0x84,0xCC,0x19,0x80,0x0C,0x61,0x98,0x66,0x33,0x20,0x01,
;0x84,0xCC,0x99,0x98,0x3F,0xC0,0xFC,0x3C,0x7B,0xBF,0x07,0xFD,0xE7,0x3D,0xD8,0x00,
;0x00,0x00,0x00,0x00,0x3F,0x80,0x00,0x00,0x00,0x00,0x00,0x00,0x00,0x00,0x00,0x20,
;0x80,0x00,0xC0,0x00,0x00,0x00,0x00,0x00,0x00,0x00,0x1F,0x00,0x00,0xC0,0x00,0x00
;};
;/******************************************/
;flash unsigned char msg3[]=
;{
;/*------------------------------------------------------------------------------
;; If font display distortion, please check Fonts format of setup.
;; Source file / text :m L?ch:
;; Width x Height (pixels) :64X16
;;  Font Format/Size : Monochrome LCD Fonts ,Horizontal scan ,Big endian order/128Byte
;;  Font make date  : 12/17/2013 2:41:59 PM
;------------------------------------------------------------------------------*/
;0x40,0x10,0x08,//Width pixels,Height pixels,Width bytes
;0x03,0x80,0x00,0x00,0x00,0x00,0x00,0x00,0x04,0x40,0x00,0x00,0x00,0x00,0x00,0x00,
;0x01,0x00,0x00,0x07,0xE0,0xC0,0x38,0x00,0x03,0x00,0x00,0x01,0x80,0xC0,0x18,0x00,
;0x03,0x80,0x00,0x01,0x80,0x00,0x18,0x00,0x05,0x80,0x00,0x01,0x80,0x00,0x18,0x00,
;0x04,0xC7,0x66,0x01,0x81,0xC7,0x9B,0x18,0x04,0xC3,0xBB,0x01,0x80,0xCD,0x9D,0x98,
;0x08,0x63,0x33,0x01,0x80,0xcc,0x19,0x80,0x0F,0xE3,0x33,0x01,0x80,0xCC,0x19,0x80,
;0x08,0x73,0x33,0x01,0x84,0xCC,0x19,0x80,0x10,0x33,0x33,0x01,0x84,0xCC,0x99,0x98,
;0x3C,0x7B,0xBB,0x87,0xFD,0xE7,0x3D,0xD8,0x00,0x00,0x00,0x00,0x00,0x00,0x00,0x00,
;0x00,0x00,0x00,0x00,0x00,0xC0,0x00,0x00,0x00,0x00,0x00,0x00,0x00,0xC0,0x00,0x00
;};
;/***************************************/
;flash unsigned char msg4[]=
;{
;/*------------------------------------------------------------------------------
;; If font display distortion, please check Fonts format of setup.
;; Source file / text :Nam
;; Width x Height (pixels) :32X16
;;  Font Format/Size : Monochrome LCD Fonts ,Horizontal scan ,Big endian order/64Byte
;;  Font make date  : 12/17/2013 8:37:43 PM
;------------------------------------------------------------------------------*/
;0x20,0x10,0x04,//Width pixels,Height pixels,Width bytes
;0x00,0x00,0x00,0x00,0x00,0x00,0x00,0x00,0xF9,0xF0,0x00,0x00,0x38,0x42,0x40,0x00,
;0x2C,0x41,0x80,0x00,0x26,0x40,0x00,0x00,0x26,0x43,0xCE,0xCC,0x23,0x46,0x67,0x76,
;0x21,0xc0,0x66,0x66,0x21,0xC3,0xE6,0x66,0x20,0xC6,0x66,0x66,0x20,0x46,0x66,0x66,
;0xF8,0x43,0xF7,0x77,0x00,0x00,0x00,0x00,0x00,0x00,0x00,0x00,0x00,0x00,0x00,0x00
;};
;/**************************************/
;/*************************************/
;//flash unsigned char msg7[]=
;//{
;///*------------------------------------------------------------------------------
;//; If font display distortion, please check Fonts format of setup.
;//; Source file / text :Bu?i sng vui v? !
;//; Width x Height (pixels) :120X16
;//;  Font Format/Size : Monochrome LCD Fonts ,Horizontal scan ,Big endian order/240Byte
;//;  Font make date  : 12/20/2013 10:47:15 AM
;//------------------------------------------------------------------------------*/
;//0x78,0x10,0x0F,//Width pixels,Height pixels,Width bytes
;//0x00,0x00,0x00,0xE0,0x00,0x00,0x00,0x00,0x00,0x00,0x00,0x00,0x00,0x00,0x00,0x00,
;//0x00,0x00,0x20,0x00,0x00,0x00,0x00,0x00,0x00,0x00,0x00,0x00,0x00,0x00,0x7F,0xC0,
;//0x00,0x86,0x00,0x00,0x00,0x00,0x00,0x00,0x00,0xC0,0x00,0x78,0x0C,0x18,0x60,0x01,
;//0x46,0x00,0x01,0x00,0x00,0x00,0x00,0x00,0xC0,0x00,0x08,0x0C,0x18,0x60,0x02,0x20,
;//0x00,0x02,0x00,0x00,0x00,0x00,0x00,0x00,0x00,0x30,0x0C,0x18,0x60,0x00,0x00,0x00,
;//0x00,0x00,0x00,0x00,0x00,0x00,0x00,0x00,0x00,0x0C,0x18,0xCE,0xE3,0xCE,0x03,0xC7,
;//0x9D,0x87,0xE1,0xEE,0xDD,0xC1,0xEE,0x78,0x0C,0x1F,0x86,0x66,0x66,0x06,0x4C,0xCE,
;//0xCC,0xC0,0xC4,0xCC,0xC0,0xC4,0xCC,0x0C,0x18,0xc6,0x66,0x66,0x07,0x00,0xcc,0xcc,//
;//0xc0,0x68,0xcc,0xc0,0x68,0xc0,0x0c,0x18,0x66,0x66,0x66,0x03,0x87,0xCC,0xCC,0xC0,
;//0x68,0xCC,0xC0,0x68,0xFC,0x0C,0x18,0x66,0x66,0x66,0x01,0xCC,0xCC,0xC7,0x80,0x68,
;//0xCC,0xC0,0x68,0xC0,0x00,0x18,0x66,0x66,0x66,0x04,0xCC,0xCC,0xC8,0x00,0x30,0xCC,
;//0xC0,0x30,0xC4,0x0C,0x7F,0xC3,0xF3,0xCF,0x07,0x87,0xEE,0xEF,0xC0,0x30,0x7E,0xE0,
;//0x30,0x78,0x0C,0x00,0x00,0x00,0x00,0x00,0x00,0x00,0x0F,0xE0,0x00,0x00,0x00,0x00,
;//0x00,0x00,0x00,0x00,0x00,0x00,0x00,0x00,0x00,0x08,0x20,0x00,0x00,0x00,0x00,0x00,
;//0x00,0x00,0x00,0x00,0x00,0x00,0x00,0x00,0x07,0xC0,0x00,0x00,0x00,0x00,0x00,0x00,
;//};
;//
;///*************************************/
;//flash unsigned char msg8[]=
;//{
;///*------------------------------------------------------------------------------
;//; If font display distortion, please check Fonts format of setup.
;//; Source file / text :Chc ng? ngon !
;//; Width x Height (pixels) :112X16
;//;  Font Format/Size : Monochrome LCD Fonts ,Horizontal scan ,Big endian order/224Byte
;//;  Font make date  : 12/20/2013 10:58:35 AM
;//------------------------------------------------------------------------------*/
;//0x70,0x10,0x0E,//Width pixels,Height pixels,Width bytes
;//0x00,0x00,0x00,0x00,0x00,0x00,0x00,0x00,0x00,0x00,0x00,0x00,0x00,0x00,0x00,0x00,
;//0x00,0x00,0x00,0x00,0x00,0x00,0x00,0x00,0x00,0x00,0x00,0x00,0x03,0x97,0x00,0x00,
;//0x00,0x00,0x00,0x3C,0x00,0x00,0x00,0x00,0x00,0x60,0x0C,0x73,0x00,0x40,0x00,0x00,
;//0x00,0x04,0x00,0x00,0x00,0x00,0x00,0x60,0x0C,0x33,0x00,0x80,0x00,0x00,0x00,0x18,
;//0x00,0x00,0x00,0x00,0x00,0x60,0x18,0x13,0x00,0x00,0x00,0x00,0x00,0x00,0x00,0x00,
;//0x00,0x00,0x00,0x60,0x18,0x03,0x67,0x71,0xE0,0xEC,0x3E,0xEE,0x0E,0xC3,0xF3,0xCE,
;//0xC0,0x60,0x18,0x03,0xB3,0x33,0x60,0x76,0x66,0x66,0x07,0x66,0x66,0x67,0x60,0x60,
;//0x18,0x03,0x33,0x33,0x00,0x66,0x66,0x60,0x06,0x66,0x66,0x66,0x60,0x60,0x18,0x03,
;//0x33,0x33,0x00,0x66,0x66,0x66,0x06,0x66,0x66,0x66,0x60,0x60,0x0C,0x13,0x33,0x33,
;//0x00,0x66,0x3C,0x66,0x06,0x63,0xC6,0x66,0x60,0x00,0x0C,0x23,0x33,0x33,0x20,0x66,
;//0x40,0x66,0x06,0x64,0x06,0x66,0x60,0x60,0x03,0xC7,0xB9,0xF9,0xC0,0xF7,0x7E,0x3F,
;//0x0F,0x77,0xE3,0xCF,0x70,0x60,0x00,0x00,0x00,0x00,0x00,0x00,0x7F,0x00,0x00,0x07,
;//0xF0,0x00,0x00,0x00,0x00,0x00,0x00,0x00,0x00,0x00,0x41,0x00,0x00,0x04,0x10,0x00,
;//0x00,0x00,0x00,0x00,0x00,0x00,0x00,0x00,0x3E,0x00,0x00,0x03,0xE0,0x00,0x00,0x00,
;//};
;
;/******************************************/
;flash unsigned char msg9[]=
;{
;/*------------------------------------------------------------------------------
;; If font display distortion, please check Fonts format of setup.
;; Source file / text :Tram nam tnh vin mn - B?c d?u nghia phu th
;; Width x Height (pixels) :320X16
;;  Font Format/Size : Monochrome LCD Fonts ,Horizontal scan ,Big endian order/640Byte
;;  Font make date  : 12/17/2013 2:54:10 PM
;------------------------------------------------------------------------------*/
;0x40,0x10,0x28,//Width pixels,Height pixels,Width bytes
;0x00,0x00,0x00,0x00,0x00,0x00,0x00,0x00,0x00,0x00,0x00,0x00,0x00,0x00,0x00,0x00,
;0x00,0x00,0x00,0x00,0x00,0x00,0x00,0x00,0x00,0x00,0x00,0x40,0x00,0x00,0x00,0x00,
;0x00,0x00,0x00,0x00,0x00,0x00,0x00,0x00,0x00,0x00,0x00,0x00,0x00,0x00,0x00,0x00,
;0x00,0x00,0x00,0x00,0x00,0x00,0x00,0x00,0x00,0x00,0x00,0x00,0x00,0x00,0x00,0x00,
;0x00,0x00,0x00,0x20,0x00,0x00,0x00,0x00,0x00,0x00,0x00,0x00,0x00,0x00,0x00,0x00,
;0xFF,0x00,0x00,0x00,0x00,0x00,0x00,0x00,0x00,0x00,0x00,0xE0,0x00,0x06,0x08,0x00,
;0x00,0x00,0x00,0x00,0x00,0x07,0xFC,0x00,0x00,0x01,0xC1,0x00,0x00,0x00,0x01,0xC0,
;0x00,0x00,0x01,0xC0,0x00,0x00,0xE0,0x08,0xDB,0x00,0x48,0x00,0x00,0x00,0x48,0x00,
;0x00,0x04,0x00,0x60,0x00,0x06,0x14,0x00,0x00,0x00,0x32,0x00,0x00,0x01,0x86,0x00,
;0x00,0x00,0xC2,0x80,0x00,0x00,0x00,0xC3,0x20,0x00,0x00,0xC0,0x00,0x00,0x60,0x14,
;0x99,0x00,0x30,0x00,0x00,0x00,0x30,0x00,0x00,0x42,0x00,0x60,0x00,0x00,0x22,0x00,
;0x00,0x00,0x2E,0x00,0x00,0x01,0x86,0x00,0x00,0x03,0xE4,0x40,0x00,0x00,0x00,0xC2,
;0xE0,0x00,0x00,0xC0,0x00,0x04,0x60,0x22,0x18,0x00,0x00,0x00,0x00,0x00,0x00,0x00,
;0x00,0xC0,0x00,0x60,0x00,0x00,0x00,0x00,0x00,0x00,0x00,0x00,0x00,0x01,0x86,0x00,
;0x00,0x00,0xC0,0x00,0x00,0x00,0x00,0xC0,0x00,0x00,0x00,0xC0,0x00,0x0C,0x60,0x00,
;0x18,0x76,0x79,0xD9,0x81,0xD8,0x79,0xD9,0x83,0xF6,0xEC,0x6C,0x0F,0x76,0x3C,0xEC,
;0x0E,0xCC,0x3C,0xEC,0x00,0x01,0x8C,0x3C,0x3C,0x07,0xC7,0x9D,0xC1,0xD8,0x7E,0xD9,
;0xC7,0x81,0xF8,0xD9,0xDC,0x3F,0x6C,0x3C,0x18,0x3A,0xCC,0xEE,0xC0,0xEC,0xCC,0xEE,
;0xC0,0xC6,0x76,0x76,0x06,0x26,0x66,0x76,0x07,0x76,0x66,0x76,0x00,0x01,0xF8,0x66,
;0x6C,0x0C,0xCC,0xCC,0xC0,0xEC,0xCC,0xEC,0xCC,0xC0,0xCC,0xEC,0xCC,0x0C,0x76,0x66,
;0x18,0x30,0x0c,0xcc,0xc0,0xcc,0x0c,0xcc,0xc0,0xc6,0x66,0x66,0x03,0x46,0x66,0x66,   //
;0x06,0x66,0x06,0x66,0x00,0x01,0x8c,0x06,0x60,0x0c,0xc0,0xcc,0xc0,0xcc,0xcc,0xcc,
;0xc0,0xc0,0xcc,0xcc,0xcc,0x0c,0x66,0x66,0x18,0x30,0x7C,0xCC,0xC0,0xCC,0x7C,0xCC,
;0xC0,0xC6,0x66,0x66,0x03,0x46,0x7E,0x66,0x06,0x66,0x3E,0x66,0x0F,0x01,0x86,0x3E,
;0x60,0x0C,0xC7,0xCC,0xC0,0xCC,0xCC,0xCC,0xC7,0xC0,0xCC,0xCC,0xCC,0x0C,0x66,0x7E,
;0x18,0x30,0xCC,0xCC,0xC0,0xCC,0xCC,0xCC,0xC0,0xC6,0x66,0x66,0x03,0x46,0x60,0x66,
;0x06,0x66,0x66,0x66,0x00,0x01,0x86,0x66,0x60,0x0C,0xCC,0xCC,0xC0,0xCC,0x78,0xCC,
;0xCC,0xC0,0xCC,0xCC,0xCC,0x0C,0x66,0x60,0x18,0x30,0xCC,0xCC,0xC0,0xCC,0xCC,0xCC,
;0xC0,0xD6,0x66,0x66,0x01,0x86,0x62,0x66,0x06,0x66,0x66,0x66,0x00,0x01,0x86,0x66,
;0x64,0x0C,0xCC,0xCC,0xC0,0xCC,0x80,0xCC,0xCC,0xC0,0xCC,0xCC,0xCC,0x0D,0x66,0x62,
;0x7E,0x78,0x7E,0xEE,0xE1,0xEE,0x7E,0xEE,0xE0,0x67,0x77,0x77,0x01,0x8F,0x3C,0xF7,
;0x0F,0x77,0x3F,0x77,0x00,0x07,0xFC,0x3F,0x38,0x07,0xE7,0xE7,0xE1,0xEE,0xFC,0xEE,
;0xE7,0xE0,0xF9,0xEE,0x7E,0x06,0x77,0x3C,0x00,0x00,0x00,0x00,0x00,0x00,0x00,0x00,
;0x00,0x00,0x00,0x00,0x00,0x00,0x00,0x00,0x00,0x00,0x00,0x00,0x00,0x00,0x00,0x00,
;0x00,0x00,0x00,0x00,0x00,0x00,0xFE,0x00,0x00,0x00,0xC0,0x00,0x00,0x00,0x00,0x00,
;0x00,0x00,0x00,0x00,0x00,0x00,0x00,0x00,0x00,0x00,0x00,0x00,0x00,0x00,0x00,0x00,
;0x00,0x00,0x00,0x00,0x00,0x00,0x00,0x18,0x00,0x00,0x00,0x00,0x00,0x00,0x82,0x00,
;0x00,0x00,0xC0,0x00,0x00,0x00,0x00,0x00,0x00,0x00,0x00,0x00,0x00,0x00,0x00,0x00,
;0x00,0x00,0x00,0x00,0x00,0x00,0x00,0x00,0x00,0x00,0x00,0x00,0x00,0x00,0x00,0x18,
;0x00,0x00,0x00,0x00,0x00,0x00,0x7C,0x00,0x00,0x01,0xE0,0x00,0x00,0x00,0x00,0x00
;};
;/*************************************/
;flash unsigned  char msg10[]=
;{
;/*------------------------------------------------------------------------------
;; If font display distortion, please check Fonts format of setup.
;; Source file / text :Chc m?ng nam m?i - An khang th?nh vu?ng !
;; Width x Height (pixels) :304X16
;;  Font Format/Size : Monochrome LCD Fonts ,Horizontal scan ,Big endian order/608Byte
;;  Font make date  : 12/20/2013 9:27:46 AM
;------------------------------------------------------------------------------*/
;0x30,0x10,0x26,//Width pixels,Height pixels,Width bytes
;0x00,0x00,0x00,0x00,0x00,0x00,0x00,0x00,0x00,0x00,0x00,0x00,0x00,0x00,0x00,0x00,
;0x00,0x00,0x00,0x00,0x00,0x00,0x00,0x00,0x00,0x00,0x00,0x00,0x00,0x00,0x00,0x00,
;0x00,0x00,0x00,0x00,0x00,0x00,0x00,0x00,0x00,0x00,0x00,0x00,0x00,0x00,0x00,0x00,
;0x00,0x00,0x00,0x00,0x00,0x00,0x00,0x00,0x00,0x00,0x00,0x00,0x00,0x00,0x00,0x00,
;0x00,0x00,0x00,0x00,0x00,0x00,0x00,0x00,0x00,0x00,0x00,0x00,0x1C,0xB8,0x00,0x00,
;0x00,0x00,0x00,0x00,0x00,0x00,0x00,0x00,0x00,0x00,0x00,0x00,0x06,0x00,0x00,0x20,
;0x00,0x0E,0x07,0x00,0x00,0x00,0x00,0x03,0x81,0x80,0x38,0x00,0x00,0x00,0x00,0x00,
;0x00,0x03,0x63,0x98,0x02,0x00,0x00,0x00,0x10,0x00,0x00,0x00,0x00,0x48,0x00,0x00,
;0x00,0x01,0x06,0x00,0x00,0x60,0x00,0x06,0x03,0x00,0x00,0x00,0x00,0x01,0x81,0x80,
;0x18,0x00,0x00,0x00,0x00,0x00,0x00,0x03,0x61,0x98,0x04,0x00,0x00,0x00,0x08,0x00,
;0x00,0x00,0x00,0x30,0x00,0x00,0x00,0x02,0x00,0x00,0x00,0x70,0x00,0x06,0x03,0x00,
;0x00,0x00,0x00,0x11,0x80,0x00,0x18,0x00,0x00,0x00,0x00,0x00,0x00,0x03,0xC0,0x98,
;0x00,0x00,0x00,0x00,0x00,0x00,0x00,0x00,0x00,0x00,0x00,0x00,0x00,0x00,0x30,0x00,
;0x00,0xB0,0x00,0x06,0x03,0x00,0x00,0x00,0x00,0x31,0x80,0x00,0x18,0x00,0x00,0x00,
;0x01,0x80,0x00,0x03,0xC0,0x1B,0x3B,0x8F,0x07,0x66,0x77,0x5D,0x87,0xE1,0xD8,0x79,
;0xD9,0x81,0xD9,0x87,0x96,0x00,0x00,0x98,0xEC,0x06,0x73,0x61,0xE7,0x61,0xF8,0xFD,
;0xB3,0xBB,0x1B,0x03,0xDD,0xBA,0x3C,0xB6,0x1F,0x83,0xC0,0x1D,0x99,0x9B,0x03,0xBB,
;0x33,0x4E,0xCC,0xC0,0xEC,0xCC,0xEE,0xC0,0xEE,0xCC,0xE6,0x00,0x00,0x98,0x76,0x06,
;0x43,0xB3,0x33,0xB3,0x30,0x31,0xD9,0x9D,0x9D,0x81,0x89,0x9A,0x67,0x3B,0x33,0x03,
;0xc0,0x19,0x99,0x98,0x03,0x33,0x33,0xcc,0xcc,0xc0,0xcc,0x0c,0xcc,0xc0,0xcc,0xcc, //
;0xc6,0x00,0x01,0x0c,0x66,0x06,0x83,0x30,0x33,0x33,0x30,0x31,0x99,0x99,0x99,0x80,
;0xd1,0x9e,0x66,0x33,0x33,0x03,0xC0,0x19,0x99,0x98,0x03,0x33,0x33,0x0C,0xCC,0xC0,
;0xCC,0x7C,0xCC,0xC0,0xCC,0xCC,0xC6,0x0F,0x01,0xFC,0x66,0x07,0x83,0x31,0xF3,0x33,
;0x30,0x31,0x99,0x99,0x99,0x80,0xD1,0x98,0x66,0x33,0x33,0x03,0x60,0x99,0x99,0x98,
;0x03,0x33,0x33,0x0C,0xC7,0x80,0xCC,0xCC,0xCC,0xC0,0xCC,0xCC,0xC6,0x00,0x01,0x0E,
;0x66,0x06,0xC3,0x33,0x33,0x31,0xE0,0x31,0x99,0x99,0x99,0x80,0xD1,0x98,0x66,0x33,
;0x1E,0x00,0x61,0x19,0x99,0x99,0x03,0x33,0x33,0x0C,0xC8,0x00,0xCC,0xCC,0xCC,0xC0,
;0xCC,0xCC,0xC6,0x00,0x02,0x06,0x66,0x06,0x63,0x33,0x33,0x32,0x00,0x35,0x99,0x99,
;0x99,0x80,0x61,0x98,0x66,0x33,0x20,0x03,0x1E,0x3D,0xCF,0xCE,0x07,0xBB,0x9F,0x9E,
;0xEF,0xC1,0xEE,0x7E,0xEE,0xE1,0xEE,0xE7,0x8F,0x00,0x07,0x8F,0x77,0x0F,0x77,0xB9,
;0xFB,0xBB,0xF0,0x19,0xDD,0xDD,0xDD,0xC0,0x60,0xFC,0x3C,0x7B,0xBF,0x03,0x00,0x00,
;0x00,0x00,0x00,0x00,0x00,0x00,0x0F,0xE0,0x00,0x00,0x00,0x00,0x00,0x00,0x00,0x00,
;0x00,0x00,0x00,0x00,0x00,0x00,0x00,0x03,0xF8,0x00,0x00,0x00,0x00,0x00,0x00,0x00,
;0x00,0x00,0x3F,0x80,0x00,0x00,0x00,0x00,0x00,0x00,0x00,0x00,0x08,0x20,0x00,0x00,
;0x00,0x00,0x00,0x00,0x00,0x00,0x00,0x00,0x00,0x00,0x00,0x00,0x00,0x02,0x08,0x00,
;0x01,0x80,0x00,0x00,0x00,0x00,0x18,0x00,0x20,0x80,0x00,0x00,0x00,0x00,0x00,0x00,
;0x00,0x00,0x07,0xC0,0x00,0x00,0x00,0x00,0x00,0x00,0x00,0x00,0x00,0x00,0x00,0x00,
;0x00,0x00,0x00,0x01,0xF0,0x00,0x01,0x80,0x00,0x00,0x00,0x00,0x18,0x00,0x1F,0x00,
;};
;
;/***********************************/
;flash unsigned char msg11[]=
;{
;/*------------------------------------------------------------------------------
;; If font display distortion, please check Fonts format of setup.
;; Source file / text :T?t t?i t?n ti - Xun sang d?c l?c !
;; Width x Height (pixels) :232X16
;;  Font Format/Size : Monochrome LCD Fonts ,Horizontal scan ,Big endian order/464Byte
;;  Font make date  : 12/20/2013 11:29:05 AM
;------------------------------------------------------------------------------*/
;0xE8,0x10,0x1D,//Width pixels,Height pixels,Width bytes
;0x00,0x00,0x20,0x00,0x00,0x00,0x00,0x02,0x00,0x00,0x00,0x00,0x00,0x00,0x00,0x00,
;0x00,0x00,0x00,0x00,0x00,0x00,0x00,0x00,0x80,0x00,0x00,0x00,0x00,0x00,0x00,0x40,
;0x00,0x00,0x00,0x00,0x04,0x00,0x00,0x00,0x00,0x00,0x00,0x00,0x00,0x00,0x00,0x00,
;0x00,0x00,0x00,0x00,0x01,0x00,0x00,0x00,0x00,0x00,0x7F,0x87,0x00,0x00,0x00,0x30,
;0x00,0x70,0x00,0x00,0x00,0xC0,0x00,0xF9,0xE0,0x03,0x80,0x00,0x00,0x00,0x00,0x00,
;0x03,0x80,0x00,0x07,0x0E,0x00,0x06,0x6D,0x85,0x00,0x00,0x08,0x30,0x00,0x50,0x00,
;0x00,0x20,0xC0,0x00,0x30,0x80,0x02,0x80,0x00,0x00,0x00,0x00,0x00,0x01,0x89,0x00,
;0x03,0x0A,0x00,0x06,0x4C,0x88,0x88,0x04,0x10,0x00,0x10,0x88,0x00,0x08,0x10,0x00,
;0x00,0x19,0x00,0x04,0x40,0x00,0x00,0x00,0x00,0x00,0x07,0xC6,0x00,0x03,0x11,0x00,
;0x06,0x0C,0x00,0x18,0x0C,0x01,0x80,0x30,0x00,0x00,0x18,0x00,0x00,0x00,0x19,0x00,
;0x00,0x00,0x00,0x00,0x00,0x00,0x00,0x01,0x80,0x00,0x03,0x00,0x00,0x06,0x0C,0x0F,
;0x3E,0x1F,0x3C,0xB0,0x7C,0xF3,0xB0,0x3E,0x79,0xC0,0x00,0x0E,0x1D,0xC7,0x9D,0x80,
;0x78,0xF3,0xB0,0xFC,0x0F,0x8F,0x0F,0x03,0x1E,0x1E,0x06,0x0C,0x19,0x98,0x0C,0x67,
;0x30,0x31,0x99,0xD8,0x18,0xCC,0xC0,0x00,0x0C,0x0C,0xCC,0xCE,0xC0,0xC9,0x99,0xD9,
;0x98,0x19,0x99,0x9B,0x03,0x33,0x36,0x06,0x0c,0x19,0x98,0x0c,0x66,0x30,0x30,0x19, //
;0x98,0x18,0x0c,0xc0,0x00,0x0c,0x0c,0xc0,0xcc,0xc0,0xe0,0x19,0x99,0x98,0x19,0x81,
;0x98,0x03,0x33,0x30,0x06,0x0C,0x1F,0x98,0x0C,0x66,0x30,0x30,0xF9,0x98,0x18,0x7C,
;0xC1,0xE0,0x17,0x0C,0xC7,0xCC,0xC0,0x70,0xF9,0x99,0x98,0x19,0x8F,0x98,0x03,0x33,
;0x30,0x06,0x0C,0x18,0x18,0x0C,0x66,0x30,0x31,0x99,0x98,0x18,0xCC,0xC0,0x00,0x13,
;0x0C,0xCC,0xCC,0xC0,0x39,0x99,0x98,0xF0,0x19,0x99,0x98,0x03,0x33,0x30,0x00,0x0C,
;0x18,0x9A,0x0D,0x66,0x30,0x35,0x99,0x98,0x1A,0xCC,0xC0,0x00,0x61,0x8C,0xCC,0xCC,
;0xC0,0x99,0x99,0x99,0x00,0x19,0x99,0x99,0x03,0x33,0x32,0x06,0x1E,0x0F,0x0C,0x06,
;0x3C,0x78,0x18,0xFD,0xDC,0x0C,0x7E,0xE0,0x00,0xF3,0xE7,0xE7,0xEE,0xE0,0xF0,0xFD,
;0xDD,0xF8,0x0F,0xCF,0xCE,0x07,0x9E,0x1C,0x06,0x00,0x00,0x00,0x00,0x00,0x00,0x00,
;0x00,0x00,0x00,0x00,0x00,0x00,0x00,0x00,0x00,0x00,0x00,0x00,0x00,0x01,0xFC,0x00,
;0x00,0x00,0x00,0x00,0x00,0x00,0x00,0x00,0x00,0x00,0x00,0x00,0x00,0x00,0x00,0x00,
;0x00,0x00,0x00,0x00,0x00,0x00,0x00,0x00,0x00,0x00,0x01,0x04,0x00,0x00,0x00,0x00,
;0x0C,0x00,0x00,0x00,0x00,0x00,0x00,0x00,0x00,0x00,0x00,0x00,0x00,0x00,0x00,0x00,
;0x00,0x00,0x00,0x00,0x00,0x00,0x00,0x00,0xF8,0x00,0x00,0x00,0x00,0x0C,0x00,0x00,
;};
;
;/***********************************/
;flash unsigned char msg12[]=
;{
;/*------------------------------------------------------------------------------
;; If font display distortion, please check Fonts format of setup.
;; Source file / text :C:\Users\minhnamdtkn\Desktop\Luu Font\Nam moi hanh phuc binh an den.bmpNam m?i h?nh phc bnh an d?n
;; Width x Height (pixels) :232X16
;;  Font Format/Size : Monochrome LCD Fonts ,Horizontal scan ,Big endian order/464Byte
;;  Font make date  : 12/22/2013 11:19:42 PM
;------------------------------------------------------------------------------*/
;0xE8,0x10,0x1D,//Width pixels,Height pixels,Width bytes
;0x00,0x00,0x00,0x00,0x00,0x00,0x00,0x00,0x00,0x00,0x00,0x00,0x00,0x00,0x00,0x00,
;0x00,0x00,0x00,0x00,0x00,0x00,0x00,0x00,0x00,0x04,0x00,0x00,0x00,0x00,0x00,0x00,
;0x00,0x00,0x00,0x00,0x00,0x00,0x00,0x00,0x00,0x00,0x00,0x00,0x00,0x00,0x00,0x00,
;0x00,0x00,0x00,0x00,0x00,0x00,0x08,0x00,0x00,0x00,0x7C,0xF8,0x00,0x00,0x00,0x00,
;0x00,0x18,0x38,0x00,0x00,0x38,0x00,0x03,0x80,0x00,0x00,0x70,0x00,0x07,0x00,0x00,
;0x00,0x00,0x70,0xE0,0x00,0x0E,0x38,0x1C,0x21,0x20,0x00,0x00,0x00,0x04,0x18,0x18,
;0x00,0x00,0x18,0x00,0x01,0x80,0x20,0x00,0x30,0x20,0x03,0x00,0x00,0x00,0x00,0x30,
;0xA0,0x00,0x1F,0x7C,0x16,0x20,0xC0,0x00,0x00,0x00,0x08,0x00,0x18,0x00,0x00,0x18,
;0x00,0x01,0x80,0x40,0x00,0x30,0x10,0x03,0x00,0x00,0x00,0x00,0xF9,0x10,0x00,0x3F,
;0xFE,0x13,0x20,0x00,0x00,0x00,0x00,0x00,0xC0,0x18,0x00,0x00,0x18,0x00,0x01,0x80,
;0x00,0x00,0x30,0x00,0x03,0x00,0x00,0x00,0x00,0x30,0x00,0x00,0x3F,0xFE,0x13,0x21,
;0xE7,0x66,0x07,0x66,0x1E,0x58,0x1B,0x0F,0x3B,0x1B,0x03,0xF1,0xB3,0xB8,0xF0,0x3E,
;0x77,0x63,0x60,0x1E,0x76,0x01,0xF1,0xE7,0x60,0x3F,0xFE,0x11,0xA3,0x33,0xBB,0x03,
;0xBB,0x33,0x98,0x1D,0x99,0x9D,0x9D,0x81,0x99,0xD9,0x99,0xB0,0x33,0x33,0xB3,0xB0,
;0x33,0x3B,0x03,0x33,0x33,0xB0,0x1F,0xFC,0x10,0xe0,0x33,0x33,0x03,0x33,0x33,0x18,  //
;0x19,0x81,0x99,0x99,0x81,0x99,0x99,0x99,0x80,0x33,0x33,0x33,0x30,0x03,0x33,0x03,
;0x33,0x33,0x30,0x0f,0xF8,0x10,0xE1,0xF3,0x33,0x03,0x33,0x33,0x18,0x19,0x8F,0x99,
;0x99,0x81,0x99,0x99,0x99,0x80,0x33,0x33,0x33,0x30,0x1F,0x33,0x03,0x33,0xF3,0x30,
;0x07,0xF0,0x10,0x63,0x33,0x33,0x03,0x33,0x33,0x18,0x19,0x99,0x99,0x99,0x81,0x99,
;0x99,0x99,0x80,0x33,0x33,0x33,0x30,0x33,0x33,0x03,0x33,0x03,0x30,0x03,0xE0,0x10,
;0x23,0x33,0x33,0x03,0x33,0x33,0x18,0x19,0x99,0x99,0x99,0x81,0x99,0x99,0x99,0x90,
;0x33,0x33,0x33,0x30,0x33,0x33,0x03,0x33,0x13,0x30,0x01,0xC0,0x7C,0x21,0xFB,0xBB,
;0x87,0xBB,0x9E,0x3C,0x3D,0xCF,0xDD,0xDD,0xC1,0xF3,0xDC,0xFC,0xE0,0x2E,0x7F,0xBB,
;0xB8,0x1F,0xBB,0x81,0xF9,0xE7,0xB8,0x00,0x80,0x00,0x00,0x00,0x00,0x00,0x00,0x00,
;0x00,0x00,0x00,0x00,0x00,0x01,0x80,0x00,0x00,0x00,0x00,0x00,0x00,0x00,0x00,0x00,
;0x00,0x00,0x00,0x00,0x00,0x00,0x00,0x00,0x00,0x00,0x00,0x00,0x00,0x00,0x00,0x06,
;0x00,0x00,0x01,0x80,0x00,0x00,0x00,0x00,0x00,0x00,0x00,0x00,0x00,0x00,0x00,0x00,
;0x00,0x00,0x00,0x00,0x00,0x00,0x00,0x00,0x00,0x00,0x00,0x00,0x06,0x00,0x00,0x03,
;0xC0,0x00,0x00,0x00,0x00,0x00,0x00,0x00,0x00,0x00,0x00,0x00,0x00,0x00,0x00,0x00,
;};
;/**************************************************/
;flash unsigned char msg13[]=
;{
;/*------------------------------------------------------------------------------
;; If font display distortion, please check Fonts format of setup.
;; Source file / text :Ngy xun vinh hoa ph qu v?
;; Width x Height (pixels) :232X16
;;  Font Format/Size : Monochrome LCD Fonts ,Horizontal scan ,Big endian order/464Byte
;;  Font make date  : 12/22/2013 11:37:24 PM
;------------------------------------------------------------------------------*/
;0xE8,0x10,0x1D,//Width pixels,Height pixels,Width bytes
;0x00,0x00,0x00,0x00,0x00,0x00,0x00,0x00,0x00,0x00,0x00,0x00,0x00,0x00,0x00,0x00,
;0x00,0x00,0x00,0x00,0x00,0x00,0x00,0x00,0x00,0x01,0x00,0x07,0x00,0x00,0x00,0x00,
;0x00,0x00,0x00,0x00,0x00,0x00,0x00,0x00,0x00,0x00,0x00,0x00,0x00,0x00,0x00,0x00,
;0x00,0x00,0x00,0x00,0x00,0x00,0x00,0x80,0x08,0x80,0x7C,0xF8,0x00,0x00,0x00,0x00,
;0x00,0x0E,0x00,0x00,0x03,0x00,0x70,0x07,0x00,0x00,0x00,0x00,0x70,0x00,0x00,0x00,
;0x00,0x00,0x00,0x0E,0x00,0x10,0x40,0x1C,0x20,0x00,0x80,0x00,0x00,0x00,0x0A,0x00,
;0x00,0x03,0x00,0x30,0x03,0x00,0x00,0x00,0x00,0x30,0x04,0x00,0x00,0x00,0x20,0x00,
;0x0A,0x00,0x10,0x40,0x16,0x20,0x00,0x40,0x00,0x00,0x00,0x11,0x00,0x00,0x00,0x00,
;0x30,0x03,0x00,0x00,0x00,0x00,0x30,0x08,0x00,0x00,0x00,0x40,0x00,0x11,0x00,0x70,
;0x70,0x13,0x20,0x00,0x00,0x00,0x00,0x00,0x00,0x00,0x00,0x00,0x00,0x30,0x03,0x00,
;0x00,0x00,0x00,0x30,0x00,0x00,0x00,0x00,0x00,0x00,0x00,0x00,0x88,0x88,0x13,0x21,
;0xF9,0xE7,0xB8,0x7B,0xB7,0x1E,0x76,0x07,0xBB,0x76,0x36,0x03,0x61,0xE1,0xE0,0x7E,
;0x36,0x77,0x01,0xD7,0x77,0xB8,0x7B,0x9E,0x01,0x07,0x04,0x11,0xA3,0x33,0x33,0x10,
;0x1A,0x33,0x33,0x3B,0x03,0x13,0x3B,0x3B,0x03,0xB3,0x33,0x30,0x33,0x3B,0x33,0x03,
;0x33,0x33,0x10,0x31,0x33,0x01,0x05,0x04,0x10,0xe3,0x30,0x33,0xa0,0x1c,0x33,0x03,     //
;0x33,0x01,0xa3,0x33,0x33,0x03,0x33,0x30,0x30,0x33,0x33,0x33,0x03,0x33,0x33,0xa0,
;0x1a,0x33,0x01,0x07,0x04,0x10,0xE3,0x31,0xF1,0xA0,0x0C,0x33,0x1F,0x33,0x01,0xA3,
;0x33,0x33,0x03,0x33,0x31,0xF0,0x33,0x33,0x33,0x03,0x33,0x31,0xA0,0x1A,0x3F,0x00,
;0x88,0x88,0x10,0x61,0xE3,0x31,0xC0,0x0E,0x33,0x33,0x33,0x01,0xA3,0x33,0x33,0x03,
;0x33,0x33,0x30,0x33,0x33,0x33,0x03,0x33,0x31,0xC0,0x1A,0x30,0x00,0x70,0x70,0x10,
;0x22,0x03,0x30,0xC0,0x16,0x33,0x33,0x33,0x00,0xC3,0x33,0x33,0x03,0x33,0x33,0x30,
;0x33,0x33,0x33,0x03,0x33,0x30,0xC0,0x0C,0x31,0x00,0x10,0x40,0x7C,0x23,0xF1,0xF8,
;0xC0,0x77,0x9F,0x9F,0xBB,0x80,0xC7,0xBB,0xBB,0x87,0xB9,0xE1,0xF8,0x3E,0x7B,0x9F,
;0x81,0xF1,0xF8,0xC0,0x0C,0x1E,0x00,0x10,0x40,0x00,0x03,0xF8,0x00,0x80,0x00,0x00,
;0x00,0x00,0x00,0x00,0x00,0x00,0x00,0x00,0x00,0x00,0x30,0x00,0x00,0x00,0x30,0x00,
;0x80,0x00,0x00,0x00,0x08,0x80,0x00,0x02,0x08,0x06,0x80,0x00,0x00,0x00,0x00,0x00,
;0x00,0x00,0x00,0x00,0x00,0x00,0x00,0x30,0x00,0x00,0x00,0x30,0x06,0x80,0x00,0x00,
;0x00,0x07,0x00,0x00,0x01,0xF0,0x07,0x00,0x00,0x00,0x00,0x00,0x00,0x00,0x00,0x00,
;0x00,0x00,0x00,0x00,0x78,0x00,0x00,0x00,0x78,0x07,0x00,0x00,0x00,0x00,0x00,0x00,
;};
;
;/*************************************/
;/************************************/
;/*MANG LUU CAC NGAY LE AM LICH*/
;/*****************************************/
;//TET NUYEN TIEU 15/1 AL
;flash unsigned char msg15[]=
;{
;/*------------------------------------------------------------------------------
;; If font display distortion, please check Fonts format of setup.
;; Source file / text :T?t Nguyn tiu
;; Width x Height (pixels) :112X16
;;  Font Format/Size : Monochrome LCD Fonts ,Horizontal scan ,Big endian order/224Byte
;;  Font make date  : 12/23/2013 10:37:30 AM
;------------------------------------------------------------------------------*/
;0x70,0x10,0x0E,//Width pixels,Height pixels,Width bytes
;0x00,0x00,0x10,0x00,0x00,0x00,0x00,0x00,0x00,0x00,0x00,0x00,0x00,0x00,0x00,0x00,
;0x20,0x00,0x00,0x00,0x00,0x00,0x00,0x00,0x00,0x00,0x00,0x00,0x3F,0xC3,0x80,0x0F,
;0x9F,0x00,0x00,0x00,0x1C,0x00,0x00,0x30,0xE0,0x00,0x26,0x42,0x80,0x03,0x84,0x00,
;0x00,0x00,0x14,0x00,0x00,0x30,0xA0,0x00,0x26,0x44,0x44,0x02,0xC4,0x00,0x00,0x00,
;0x22,0x00,0x02,0x01,0x10,0x00,0x06,0x00,0x0C,0x02,0x64,0x00,0x00,0x00,0x00,0x00,
;0x06,0x00,0x00,0x00,0x06,0x07,0x9F,0x02,0x64,0x3F,0x6E,0xF7,0x3C,0xEC,0x0F,0xB1,
;0xE7,0x70,0x06,0x0C,0xCC,0x02,0x34,0x66,0x66,0x62,0x66,0x76,0x06,0x33,0x33,0x30,
;0x06,0x0c,0xcc,0x02,0x1c,0x66,0x66,0x74,0x66,0x66,0x06,0x33,0x33,0x30,0x06,0x0F,  //
;0xCC,0x02,0x1C,0x66,0x66,0x34,0x7E,0x66,0x06,0x33,0xF3,0x30,0x06,0x0C,0x0C,0x02,
;0x0C,0x3C,0x66,0x38,0x60,0x66,0x06,0x33,0x03,0x30,0x06,0x0C,0x4D,0x02,0x04,0x40,
;0x66,0x18,0x62,0x66,0x06,0xB3,0x13,0x30,0x1F,0x87,0x86,0x0F,0x84,0x7E,0x3F,0x18,
;0x3C,0xF7,0x03,0x39,0xE1,0xF8,0x00,0x00,0x00,0x00,0x00,0x7F,0x00,0x10,0x00,0x00,
;0x00,0x00,0x00,0x00,0x00,0x00,0x00,0x00,0x00,0x41,0x00,0xD0,0x00,0x00,0x00,0x00,
;0x00,0x00,0x00,0x00,0x00,0x00,0x00,0x3E,0x00,0xE0,0x00,0x00,0x00,0x00,0x00,0x00,
;};
;
;/******************************************/
;//GIO TO HUNG VUONG 10/3 AL
;flash unsigned char msg16[]=
;{
;/*------------------------------------------------------------------------------
;; If font display distortion, please check Fonts format of setup.
;; Source file / text :Gi? T? Hng Vuong
;; Width x Height (pixels) :136X16
;;  Font Format/Size : Monochrome LCD Fonts ,Horizontal scan ,Big endian order/272Byte
;;  Font make date  : 12/23/2013 9:52:48 AM
;------------------------------------------------------------------------------*/
;0x88,0x10,0x11,//Width pixels,Height pixels,Width bytes
;0x00,0x00,0x64,0x00,0x00,0x1E,0x00,0x00,0x00,0x00,0x00,0x00,0x00,0x00,0x00,0x00,
;0x00,0x00,0x00,0x5C,0x00,0x00,0x02,0x00,0x00,0x00,0x00,0x00,0x00,0x00,0x00,0x00,
;0x00,0x00,0x00,0x00,0x00,0x00,0x00,0x0C,0x00,0x00,0x00,0x00,0x00,0x00,0x00,0x00,
;0x00,0x00,0x00,0x1C,0x8C,0x38,0x0F,0xF0,0xE0,0x7C,0xF8,0x00,0x00,0x00,0x7C,0x70,
;0x00,0x00,0x00,0x00,0x63,0x8C,0x28,0x09,0x90,0xA0,0x18,0x60,0x80,0x00,0x00,0x18,
;0x20,0x00,0x00,0x00,0x00,0x61,0x80,0x44,0x09,0x91,0x10,0x18,0x60,0x40,0x00,0x00,
;0x18,0x20,0x00,0x00,0x00,0x00,0xC0,0x80,0x00,0x01,0x80,0x00,0x18,0x60,0x00,0x00,
;0x00,0x0C,0x40,0x00,0x06,0x00,0x00,0xC0,0x1C,0x78,0x01,0x81,0xE0,0x18,0x67,0x77,
;0x61,0xF8,0x0C,0x4E,0xE8,0xF2,0xD8,0x7E,0xc0,0x0c,0xcc,0x01,0x83,0x30,0x1f,0xe3,
;0x33,0xb3,0x30,0x0c,0x86,0x69,0x9c,0xec,0xcc,0xC3,0xCC,0xCC,0x01,0x83,0x30,0x18,
;0x63,0x33,0x33,0x30,0x06,0x86,0x79,0x98,0xCC,0xCC,0xC1,0x8C,0xCC,0x01,0x83,0x30,
;0x18,0x63,0x33,0x33,0x30,0x06,0x86,0x61,0x98,0xCC,0xCC,0x61,0x8C,0xCC,0x01,0x83,
;0x30,0x18,0x63,0x33,0x31,0xE0,0x03,0x06,0x61,0x98,0xCC,0x78,0x61,0x8C,0xCC,0x01,
;0x83,0x30,0x18,0x63,0x33,0x32,0x00,0x03,0x06,0x61,0x98,0xCC,0x80,0x1F,0x1E,0x78,
;0x07,0xE1,0xE0,0x7C,0xF9,0xFB,0xBB,0xF0,0x03,0x03,0xF0,0xF1,0xEE,0xFC,0x00,0x00,
;0x00,0x00,0x00,0x00,0x00,0x00,0x00,0x03,0xF8,0x00,0x00,0x00,0x00,0x00,0xFE,0x00,
;0x00,0x00,0x00,0x00,0x00,0x00,0x00,0x00,0x02,0x08,0x00,0x00,0x00,0x00,0x00,0x82,
;};
;/******************************************/
;//LE PHAT DAN 15/4 AL
;flash unsigned char msg17[]=
;{
;/*------------------------------------------------------------------------------
;; If font display distortion, please check Fonts format of setup.
;; Source file / text :L? Ph?t ?n
;; Width x Height (pixels) :88X16
;;  Font Format/Size : Monochrome LCD Fonts ,Horizontal scan ,Big endian order/176Byte
;;  Font make date  : 12/23/2013 10:10:28 AM
;------------------------------------------------------------------------------*/
;0x58,0x10,0x0B,//Width pixels,Height pixels,Width bytes
;0x00,0x03,0x20,0x00,0x00,0x00,0x00,0x00,0x00,0x00,0x00,0x00,0x02,0xE0,0x00,0x00,
;0x00,0x00,0x00,0x00,0x00,0x00,0x00,0x00,0x00,0x00,0x00,0x00,0x00,0x00,0x00,0x00,
;0x00,0x3F,0x01,0xC0,0xFF,0x30,0x0E,0x00,0x3F,0xC0,0xF0,0x00,0x0C,0x01,0x40,0x31,
;0xB0,0x0A,0x00,0x0C,0x60,0x10,0x00,0x0C,0x02,0x20,0x31,0xB0,0x11,0x10,0x0C,0x30,
;0x60,0x00,0x0C,0x00,0x00,0x31,0xB0,0x00,0x30,0x0C,0x18,0x00,0x00,0x0C,0x03,0xC0,
;0x31,0xB6,0x1E,0x7C,0x0C,0x18,0xF3,0xB0,0x0c,0x06,0x60,0x3f,0x3b,0x33,0x30,0x3f,
;0x99,0x99,0xd8,0x0C,0x06,0x60,0x30,0x33,0x03,0x30,0x0C,0x18,0x19,0x98,0x0C,0x07,
;0xE0,0x30,0x33,0x1F,0x30,0x0C,0x18,0xF9,0x98,0x0C,0x26,0x00,0x30,0x33,0x33,0x30,
;0x0C,0x31,0x99,0x98,0x0C,0x26,0x20,0x30,0x33,0x33,0x34,0x0C,0x61,0x99,0x98,0x3F,
;0xE3,0xC0,0xFC,0x7B,0x9F,0x98,0x3F,0xC0,0xFD,0xDC,0x00,0x00,0x00,0x00,0x00,0x00,
;0x00,0x00,0x00,0x00,0x00,0x00,0x00,0x00,0x00,0x00,0x0C,0x00,0x00,0x00,0x00,0x00,
;};
;/********************************************/
;//TET DOAN NGO 5/5 AL
;flash unsigned char msg18[]=
;{
;/*------------------------------------------------------------------------------
;; If font display distortion, please check Fonts format of setup.
;; Source file / text :T?t oan Ng?
;; Width x Height (pixels) :96X16
;;  Font Format/Size : Monochrome LCD Fonts ,Horizontal scan ,Big endian order/192Byte
;;  Font make date  : 12/23/2013 10:18:27 AM
;------------------------------------------------------------------------------*/
;0x60,0x10,0x0C,//Width pixels,Height pixels,Width bytes
;0x00,0x00,0x20,0x00,0x00,0x00,0x00,0x00,0x00,0x00,0x00,0x00,0x00,0x00,0x40,0x00,
;0x00,0x00,0x00,0x00,0x00,0x00,0x00,0x00,0x7F,0x87,0x00,0x1F,0xE0,0x00,0x00,0x00,
;0x1F,0x3E,0x00,0x00,0x4C,0x85,0x00,0x06,0x30,0x00,0x00,0x00,0x07,0x08,0x00,0x00,
;0x4C,0x88,0x88,0x06,0x18,0x00,0x00,0x00,0x05,0x88,0x00,0x00,0x0C,0x00,0x18,0x06,
;0x0C,0x00,0x00,0x00,0x04,0xC8,0x00,0x00,0x0C,0x0F,0x3E,0x06,0x0C,0x78,0x79,0xD8,
;0x04,0xC8,0x7E,0x78,0x0C,0x19,0x98,0x1F,0xCC,0xCC,0xCC,0xEC,0x04,0x68,0xCC,0xCC,
;0x0c,0x19,0x98,0x06,0x0c,0xcc,0x0c,0xcc,0x04,0x38,0xcc,0xcc,0x0C,0x1F,0x98,0x06,  //
;0x0C,0xCC,0x7C,0xCC,0x04,0x38,0xCC,0xCC,0x0C,0x18,0x18,0x06,0x18,0xCC,0xCC,0xCC,
;0x04,0x18,0x78,0xCC,0x0C,0x18,0x9A,0x06,0x30,0xCC,0xCC,0xCC,0x04,0x08,0x80,0xCC,
;0x3F,0x0F,0x0C,0x1F,0xE0,0x78,0x7E,0xEE,0x1F,0x08,0xFC,0x78,0x00,0x00,0x00,0x00,
;0x00,0x00,0x00,0x00,0x00,0x00,0xFE,0x00,0x00,0x00,0x00,0x00,0x00,0x00,0x00,0x00,
;0x00,0x00,0x82,0x30,0x00,0x00,0x00,0x00,0x00,0x00,0x00,0x00,0x00,0x00,0x7C,0x30,
;};
;/******************************************/
;//LE VU LAN 15/7 AL
;flash unsigned char msg19[]=
;{
;/*------------------------------------------------------------------------------
;; If font display distortion, please check Fonts format of setup.
;; Source file / text :L? Vu Lan
;; Width x Height (pixels) :72X16
;;  Font Format/Size : Monochrome LCD Fonts ,Horizontal scan ,Big endian order/144Byte
;;  Font make date  : 12/23/2013 10:23:29 AM
;------------------------------------------------------------------------------*/
;0x48,0x10,0x09,//Width pixels,Height pixels,Width bytes
;0x00,0x06,0x40,0x00,0x00,0x00,0x00,0x00,0x00,0x00,0x05,0xC0,0x00,0x00,0x00,0x00,
;0x00,0x00,0x00,0x00,0x00,0x00,0x00,0x00,0x00,0x00,0x00,0x7E,0x03,0x81,0xF1,0xC0,
;0x03,0xF0,0x00,0x00,0x18,0x02,0x80,0x60,0x80,0x00,0xC0,0x00,0x00,0x18,0x04,0x40,
;0x60,0x80,0x00,0xC0,0x00,0x00,0x18,0x00,0x00,0x31,0x00,0x00,0xC0,0x00,0x00,0x18,
;0x07,0x80,0x31,0x3B,0x80,0xC0,0x3C,0xEC,0x18,0x0c,0xc0,0x32,0x19,0x80,0xc0,0x66, //
;0x76,0x18,0x0C,0xC0,0x1A,0x19,0x80,0xC0,0x06,0x66,0x18,0x0F,0xC0,0x1A,0x19,0x80,
;0xC0,0x3E,0x66,0x18,0x4C,0x00,0x0C,0x19,0x80,0xC2,0x66,0x66,0x18,0x4C,0x40,0x0C,
;0x19,0x80,0xC2,0x66,0x66,0x7F,0xC7,0x80,0x0C,0x0F,0xC3,0xFE,0x3F,0x77,0x00,0x00,
;0x00,0x00,0x00,0x00,0x00,0x00,0x00,0x00,0x00,0x00,0x00,0x00,0x00,0x00,0x00,0x00,
;};
;/********************************************/
;//TET TRUNG THU 15/8 AL
;flash unsigned char msg20[]=
;{
;/*------------------------------------------------------------------------------
;; If font display distortion, please check Fonts format of setup.
;; Source file / text :T?t Trung Thu
;; Width x Height (pixels) :96X16
;;  Font Format/Size : Monochrome LCD Fonts ,Horizontal scan ,Big endian order/192Byte
;;  Font make date  : 12/23/2013 10:29:07 AM
;------------------------------------------------------------------------------*/
;0x60,0x10,0x0C,//Width pixels,Height pixels,Width bytes
;0x00,0x00,0x40,0x00,0x00,0x00,0x00,0x00,0x00,0x00,0x00,0x00,0x00,0x00,0x80,0x00,
;0x00,0x00,0x00,0x00,0x00,0x00,0x00,0x00,0xFF,0x0E,0x00,0x1F,0xE0,0x00,0x00,0x00,
;0x01,0xFE,0xE0,0x00,0xDB,0x0A,0x00,0x1B,0x60,0x00,0x00,0x00,0x01,0xB6,0x60,0x00,
;0x99,0x11,0x10,0x13,0x20,0x00,0x00,0x00,0x01,0x32,0x60,0x00,0x18,0x00,0x30,0x03,
;0x00,0x00,0x00,0x00,0x00,0x30,0x60,0x00,0x18,0x1E,0x7C,0x03,0x0E,0xDB,0xBB,0x0F,
;0xC0,0x30,0x6C,0xEE,0x18,0x33,0x30,0x03,0x07,0x59,0x9D,0x99,0x80,0x30,0x76,0x66,
;0x18,0x33,0x30,0x03,0x06,0x19,0x99,0x99,0x80,0x30,0x66,0x66,0x18,0x3F,0x30,0x03, //
;0x06,0x19,0x99,0x99,0x80,0x30,0x66,0x66,0x18,0x30,0x30,0x03,0x06,0x19,0x99,0x8F,
;0x00,0x30,0x66,0x66,0x18,0x31,0x34,0x03,0x06,0x19,0x99,0x90,0x00,0x30,0x66,0x66,
;0x7E,0x1E,0x18,0x0F,0xCF,0x0F,0xDD,0xDF,0x80,0xFC,0xF7,0x3F,0x00,0x00,0x00,0x00,
;0x00,0x00,0x00,0x1F,0xC0,0x00,0x00,0x00,0x00,0x00,0x00,0x00,0x00,0x00,0x00,0x10,
;0x40,0x00,0x00,0x00,0x00,0x00,0x00,0x00,0x00,0x00,0x00,0x0F,0x80,0x00,0x00,0x00,
;};
;
;
;/***************************************/
;/******************************************/
;/*MANG LUU NGA LE DUONG LICH*/
;/******************************************/
;//NGAY HOC SINH SINH VIEN VIET NAM 9/1
;flash unsigned char msg21[]=
;{
;/*------------------------------------------------------------------------------
;; If font display distortion, please check Fonts format of setup.
;; Source file / text :Ngy truy?n th?ng h?c sinh, sinh vin Vi?t Nam
;; Width x Height (pixels) :320X16
;;  Font Format/Size : Monochrome LCD Fonts ,Horizontal scan ,Big endian order/640Byte
;;  Font make date  : 12/23/2013 10:42:24 AM
;------------------------------------------------------------------------------*/
;0x40,0x10,0x28,//Width pixels,Height pixels,Width bytes
;0x00,0x00,0x00,0x00,0x00,0x00,0x00,0x00,0x00,0x20,0x00,0x00,0x00,0x04,0x00,0x00,
;0x00,0x00,0x00,0x00,0x00,0x00,0x00,0x00,0x00,0x00,0x00,0x00,0x00,0x00,0x00,0x00,
;0x00,0x00,0x00,0x00,0x00,0x00,0x00,0x00,0x00,0x00,0x00,0x00,0x00,0x00,0x00,0x00,
;0x00,0x10,0x00,0x00,0x00,0x08,0x00,0x00,0x00,0x00,0x00,0x00,0x00,0x00,0x00,0x00,
;0x00,0x00,0x00,0x00,0x00,0x00,0x00,0x00,0x00,0x00,0x00,0x00,0x00,0x00,0x00,0x00,
;0x7C,0xF8,0x00,0x00,0x00,0x00,0x00,0x00,0x01,0xC0,0x00,0x07,0x00,0xE0,0x00,0x00,
;0x70,0x00,0x00,0x00,0x0C,0x01,0xC0,0x00,0x01,0x80,0x38,0x00,0x01,0x87,0x00,0x03,
;0xE3,0xB0,0xE0,0x03,0xE7,0xC0,0x00,0x00,0x1C,0x20,0x00,0x80,0x00,0x00,0x00,0x00,
;0x01,0x40,0x00,0x03,0x00,0xA0,0x00,0x00,0x30,0x00,0x00,0x00,0x0C,0x00,0xC0,0x00,
;0x01,0x80,0x18,0x00,0x01,0x85,0x00,0x00,0xC1,0x30,0xA0,0x00,0xE1,0x00,0x00,0x00,
;0x16,0x20,0x00,0x40,0x00,0x10,0x00,0x00,0x02,0x20,0x00,0x23,0x01,0x10,0x00,0x00,
;0x30,0x00,0x00,0x00,0x00,0x00,0xC0,0x00,0x00,0x00,0x18,0x00,0x00,0x08,0x80,0x00,
;0xC1,0x01,0x11,0x00,0xB1,0x00,0x00,0x00,0x13,0x20,0x00,0x00,0x00,0x30,0x00,0x00,
;0x00,0x00,0x00,0x63,0x00,0x00,0x00,0x00,0x30,0x00,0x00,0x00,0x00,0x00,0xC0,0x00,
;0x00,0x00,0x18,0x00,0x00,0x00,0x00,0x00,0x62,0x00,0x03,0x00,0x99,0x00,0x00,0x00,
;0x13,0x21,0xF9,0xE7,0xB8,0x7D,0xB6,0xEF,0x73,0xCE,0xC0,0xFB,0x61,0xE7,0x61,0xF8,
;0x36,0x1E,0x1E,0x03,0xDD,0xD8,0xD8,0x00,0x7B,0xBB,0x1B,0x03,0xDD,0x8F,0x3B,0x00,
;0x62,0x71,0xE7,0xC0,0x99,0x0F,0x3B,0x30,0x11,0xA3,0x33,0x33,0x10,0x31,0xD6,0x66,
;0x26,0x67,0x60,0x63,0xB3,0x33,0xB3,0x30,0x3B,0x33,0x36,0x06,0x4C,0xEC,0xEC,0x00,
;0xC9,0x9D,0x9D,0x81,0x89,0x99,0x9D,0x80,0x64,0x33,0x33,0x00,0x8D,0x19,0x9D,0xD8,
;0x10,0xe3,0x30,0x33,0xa0,0x31,0x86,0x63,0x47,0xe6,0x60,0x63,0x33,0x33,0x33,0x30, //
;0x33,0x33,0x30,0x03,0x8c,0xcc,0xcc,0x00,0x71,0x99,0x99,0x80,0xd1,0x9f,0x99,0x80,
;0x34,0x33,0xf3,0x00,0x87,0x0f,0x99,0x98,0x10,0xE3,0x31,0xF1,0xA0,0x31,0x86,0x63,
;0x47,0xE6,0x60,0x63,0x33,0x33,0x33,0x30,0x33,0x33,0x30,0x03,0x8C,0xCC,0xCC,0x00,
;0x71,0x99,0x99,0x80,0xD1,0x9F,0x99,0x80,0x34,0x33,0xF3,0x00,0x87,0x0F,0x99,0x98,
;0x10,0x61,0xE3,0x31,0xC0,0x31,0x86,0x63,0x86,0x06,0x60,0x63,0x33,0x33,0x31,0xE0,
;0x33,0x33,0x30,0x01,0xCC,0xCC,0xCC,0x00,0x39,0x99,0x99,0x80,0xD1,0x98,0x19,0x80,
;0x18,0x33,0x03,0x00,0x83,0x19,0x99,0x98,0x10,0x22,0x03,0x30,0xC0,0x35,0x86,0x61,
;0x86,0x26,0x60,0x6B,0x33,0x33,0x32,0x00,0x33,0x33,0x32,0x04,0xCC,0xCC,0xCC,0x60,
;0x99,0x99,0x99,0x80,0x61,0x98,0x99,0x80,0x18,0x33,0x13,0x40,0x81,0x19,0x99,0x98,
;0x7C,0x23,0xF1,0xF8,0xC0,0x19,0xC3,0xF1,0x83,0xCF,0x70,0x37,0xB9,0xE7,0xBB,0xF0,
;0x7B,0x9E,0x1C,0x07,0x9E,0xEE,0xEE,0x60,0xF3,0xDD,0xDD,0xC0,0x63,0xCF,0x3D,0xC0,
;0x18,0x79,0xE1,0x83,0xE1,0x0F,0xDD,0xDC,0x00,0x03,0xF8,0x00,0x80,0x00,0x00,0x01,
;0x00,0x00,0x00,0x00,0x00,0x00,0x03,0xF8,0x00,0x00,0x00,0x00,0x00,0x00,0x00,0x20,
;0x00,0x00,0x00,0x00,0x00,0x00,0x00,0x00,0x00,0x00,0x00,0x00,0x00,0x00,0x00,0x00,
;0x00,0x02,0x08,0x06,0x80,0x00,0x00,0x0D,0x00,0x00,0x00,0x00,0x00,0x00,0x02,0x08,
;0x00,0x0C,0x00,0x00,0x00,0x00,0x00,0x20,0x00,0x00,0x00,0x00,0x00,0x00,0x00,0x00,
;0x00,0x00,0xC0,0x00,0x00,0x00,0x00,0x00,0x00,0x01,0xF0,0x07,0x00,0x00,0x00,0x0E,
;0x00,0x00,0x00,0x00,0x00,0x00,0x01,0xF0,0x00,0x0C,0x00,0x00,0x00,0x00,0x00,0x40,
;0x00,0x00,0x00,0x00,0x00,0x00,0x00,0x00,0x00,0x00,0xC0,0x00,0x00,0x00,0x00,0x00,
;};
;
;///******************************************/
;//THANH LAP DANG CONG SAN VIET NAM 3/2
;flash unsigned char msg22[]=
;{
;/*------------------------------------------------------------------------------
;; If font display distortion, please check Fonts format of setup.
;; Source file / text :Thnh l?p ?ng c?ng s?n Vi?t Nam
;; Width x Height (pixels) :240X16
;;  Font Format/Size : Monochrome LCD Fonts ,Horizontal scan ,Big endian order/480Byte
;;  Font make date  : 12/23/2013 10:55:00 AM
;------------------------------------------------------------------------------*/
;0xF0,0x10,0x1E,//Width pixels,Height pixels,Width bytes
;0x00,0x00,0x00,0x00,0x00,0x00,0x00,0x00,0x00,0x00,0x00,0x00,0x00,0x00,0x00,0x00,
;0x00,0x00,0x00,0x00,0x00,0x00,0x00,0x00,0x00,0x00,0x00,0x00,0x00,0x00,0x00,0x00,
;0x00,0x00,0x00,0x00,0x00,0x00,0x00,0x00,0x00,0x00,0x00,0x00,0x00,0x00,0x00,0x00,
;0x00,0x00,0x00,0x00,0x00,0x00,0x00,0x00,0x00,0x00,0x00,0x00,0x3F,0xDC,0x00,0x00,
;0x1C,0x01,0xC3,0x80,0x01,0xFE,0x07,0x80,0x00,0x00,0x00,0x70,0x00,0x00,0x00,0x1E,
;0x00,0x07,0xC7,0x61,0xC0,0x07,0xCF,0x80,0x00,0x00,0x36,0xCC,0x02,0x00,0x0C,0x00,
;0xC2,0x80,0x00,0x63,0x00,0x80,0x00,0x00,0x00,0x50,0x00,0x00,0x00,0x02,0x00,0x01,
;0x82,0x61,0x40,0x01,0xC2,0x00,0x00,0x00,0x26,0x4C,0x01,0x00,0x0C,0x00,0xC4,0x40,
;0x00,0x61,0x83,0x00,0x00,0x00,0x00,0x88,0x00,0x00,0x00,0x0C,0x00,0x01,0x82,0x02,
;0x22,0x01,0x62,0x00,0x00,0x00,0x06,0x0C,0x00,0x00,0x0C,0x00,0xC0,0x00,0x00,0x60,
;0xC0,0x00,0x00,0x00,0x00,0x00,0x00,0x00,0x00,0x00,0x00,0x00,0xC4,0x00,0x06,0x01,
;0x32,0x00,0x00,0x00,0x06,0x0D,0x87,0x9D,0x8D,0x80,0xC7,0x9F,0x80,0x60,0xC7,0x9D,
;0x87,0xE0,0x78,0xF3,0xB0,0xFC,0x0F,0x1E,0x76,0x00,0xC4,0xE3,0xCF,0x81,0x32,0x1E,
;0x76,0x60,0x06,0x0E,0xCC,0xCE,0xCE,0xC0,0xCC,0xCC,0xC1,0xFC,0xCC,0xCE,0xCC,0xC0,
;0xD9,0x99,0xD9,0x98,0x19,0x33,0x3B,0x00,0xC8,0x66,0x66,0x01,0x1A,0x33,0x3B,0xB0,
;0x06,0x0c,0xc0,0xcc,0xcc,0xc0,0xc0,0xcc,0xc0,0x60,0xc0,0xcc,0xcc,0xc0,0xc1,0x99,  //
;0x99,0x98,0x1c,0x03,0x33,0x00,0x68,0x66,0x66,0x01,0x0e,0x03,0x33,0x30,0x06,0x0C,
;0xC7,0xCC,0xCC,0xC0,0xC7,0xCC,0xC0,0x60,0xC7,0xCC,0xCC,0xC0,0xC1,0x99,0x99,0x98,
;0x0E,0x1F,0x33,0x00,0x68,0x67,0xE6,0x01,0x0E,0x1F,0x33,0x30,0x06,0x0C,0xCC,0xCC,
;0xCC,0xC0,0xCC,0xCC,0xC0,0x61,0x8C,0xCC,0xC7,0x80,0xC1,0x99,0x98,0xF0,0x07,0x33,
;0x33,0x00,0x30,0x66,0x06,0x01,0x06,0x33,0x33,0x30,0x06,0x0C,0xCC,0xCC,0xCC,0xC0,
;0xCC,0xCC,0xC0,0x63,0x0C,0xCC,0xC8,0x00,0xC9,0x99,0x99,0x00,0x13,0x33,0x33,0x00,
;0x30,0x66,0x26,0x81,0x02,0x33,0x33,0x30,0x1F,0x9E,0xE7,0xEE,0xEE,0xE1,0xE7,0xEF,
;0x81,0xFE,0x07,0xEE,0xEF,0xC0,0x70,0xF3,0xDD,0xF8,0x1E,0x1F,0xBB,0x80,0x30,0xF3,
;0xC3,0x07,0xC2,0x1F,0xBB,0xB8,0x00,0x00,0x00,0x00,0x00,0x00,0x00,0x0C,0x00,0x00,
;0x00,0x00,0x0F,0xE0,0x00,0x00,0x01,0xFC,0x00,0x00,0x00,0x00,0x00,0x00,0x00,0x00,
;0x00,0x00,0x00,0x00,0x00,0x00,0x00,0x00,0x00,0x00,0x03,0x0C,0x00,0x00,0x00,0x00,
;0x08,0x20,0x00,0x60,0x01,0x04,0x00,0x00,0x00,0x00,0x00,0x01,0x80,0x00,0x00,0x00,
;0x00,0x00,0x00,0x00,0x00,0x00,0x00,0x00,0x03,0x1E,0x00,0x00,0x00,0x00,0x07,0xC0,
;0x00,0x60,0x00,0xF8,0x00,0x00,0x00,0x00,0x00,0x01,0x80,0x00,0x00,0x00,0x00,0x00,
;};
;
;/********************************************/
;//NGAY THAY THUOC VIET NAM 27/2
;flash unsigned char msg23[]=
;{
;/*------------------------------------------------------------------------------
;; If font display distortion, please check Fonts format of setup.
;; Source file / text :Ngy th?y thu?c Vi?t Nam
;; Width x Height (pixels) :184X16
;;  Font Format/Size : Monochrome LCD Fonts ,Horizontal scan ,Big endian order/368Byte
;;  Font make date  : 12/23/2013 11:27:48 AM
;------------------------------------------------------------------------------*/
;0xB8,0x10,0x17,//Width pixels,Height pixels,Width bytes
;0x00,0x00,0x00,0x00,0x00,0x00,0x00,0x02,0x00,0x00,0x00,0x00,0x00,0x40,0x00,0x00,
;0x00,0x00,0x00,0x00,0x00,0x00,0x00,0x00,0x00,0x00,0x00,0x00,0x00,0x00,0x01,0x00,
;0x00,0x00,0x00,0x00,0x80,0x00,0x00,0x00,0x00,0x00,0x00,0x00,0x00,0x00,0x1F,0x3E,
;0x00,0x00,0x00,0x00,0xE0,0x1C,0x00,0x00,0x70,0x00,0x0E,0x00,0x0F,0x8E,0xC3,0x80,
;0x0F,0x9F,0x00,0x00,0x00,0x07,0x08,0x00,0x20,0x00,0x00,0x60,0x14,0x00,0x00,0x30,
;0x00,0x0A,0x00,0x03,0x04,0xC2,0x80,0x03,0x84,0x00,0x00,0x00,0x05,0x88,0x00,0x10,
;0x00,0x04,0x60,0x22,0x00,0x02,0x30,0x00,0x11,0x00,0x03,0x04,0x04,0x44,0x02,0xC4,
;0x00,0x00,0x00,0x04,0xC8,0x00,0x00,0x00,0x0C,0x60,0x00,0x00,0x06,0x30,0x00,0x00,
;0x00,0x01,0x88,0x00,0x0C,0x02,0x64,0x00,0x00,0x00,0x04,0xC8,0x7E,0x79,0xEE,0x1F,
;0x6C,0x3C,0xF7,0x0F,0xB6,0x77,0x1E,0x1E,0x01,0x89,0xC7,0x9F,0x02,0x64,0x3C,0xEC,
;0xC0,0x04,0x68,0xCC,0xCC,0xC4,0x0C,0x76,0x66,0x62,0x06,0x3B,0x33,0x33,0x36,0x01,
;0x90,0xCC,0xCC,0x02,0x34,0x66,0x77,0x60,0x04,0x38,0xcc,0x0c,0xe8,0x0c,0x66,0x06, //
;0x74,0x06,0x33,0x33,0x33,0x30,0x00,0xd0,0xcc,0xcc,0x02,0x1c,0x06,0x66,0x60,0x04,
;0x38,0xCC,0x7C,0x68,0x0C,0x66,0x3E,0x34,0x06,0x33,0x33,0x33,0x30,0x00,0xD0,0xCF,
;0xCC,0x02,0x1C,0x3E,0x66,0x60,0x04,0x18,0x78,0xCC,0x70,0x0C,0x66,0x66,0x38,0x06,
;0x33,0x33,0x33,0x30,0x00,0x60,0xCC,0x0C,0x02,0x0C,0x66,0x66,0x60,0x04,0x08,0x80,
;0xCC,0x30,0x0D,0x66,0x66,0x18,0x06,0xB3,0x33,0x33,0x32,0x00,0x60,0xCC,0x4D,0x02,
;0x04,0x66,0x66,0x60,0x1F,0x08,0xFC,0x7E,0x30,0x06,0x77,0x3F,0x18,0x03,0x3B,0x9F,
;0x9E,0x1C,0x00,0x61,0xE7,0x86,0x0F,0x84,0x3F,0x77,0x70,0x00,0x00,0xFE,0x00,0x20,
;0x00,0x00,0x00,0x10,0x00,0x00,0x00,0x00,0x00,0x00,0x00,0x00,0x00,0x00,0x00,0x00,
;0x00,0x00,0x00,0x00,0x82,0x01,0xA0,0x00,0x00,0x00,0xD0,0x00,0x00,0x00,0x00,0x00,
;0x00,0x00,0x03,0x00,0x00,0x00,0x00,0x00,0x00,0x00,0x00,0x7C,0x01,0xC0,0x00,0x00,
;0x00,0xE0,0x00,0x00,0x00,0x00,0x00,0x00,0x00,0x03,0x00,0x00,0x00,0x00,0x00,0x00,
;};
;
;/******************************************/
;//NGAY LE TINH YEU 14/2
;flash unsigned char msg24[]=
;{
;/*------------------------------------------------------------------------------
;; If font display distortion, please check Fonts format of setup.
;; Source file / text :Ngy l? tnh yu
;; Width x Height (pixels) :112X16
;;  Font Format/Size : Monochrome LCD Fonts ,Horizontal scan ,Big endian order/224Byte
;;  Font make date  : 12/23/2013 11:37:37 AM
;------------------------------------------------------------------------------*/
;0x70,0x10,0x0E,//Width pixels,Height pixels,Width bytes
;0x00,0x00,0x00,0x00,0x00,0x00,0x0C,0x80,0x00,0x00,0x00,0x00,0x00,0x00,0x00,0x00,
;0x00,0x00,0x00,0x00,0x0B,0x80,0x00,0x00,0x00,0x00,0x00,0x00,0x7C,0xF8,0x00,0x00,
;0x00,0x70,0xE0,0x00,0x00,0x38,0x00,0x00,0x70,0x00,0x1C,0x20,0x00,0x80,0x00,0x30,
;0xA0,0x01,0x00,0x18,0x00,0x00,0x50,0x00,0x16,0x20,0x00,0x40,0x00,0x31,0x10,0x10,
;0x80,0x18,0x00,0x00,0x88,0x00,0x13,0x20,0x00,0x00,0x00,0x30,0x00,0x30,0x00,0x18,
;0x00,0x00,0x00,0x00,0x13,0x21,0xF9,0xE7,0xB8,0x31,0xE0,0x7D,0xBB,0x1B,0x03,0xDC,
;0xF3,0xB8,0x11,0xA3,0x33,0x33,0x10,0x33,0x30,0x31,0x9D,0x9D,0x81,0x89,0x99,0x98,
;0x10,0xe3,0x30,0x33,0xa0,0x33,0x30,0x31,0x99,0x99,0x81,0xd1,0x99,0x98,0x10,0xE3, ///
;0x31,0xF1,0xA0,0x33,0xF0,0x31,0x99,0x99,0x80,0xD1,0xF9,0x98,0x10,0x61,0xE3,0x31,
;0xC0,0x33,0x00,0x31,0x99,0x99,0x80,0xE1,0x81,0x98,0x10,0x22,0x03,0x30,0xC0,0x33,
;0x10,0x35,0x99,0x99,0x80,0x61,0x89,0x98,0x7C,0x23,0xF1,0xF8,0xC0,0x79,0xE0,0x19,
;0xDD,0xDD,0xC0,0x60,0xF0,0xFC,0x00,0x03,0xF8,0x00,0x80,0x00,0x00,0x00,0x00,0x00,
;0x00,0x40,0x00,0x00,0x00,0x02,0x08,0x06,0x80,0x00,0x00,0x00,0x00,0x00,0x03,0x40,
;0x00,0x00,0x00,0x01,0xF0,0x07,0x00,0x00,0x00,0x00,0x00,0x00,0x03,0x80,0x00,0x00,
;};
;/*******************/
;// I trai tim U 14/2
;flash unsigned  char msg25[]=
;{
;0x48,0x0E,0x09,//Width pixels,Height pixels,Width bytes
;0xC3,0xC3,0x0F,0xFF,0xFF,0xFF,0xF0,0xF0,0xC3,0x81,0x98,0x67,0x8F,0x1F,0xFF,0xE0,
;0x66,0x19,0x00,0x0C,0x33,0x76,0xE9,0xE3,0xC1,0x13,0x0C,0x07,0xC4,0x12,0xF9,0xD6,
;0xDD,0xC1,0x11,0x04,0x01,0x04,0x12,0xDF,0xD7,0x3A,0xC1,0x11,0x04,0x01,0x00,0x02,
;0xEF,0xD5,0xFA,0xC1,0x10,0x00,0x81,0x00,0x06,0xEF,0x91,0xFA,0xE1,0x10,0x01,0xC1,
;0x00,0x0F,0x6B,0x2D,0xF2,0xF1,0x10,0x03,0xE1,0x00,0x1F,0xB6,0x4D,0x65,0xF8,0xE0,
;0x07,0xF7,0xC0,0x3F,0xCC,0xB6,0xCB,0xFC,0x00,0x0F,0xF8,0x00,0x7F,0xED,0x7B,0x97,
;0xFE,0x00,0x1F,0xFC,0x30,0xFF,0xF4,0xFD,0xAF,0xFF,0x0C,0x3F,0xFE,0x79,0xFF,0xF9,
;0xFE,0xDF,0xFF,0x9E,0x7F,0xFE,0xFB,0xFF,0xFF,0xFF,0x3F,0xFF,0xBE,0xFF,
;};
;
;///*********************************************/
;// QUOC TE PHU NU 8/3
;flash unsigned char msg26[]=
;{
;/*------------------------------------------------------------------------------
;; If font display distortion, please check Fonts format of setup.
;; Source file / text :Ngy Qu?c t? Ph? n?
;; Width x Height (pixels) :143X16
;;  Font Format/Size : Monochrome LCD Fonts ,Horizontal scan ,Big endian order/288Byte
;;  Font make date  : 12/23/2013 11:51:36 AM
;------------------------------------------------------------------------------*/
;0x8F,0x10,0x12,//Width pixels,Height pixels,Width bytes
;0x00,0x00,0x00,0x00,0x00,0x00,0x00,0x00,0x08,0x00,0x00,0x08,0x00,0x00,0x00,0x00,
;0x00,0x00,0x00,0x00,0x00,0x00,0x00,0x00,0x00,0x00,0x10,0x00,0x00,0x10,0x00,0x00,
;0x00,0x00,0x00,0x00,0xF9,0xF0,0x00,0x00,0x00,0x0F,0x00,0x01,0xC0,0x00,0x01,0xC0,
;0xFF,0x30,0x00,0x00,0x00,0x00,0x38,0x40,0x01,0x00,0x00,0x30,0xC0,0x01,0x40,0x00,
;0x01,0x40,0x31,0xB0,0x00,0x00,0x01,0x90,0x2C,0x40,0x00,0x80,0x00,0x30,0xC0,0x02,
;0x20,0x00,0x42,0x20,0x31,0xB0,0x00,0x00,0x01,0x70,0x26,0x40,0x00,0x00,0x00,0x60,
;0x60,0x00,0x00,0x00,0xC0,0x00,0x31,0xB0,0x00,0x00,0x00,0x00,0x26,0x43,0xF3,0xCF,
;0x70,0x60,0x6E,0xE3,0xC3,0xC1,0xF3,0xC0,0x31,0xB6,0x77,0x07,0x67,0x74,0x23,0x46,
;0x66,0x66,0x20,0x60,0x66,0x66,0x66,0xC0,0xC6,0x60,0x3F,0x3B,0x33,0x03,0xB3,0x34,
;0x21,0xc6,0x60,0x67,0x40,0x60,0x66,0x66,0x66,0x00,0xc6,0x60,0x30,0x33,0x33,0x03, //
;0x33,0x3c,0x21,0xC6,0x63,0xE3,0x40,0x60,0x66,0x66,0x66,0x00,0xC7,0xE0,0x30,0x33,
;0x33,0x03,0x33,0x30,0x20,0xC3,0xC6,0x63,0x80,0x30,0xC6,0x66,0x66,0x00,0xC6,0x00,
;0x30,0x33,0x33,0x03,0x33,0x30,0x20,0x44,0x06,0x61,0x80,0x30,0xC6,0x66,0x66,0x40,
;0xD6,0x20,0x30,0x33,0x33,0x03,0x33,0x30,0xF8,0x47,0xE3,0xF1,0x80,0x0F,0x83,0xF3,
;0xC3,0x80,0x63,0xC0,0xFC,0x7B,0x9F,0x87,0xB9,0xF8,0x00,0x07,0xF0,0x01,0x00,0x03,
;0x00,0x00,0x00,0x00,0x00,0x00,0x00,0x00,0x00,0x00,0x00,0x00,0x00,0x04,0x10,0x0D,
;0x00,0x01,0x80,0x00,0x00,0x00,0x00,0x00,0x00,0x00,0x0C,0x00,0x00,0x00,0x00,0x03,
;0xE0,0x0E,0x00,0x00,0xC0,0x00,0x00,0x00,0x00,0x00,0x00,0x00,0x0C,0x00,0x00,0x00,
;};
;
;/********************************************/
;//NGAY GIAI PHONG MIEN NAM 30/4
;flash unsigned char msg27[]=
;{
;/*------------------------------------------------------------------------------
;; If font display distortion, please check Fonts format of setup.
;; Source file / text :Ngy gi?i phng Mi?n Nam
;; Width x Height (pixels) :184X16
;;  Font Format/Size : Monochrome LCD Fonts ,Horizontal scan ,Big endian order/368Byte
;;  Font make date  : 12/23/2013 11:59:29 AM
;------------------------------------------------------------------------------*/
;0xB8,0x10,0x17,//Width pixels,Height pixels,Width bytes
;0x00,0x00,0x00,0x00,0x00,0x00,0x00,0x00,0x00,0x00,0x00,0x00,0x00,0x00,0x00,0x00,
;0x00,0x20,0x00,0x00,0x00,0x00,0x00,0x00,0x00,0x00,0x00,0x00,0x00,0x00,0x00,0x00,
;0x00,0x00,0x00,0x00,0x00,0x00,0x00,0x00,0x10,0x00,0x00,0x00,0x00,0x00,0xF9,0xF0,
;0x00,0x00,0x00,0x00,0x63,0xC6,0x00,0x0E,0x00,0x00,0x00,0x00,0xF8,0x1F,0x61,0xC0,
;0x00,0xF9,0xF0,0x00,0x00,0x38,0x40,0x01,0x00,0x00,0x00,0x60,0x46,0x00,0x06,0x00,
;0x80,0x00,0x00,0x38,0x1C,0x61,0x40,0x00,0x38,0x40,0x00,0x00,0x2C,0x40,0x00,0x80,
;0x00,0x00,0x01,0x80,0x00,0x06,0x01,0x00,0x00,0x00,0x2C,0x2C,0x02,0x20,0x00,0x2C,
;0x40,0x00,0x00,0x26,0x40,0x00,0x00,0x00,0x00,0x00,0x00,0x00,0x06,0x00,0x00,0x00,
;0x00,0x2C,0x2C,0x00,0x00,0x00,0x26,0x40,0x00,0x00,0x26,0x43,0xF3,0xCF,0x70,0x3F,
;0x63,0xCE,0x0F,0xC6,0xC3,0xCE,0xC3,0xF0,0x2C,0x2C,0xE3,0xCE,0xC0,0x26,0x43,0xCE,
;0xCC,0x23,0x46,0x66,0x66,0x20,0x66,0x66,0x66,0x06,0x67,0x66,0x67,0x66,0x60,0x26,
;0x4C,0x66,0x67,0x60,0x23,0x46,0x67,0x76,0x21,0xc6,0x60,0x67,0x40,0x66,0x60,0x66, //
;0x06,0x66,0x66,0x66,0x66,0x60,0x26,0x4c,0x66,0x66,0x60,0x21,0xc0,0x66,0x66,0x21,
;0xC6,0x63,0xE3,0x40,0x66,0x63,0xE6,0x06,0x66,0x66,0x66,0x66,0x60,0x26,0x8C,0x67,
;0xE6,0x60,0x21,0xC3,0xE6,0x66,0x20,0xC3,0xC6,0x63,0x80,0x3C,0x66,0x66,0x06,0x66,
;0x66,0x66,0x63,0xC0,0x23,0x8C,0x66,0x06,0x60,0x20,0xC6,0x66,0x66,0x20,0x44,0x06,
;0x61,0x80,0x40,0x66,0x66,0x06,0x66,0x66,0x66,0x64,0x00,0x23,0x0C,0x66,0x26,0x60,
;0x20,0x46,0x66,0x66,0xF8,0x47,0xE3,0xF1,0x80,0x7E,0x73,0xF7,0x07,0xCF,0x73,0xCF,
;0x77,0xE0,0xF9,0x3F,0x73,0xCF,0x70,0xF8,0x43,0xF7,0x77,0x00,0x07,0xF0,0x01,0x00,
;0x7F,0x00,0x00,0x06,0x00,0x00,0x00,0x07,0xF0,0x00,0x00,0x00,0x00,0x00,0x00,0x00,
;0x00,0x00,0x00,0x04,0x10,0x0D,0x00,0x41,0x00,0x00,0x06,0x00,0x00,0x00,0x04,0x10,
;0x00,0x00,0x00,0x00,0x00,0x00,0x00,0x00,0x00,0x00,0x03,0xE0,0x0E,0x00,0x3E,0x00,
;0x00,0x0F,0x00,0x00,0x00,0x03,0xE0,0x00,0x00,0x00,0x00,0x00,0x00,0x00,0x00,0x00,
;};
;/**********************************************/
;//NGAY QUOC TE LAO DONG 1/5
;flash unsigned char msg28[]=
;{
;/*------------------------------------------------------------------------------
;; If font display distortion, please check Fonts format of setup.
;; Source file / text :Ngy qu?c t? lao d?ng
;; Width x Height (pixels) :152X16
;;  Font Format/Size : Monochrome LCD Fonts ,Horizontal scan ,Big endian order/304Byte
;;  Font make date  : 12/23/2013 12:06:43 PM
;------------------------------------------------------------------------------*/
;0x98,0x10,0x13,//Width pixels,Height pixels,Width bytes
;0x00,0x00,0x00,0x00,0x00,0x00,0x00,0x00,0x20,0x00,0x00,0x20,0x00,0x00,0x00,0x00,
;0x00,0x00,0x00,0x00,0x00,0x00,0x00,0x00,0x00,0x00,0x00,0x40,0x00,0x00,0x40,0x00,
;0x00,0x00,0x00,0x00,0x00,0x00,0x3E,0x7C,0x00,0x00,0x00,0x00,0x00,0x07,0x00,0x00,
;0x07,0x03,0x80,0x00,0x00,0x38,0x70,0x00,0x00,0x0E,0x10,0x00,0x40,0x00,0x00,0x00,
;0x05,0x00,0x00,0x05,0x01,0x80,0x00,0x00,0x18,0x50,0x00,0x00,0x0B,0x10,0x00,0x20,
;0x00,0x00,0x00,0x08,0x80,0x01,0x08,0x81,0x80,0x00,0x00,0x7C,0x88,0x00,0x00,0x09,
;0x90,0x00,0x00,0x00,0x00,0x00,0x00,0x00,0x03,0x00,0x01,0x80,0x00,0x00,0x18,0x00,
;0x00,0x00,0x09,0x90,0xFC,0xF3,0xDC,0x0E,0xBB,0x8F,0x0F,0x07,0xCF,0x01,0x8F,0x0F,
;0x00,0xF8,0xF3,0xB0,0xFC,0x08,0xD1,0x99,0x99,0x88,0x19,0x99,0x99,0x9B,0x03,0x19,
;0x81,0x99,0x99,0x81,0x99,0x99,0xD9,0x98,0x08,0x71,0x98,0x19,0xd0,0x19,0x99,0x99,//
;0x98,0x03,0x19,0x81,0x81,0x99,0x81,0x99,0x99,0x99,0x98,0x08,0x71,0x98,0xF8,0xD0,
;0x19,0x99,0x99,0x98,0x03,0x1F,0x81,0x8F,0x99,0x81,0x99,0x99,0x99,0x98,0x08,0x30,
;0xF1,0x98,0xE0,0x19,0x99,0x99,0x98,0x03,0x18,0x01,0x99,0x99,0x81,0x99,0x99,0x98,
;0xF0,0x08,0x11,0x01,0x98,0x60,0x19,0x99,0x99,0x99,0x03,0x58,0x81,0x99,0x99,0x81,
;0x99,0x99,0x99,0x00,0x3E,0x11,0xF8,0xFC,0x60,0x0F,0x8F,0xCF,0x0E,0x01,0x8F,0x03,
;0xCF,0xCF,0x00,0xFC,0xF3,0xDD,0xF8,0x00,0x01,0xFC,0x00,0x40,0x01,0x80,0x00,0x00,
;0x00,0x00,0x00,0x00,0x00,0x00,0x00,0x00,0x01,0xFC,0x00,0x01,0x04,0x03,0x40,0x01,
;0x80,0x00,0x00,0x00,0x00,0x00,0x00,0x00,0x00,0x00,0x60,0x01,0x04,0x00,0x00,0xF8,
;0x03,0x80,0x03,0xC0,0x00,0x00,0x00,0x00,0x00,0x00,0x00,0x00,0x00,0x60,0x00,0xF8,
;};
;
;/**********************************************/
;//NGAY CUA ME 13/5
;flash unsigned char msg29[]=
;{
;/*------------------------------------------------------------------------------
;; If font display distortion, please check Fonts format of setup.
;; Source file / text :Ngy c?a M? - Chc m? lun vui v? v m?nh kh?e
;; Width x Height (pixels) :336X16
;;  Font Format/Size : Monochrome LCD Fonts ,Horizontal scan ,Big endian order/672Byte
;;  Font make date  : 12/23/2013 1:16:53 PM
;------------------------------------------------------------------------------*/
;0x50,0x10,0x2A,//Width pixels,Height pixels,Width bytes
;0x00,0x00,0x00,0x00,0x00,0x00,0x00,0x00,0x00,0x00,0x00,0x00,0x00,0x00,0x00,0x00,
;0x00,0x00,0x00,0x00,0x00,0x00,0x00,0x00,0x00,0x00,0x00,0x00,0x00,0x00,0x00,0x00,
;0x00,0x00,0x00,0x00,0x00,0x00,0x00,0x00,0x00,0x00,0x00,0x00,0x00,0x00,0x00,0x00,
;0x00,0x00,0x00,0x00,0x00,0x00,0x00,0x00,0x00,0x00,0x00,0x00,0x00,0x00,0x00,0x00,
;0x00,0x00,0x00,0x00,0x00,0x00,0x00,0x00,0x00,0x00,0x00,0x00,0x00,0x00,0x00,0x00,
;0x00,0x00,0x00,0x00,0x7C,0xF8,0x00,0x00,0x00,0x00,0x3C,0x00,0x0F,0x81,0xF0,0x00,
;0x00,0x07,0x2E,0x00,0x00,0x00,0x00,0x00,0x01,0xC0,0x03,0x80,0x00,0x00,0x00,0xC0,
;0x00,0x78,0x00,0x00,0x00,0x00,0x00,0x00,0x1C,0x01,0xC0,0xE0,0x3C,0x00,0x1C,0x20,
;0x00,0x80,0x00,0x00,0x04,0x00,0x03,0x81,0xC0,0x00,0x00,0x18,0xE6,0x00,0x80,0x00,
;0x00,0x00,0x00,0xC0,0x02,0x80,0x00,0x00,0x00,0xC0,0x00,0x08,0x00,0x02,0x00,0x00,
;0x00,0x00,0x0C,0x00,0xC0,0x60,0x04,0x00,0x16,0x20,0x00,0x40,0x00,0x00,0x18,0x00,
;0x02,0xC2,0xC0,0x00,0x00,0x18,0x66,0x01,0x00,0x00,0x00,0x00,0x00,0xC0,0x04,0x40,
;0x00,0x00,0x00,0x00,0x00,0x30,0x00,0x01,0x00,0x00,0x00,0x00,0x0C,0x00,0xC0,0x60,
;0x18,0x00,0x13,0x20,0x00,0x00,0x00,0x00,0x00,0x00,0x02,0xC2,0xC0,0x00,0x00,0x30,
;0x26,0x00,0x00,0x00,0x00,0x00,0x00,0xC0,0x00,0x00,0x00,0x00,0x00,0x00,0x00,0x00,
;0x00,0x00,0x00,0x00,0x00,0x00,0x0C,0x00,0xC0,0x60,0x00,0x00,0x13,0x21,0xF9,0xE7,
;0xB8,0x1E,0xEE,0x3C,0x02,0xC2,0xC3,0xC0,0x00,0x30,0x06,0xCE,0xE3,0xC1,0xD9,0x87,
;0x80,0xDD,0xC7,0x9D,0x81,0xEE,0xDD,0xC1,0xEE,0x78,0x1E,0xE7,0x81,0xD9,0x87,0x9D,
;0x8D,0x80,0xCE,0x6C,0x3C,0x3C,0x11,0xA3,0x33,0x33,0x10,0x36,0x66,0x66,0x02,0x64,
;0xC6,0x60,0x00,0x30,0x07,0x66,0x66,0xC0,0xEE,0xCC,0xC0,0xCC,0xCC,0xCE,0xC0,0xC4,
;0xCC,0xC0,0xC4,0xCC,0x0C,0x4C,0xC0,0xEE,0xCC,0xCE,0xCE,0xC0,0xC8,0x76,0x66,0x66,
;0x10,0xe3,0x30,0x33,0xa0,0x30,0x66,0x06,0x02,0x64,0xc6,0x60,0x00,0x30,0x06,0x66,//
;0x66,0x00,0xcc,0xcc,0xc0,0xcc,0xcc,0xcc,0xc0,0x68,0xcc,0xc0,0x68,0xcc,0x06,0x80,
;0xc0,0xcc,0xc0,0xcc,0xcc,0xc0,0xd0,0x66,0x66,0x66,0x10,0xE3,0x31,0xF1,0xA0,0x30,
;0x66,0x3E,0x02,0x68,0xC7,0xE0,0xF0,0x30,0x06,0x66,0x66,0x00,0xCC,0xCF,0xC0,0xCC,
;0xCC,0xCC,0xC0,0x68,0xCC,0xC0,0x68,0xFC,0x06,0x87,0xC0,0xCC,0xC7,0xCC,0xCC,0xC0,
;0xF0,0x66,0x66,0x7E,0x10,0x61,0xE3,0x31,0xC0,0x30,0x66,0x66,0x02,0x38,0xC6,0x00,
;0x00,0x18,0x26,0x66,0x66,0x00,0xCC,0xCC,0x00,0xCC,0xCC,0xCC,0xC0,0x68,0xCC,0xC0,
;0x68,0xC0,0x06,0x8C,0xC0,0xCC,0xCC,0xCC,0xCC,0xC0,0xD8,0x66,0x66,0x60,0x10,0x22,
;0x03,0x30,0xC0,0x32,0x66,0x66,0x02,0x30,0xC6,0x20,0x00,0x18,0x46,0x66,0x66,0x40,
;0xCC,0xCC,0x40,0xCC,0xCC,0xCC,0xC0,0x30,0xCC,0xC0,0x30,0xC4,0x03,0x0C,0xC0,0xCC,
;0xCC,0xCC,0xCC,0xC0,0xCC,0x66,0x66,0x62,0x7C,0x23,0xF1,0xF8,0xC0,0x1C,0x3F,0x3F,
;0x0F,0x93,0xF3,0xC0,0x00,0x07,0x8F,0x73,0xF3,0x81,0xEE,0xE7,0x81,0xE7,0xE7,0x9E,
;0xE0,0x30,0x7E,0xE0,0x30,0x78,0x03,0x07,0xE1,0xEE,0xE7,0xEE,0xEE,0xE1,0xEF,0x77,
;0x3C,0x3C,0x00,0x03,0xF8,0x00,0x80,0x00,0x00,0x00,0x00,0x00,0x00,0x00,0x00,0x00,
;0x00,0x00,0x00,0x00,0x00,0x00,0x00,0x00,0x00,0x00,0x00,0x00,0x00,0x00,0x00,0x00,
;0x00,0x00,0x00,0x00,0x00,0x00,0x00,0x00,0x00,0x00,0x00,0x00,0x00,0x02,0x08,0x06,
;0x80,0x00,0x00,0x00,0x00,0x00,0x01,0x80,0x00,0x00,0x00,0x00,0x00,0x00,0x00,0x03,
;0x00,0x00,0x00,0x00,0x00,0x00,0x00,0x00,0x00,0x00,0x00,0x00,0x00,0x00,0x03,0x00,
;0x00,0x00,0x00,0x00,0x00,0x00,0x00,0x01,0xF0,0x07,0x00,0x00,0x00,0x00,0x00,0x00,
;0x01,0x80,0x00,0x00,0x00,0x00,0x00,0x00,0x00,0x03,0x00,0x00,0x00,0x00,0x00,0x00,
;0x00,0x00,0x00,0x00,0x00,0x00,0x00,0x00,0x03,0x00,0x00,0x00,0x00,0x00,0x00,0x00,
;};
;/*********************************************/
;//NGAY SINH CHU TICH HO CHI MINH 19/5
;flash unsigned char msg30[]=
;{
;/*------------------------------------------------------------------------------
;; If font display distortion, please check Fonts format of setup.
;; Source file / text :Ngy sinh Ch? t?ch H? Ch Minh
;; Width x Height (pixels) :224X16
;;  Font Format/Size : Monochrome LCD Fonts ,Horizontal scan ,Big endian order/448Byte
;;  Font make date  : 12/23/2013 2:13:46 PM
;------------------------------------------------------------------------------*/
;0xE0,0x10,0x1C,//Width pixels,Height pixels,Width bytes
;0x00,0x00,0x00,0x00,0x00,0x00,0x00,0x00,0x00,0x00,0x00,0x00,0x00,0x00,0x00,0x00,
;0x00,0x00,0x01,0x00,0x00,0x00,0x00,0x00,0x00,0x00,0x00,0x00,0x00,0x00,0x00,0x00,
;0x00,0x00,0x00,0x00,0x00,0x00,0x00,0x00,0x00,0x00,0x00,0x00,0x00,0x00,0x00,0x80,
;0x00,0x00,0x00,0x00,0x00,0x00,0x00,0x00,0x1F,0x3E,0x00,0x00,0x00,0x00,0x18,0x03,
;0x80,0x03,0x97,0x01,0xE0,0x01,0x80,0x70,0x07,0xCF,0x8E,0x00,0x72,0xE0,0x00,0xF8,
;0x1F,0x60,0x0E,0x00,0x07,0x08,0x00,0x20,0x00,0x00,0x18,0x01,0x80,0x0C,0x73,0x00,
;0x20,0x01,0x80,0x30,0x01,0x86,0x0A,0x01,0x8E,0x60,0x20,0x38,0x1C,0x60,0x06,0x00,
;0x05,0x88,0x00,0x10,0x00,0x00,0x00,0x01,0x80,0x0C,0x33,0x00,0xC0,0x10,0x00,0x30,
;0x01,0x86,0x11,0x01,0x86,0x60,0x40,0x2C,0x2C,0x00,0x06,0x00,0x04,0xC8,0x00,0x00,
;0x00,0x00,0x00,0x01,0x80,0x18,0x13,0x00,0x00,0x30,0x00,0x30,0x01,0x86,0x00,0x03,
;0x02,0x60,0x00,0x2C,0x2C,0x00,0x06,0x00,0x04,0xC8,0x7E,0x79,0xEE,0x07,0xBB,0xB1,
;0xB0,0x18,0x03,0x67,0x70,0x7D,0x8F,0x36,0x01,0x86,0x1E,0x03,0x00,0x6C,0xE0,0x2C,
;0x2C,0xEE,0xC6,0xC0,0x04,0x68,0xCC,0xCC,0xC4,0x0C,0x99,0xD9,0xD8,0x18,0x03,0xB3,
;0x30,0x31,0x9B,0x3B,0x01,0xFE,0x33,0x03,0x00,0x76,0x60,0x26,0x4C,0x67,0x67,0x60,
;0x04,0x38,0xcc,0x0c,0xe8,0x08,0x19,0x99,0x98,0x18,0x03,0x33,0x30,0x31,0x98,0x33, //
;0x01,0x86,0x33,0x03,0x00,0x66,0x60,0x26,0x4c,0x66,0x66,0x60,0x04,0x38,0xCC,0x7C,
;0x68,0x07,0x19,0x99,0x98,0x18,0x03,0x33,0x30,0x31,0x98,0x33,0x01,0x86,0x33,0x03,
;0x00,0x66,0x60,0x26,0x8C,0x66,0x66,0x60,0x04,0x18,0x78,0xCC,0x70,0x03,0x99,0x99,
;0x98,0x0C,0x13,0x33,0x30,0x31,0x98,0x33,0x01,0x86,0x33,0x01,0x82,0x66,0x60,0x23,
;0x8C,0x66,0x66,0x60,0x04,0x08,0x80,0xCC,0x30,0x09,0x99,0x99,0x98,0x0C,0x23,0x33,
;0x30,0x35,0x99,0x33,0x01,0x86,0x33,0x01,0x84,0x66,0x60,0x23,0x0C,0x66,0x66,0x60,
;0x1F,0x08,0xFC,0x7E,0x30,0x0F,0x3D,0xDD,0xDC,0x03,0xC7,0xB9,0xF8,0x19,0xCE,0x7B,
;0x87,0xCF,0x9E,0x00,0x78,0xF7,0x70,0xF9,0x3F,0x77,0x77,0x70,0x00,0x00,0xFE,0x00,
;0x20,0x00,0x00,0x00,0x00,0x00,0x00,0x00,0x00,0x00,0x00,0x00,0x00,0x00,0x00,0x00,
;0x00,0x00,0x00,0x00,0x00,0x00,0x00,0x00,0x00,0x00,0x82,0x01,0xA0,0x00,0x00,0x00,
;0x00,0x00,0x00,0x00,0x00,0x01,0x80,0x00,0x00,0x00,0x00,0x00,0x00,0x00,0x00,0x00,
;0x00,0x00,0x00,0x00,0x00,0x00,0x7C,0x01,0xC0,0x00,0x00,0x00,0x00,0x00,0x00,0x00,
;0x00,0x01,0x80,0x00,0x00,0x00,0x00,0x00,0x00,0x00,0x00,0x00,0x00,0x00,0x00,0x00,
;};
;
;/********************************************/
;//NGAY QUOC TE THIEU NHI 1/6
;flash unsigned char msg31[]=
;{
;/*------------------------------------------------------------------------------
;; If font display distortion, please check Fonts format of setup.
;; Source file / text :Ngy qu?c t? thi?u nhi
;; Width x Height (pixels) :152X16
;;  Font Format/Size : Monochrome LCD Fonts ,Horizontal scan ,Big endian order/304Byte
;;  Font make date  : 12/23/2013 12:20:08 PM
;------------------------------------------------------------------------------*/
;0x98,0x10,0x13,//Width pixels,Height pixels,Width bytes
;0x00,0x00,0x00,0x00,0x00,0x00,0x00,0x00,0x20,0x00,0x00,0x20,0x00,0x00,0x01,0x00,
;0x00,0x00,0x00,0x00,0x00,0x00,0x00,0x00,0x00,0x00,0x00,0x40,0x00,0x00,0x40,0x00,
;0x00,0x02,0x00,0x00,0x00,0x00,0x3E,0x7C,0x00,0x00,0x00,0x00,0x00,0x07,0x00,0x00,
;0x07,0x00,0x1C,0x0C,0x38,0x00,0x00,0x1C,0x0C,0x0E,0x10,0x00,0x40,0x00,0x00,0x00,
;0x05,0x00,0x00,0x05,0x00,0x0C,0x0C,0x28,0x00,0x00,0x0C,0x0C,0x0B,0x10,0x00,0x20,
;0x00,0x00,0x00,0x08,0x80,0x01,0x08,0x80,0x8C,0x00,0x44,0x00,0x00,0x0C,0x00,0x09,
;0x90,0x00,0x00,0x00,0x00,0x00,0x00,0x00,0x03,0x00,0x01,0x8C,0x00,0x00,0x00,0x00,
;0x0C,0x00,0x09,0x90,0xFC,0xF3,0xDC,0x0E,0xBB,0x8F,0x0F,0x07,0xCF,0x03,0xED,0x9C,
;0x79,0xDC,0x1D,0x8D,0x9C,0x08,0xD1,0x99,0x99,0x88,0x19,0x99,0x99,0x9B,0x03,0x19,
;0x81,0x8E,0xCC,0xCC,0xCC,0x0E,0xCE,0xCC,0x08,0x71,0x98,0x19,0xd0,0x19,0x99,0x99,//
;0x98,0x03,0x19,0x81,0x8c,0xcc,0xcc,0xcc,0x0c,0xcc,0xcc,0x08,0x71,0x98,0xF8,0xD0,
;0x19,0x99,0x99,0x98,0x03,0x1F,0x81,0x8C,0xCC,0xFC,0xCC,0x0C,0xCC,0xCC,0x08,0x30,
;0xF1,0x98,0xE0,0x19,0x99,0x99,0x98,0x03,0x18,0x01,0x8C,0xCC,0xC0,0xCC,0x0C,0xCC,
;0xCC,0x08,0x11,0x01,0x98,0x60,0x19,0x99,0x99,0x99,0x03,0x58,0x81,0xAC,0xCC,0xC4,
;0xCC,0x0C,0xCC,0xCC,0x3E,0x11,0xF8,0xFC,0x60,0x0F,0x8F,0xCF,0x0E,0x01,0x8F,0x00,
;0xCE,0xEE,0x78,0x7E,0x1E,0xEE,0xEE,0x00,0x01,0xFC,0x00,0x40,0x01,0x80,0x00,0x00,
;0x00,0x00,0x00,0x00,0x00,0x00,0x00,0x00,0x00,0x00,0x00,0x01,0x04,0x03,0x40,0x01,
;0x80,0x00,0x00,0x00,0x00,0x00,0x00,0x00,0x00,0x00,0x00,0x00,0x00,0x00,0x00,0xF8,
;0x03,0x80,0x03,0xC0,0x00,0x00,0x00,0x00,0x00,0x00,0x00,0x00,0x00,0x00,0x00,0x00,
;};
;
;/**********************************************/
;//NGAY CUA BO 17/6
;flash unsigned char msg32[]=
;{
;/*------------------------------------------------------------------------------
;; If font display distortion, please check Fonts format of setup.
;; Source file / text :Ngy c?a B? - Chc b? lun vui v? v m?nh kh?e
;; Width x Height (pixels) :328X16
;;  Font Format/Size : Monochrome LCD Fonts ,Horizontal scan ,Big endian order/656Byte
;;  Font make date  : 12/23/2013 1:35:23 PM
;------------------------------------------------------------------------------*/
;0x48,0x10,0x29,//Width pixels,Height pixels,Width bytes
;0x00,0x00,0x00,0x00,0x00,0x00,0x00,0x00,0x00,0x00,0x01,0x00,0x00,0x00,0x00,0x00,
;0x00,0x00,0x00,0x20,0x00,0x00,0x00,0x00,0x00,0x00,0x00,0x00,0x00,0x00,0x00,0x00,
;0x00,0x00,0x00,0x00,0x00,0x00,0x00,0x00,0x00,0x00,0x00,0x00,0x00,0x00,0x00,0x00,
;0x00,0x00,0x00,0x02,0x00,0x00,0x00,0x00,0x00,0x00,0x00,0x00,0x40,0x00,0x00,0x00,
;0x00,0x00,0x00,0x00,0x00,0x00,0x00,0x00,0x00,0x00,0x00,0x00,0x00,0x00,0x00,0x00,
;0x00,0x00,0x7C,0xF8,0x00,0x00,0x00,0x00,0x3C,0x00,0x0F,0xF8,0x38,0x00,0x00,0xE5,
;0xC0,0x00,0x00,0x38,0x07,0x03,0x80,0x07,0x00,0x00,0x00,0x01,0x80,0x00,0xF0,0x00,
;0x00,0x00,0x00,0x00,0x00,0x38,0x03,0x81,0xC0,0x78,0x00,0x1C,0x20,0x00,0x80,0x00,
;0x00,0x04,0x00,0x03,0x0C,0x28,0x00,0x03,0x1C,0xC0,0x10,0x00,0x18,0x05,0x01,0x80,
;0x05,0x00,0x00,0x00,0x01,0x80,0x00,0x10,0x00,0x04,0x00,0x00,0x00,0x00,0x18,0x01,
;0x80,0xC0,0x08,0x00,0x16,0x20,0x00,0x40,0x00,0x00,0x18,0x00,0x03,0x0C,0x44,0x00,
;0x03,0x0C,0xC0,0x20,0x00,0x18,0x08,0x81,0x80,0x08,0x80,0x00,0x00,0x00,0x00,0x00,
;0x60,0x00,0x02,0x00,0x00,0x00,0x00,0x18,0x01,0x80,0xC0,0x30,0x00,0x13,0x20,0x00,
;0x00,0x00,0x00,0x00,0x00,0x03,0x0C,0x00,0x00,0x06,0x04,0xC0,0x00,0x00,0x18,0x00,
;0x01,0x80,0x00,0x00,0x00,0x00,0x00,0x00,0x00,0x00,0x00,0x00,0x00,0x00,0x00,0x00,
;0x18,0x01,0x80,0xC0,0x00,0x00,0x13,0x21,0xF9,0xE7,0xB8,0x1E,0xEE,0x3C,0x03,0x18,
;0x78,0x00,0x06,0x00,0xD9,0xDC,0x78,0x1F,0x0F,0x01,0xBB,0x8F,0x3B,0x03,0xDD,0xBB,
;0x83,0xDC,0xF0,0x3D,0xCF,0x03,0xB3,0x0F,0x3B,0x1B,0x01,0x9C,0xD8,0x78,0x78,0x11,
;0xA3,0x33,0x33,0x10,0x36,0x66,0x66,0x03,0xF0,0xCC,0x00,0x06,0x00,0xEC,0xCC,0xD8,
;0x19,0x99,0x81,0x99,0x99,0x9D,0x81,0x89,0x99,0x81,0x89,0x98,0x18,0x99,0x81,0xDD,
;0x99,0x9D,0x9D,0x81,0x90,0xEC,0xCC,0xCC,0x10,0xe3,0x30,0x33,0xa0,0x30,0x66,0x06, //
;0x03,0x18,0xcc,0x00,0x06,0x00,0xcc,0xcc,0xc0,0x19,0x99,0x81,0x99,0x99,0x99,0x80,
;0x91,0x99,0x80,0xd1,0x98,0x0d,0x01,0x81,0x99,0x81,0x99,0x99,0x81,0xa0,0xcc,0xcc,
;0xcc,0x10,0xE3,0x31,0xF1,0xA0,0x30,0x66,0x3E,0x03,0x0C,0xCC,0x1E,0x06,0x00,0xCC,
;0xCC,0xC0,0x19,0x99,0x81,0x99,0x99,0x99,0x80,0xD1,0x99,0x80,0xD1,0xF8,0x0D,0x0F,
;0x81,0x99,0x8F,0x99,0x99,0x81,0xE0,0xCC,0xCC,0xFC,0x10,0x61,0xE3,0x31,0xC0,0x30,
;0x66,0x66,0x03,0x0C,0xCC,0x00,0x03,0x04,0xCC,0xCC,0xC0,0x19,0x99,0x81,0x99,0x99,
;0x99,0x80,0xD1,0x99,0x80,0xD1,0x80,0x0D,0x19,0x81,0x99,0x99,0x99,0x99,0x81,0xB0,
;0xCC,0xCC,0xC0,0x10,0x22,0x03,0x30,0xC0,0x32,0x66,0x66,0x03,0x0C,0xCC,0x00,0x03,
;0x08,0xCC,0xCC,0xC8,0x19,0x99,0x81,0x99,0x99,0x99,0x80,0x61,0x99,0x80,0x61,0x88,
;0x06,0x19,0x81,0x99,0x99,0x99,0x99,0x81,0x98,0xCC,0xCC,0xC4,0x7C,0x23,0xF1,0xF8,
;0xC0,0x1C,0x3F,0x3F,0x0F,0xF8,0x78,0x00,0x00,0xF1,0xEE,0x7E,0x70,0x17,0x0F,0x03,
;0xCF,0xCF,0x3D,0xC0,0x60,0xFD,0xC0,0x60,0xF0,0x06,0x0F,0xC3,0xDD,0xCF,0xDD,0xDD,
;0xC3,0xDE,0xEE,0x78,0x78,0x00,0x03,0xF8,0x00,0x80,0x00,0x00,0x00,0x00,0x00,0x00,
;0x00,0x00,0x00,0x00,0x00,0x00,0x00,0x00,0x00,0x00,0x00,0x00,0x00,0x00,0x00,0x00,
;0x00,0x00,0x00,0x00,0x00,0x00,0x00,0x00,0x00,0x00,0x00,0x00,0x00,0x00,0x00,0x02,
;0x08,0x06,0x80,0x00,0x00,0x00,0x00,0x00,0x00,0x00,0x00,0x00,0x00,0x00,0x00,0x00,
;0x00,0x00,0x00,0x00,0x00,0x00,0x00,0x00,0x00,0x00,0x00,0x00,0x00,0x00,0x00,0x06,
;0x00,0x00,0x00,0x00,0x00,0x00,0x00,0x00,0x01,0xF0,0x07,0x00,0x00,0x00,0x00,0x00,
;0x00,0x00,0x00,0x00,0x00,0x00,0x00,0x00,0x00,0x00,0x00,0x00,0x00,0x00,0x00,0x00,
;0x00,0x00,0x00,0x00,0x00,0x00,0x00,0x00,0x06,0x00,0x00,0x00,0x00,0x00,0x00,0x00,
;};
;
;/******************************************/
;////NGAY GIA DINH VIET NAM 28/6
;flash unsigned char msg33[]=
;{
;/*------------------------------------------------------------------------------
;; If font display distortion, please check Fonts format of setup.
;; Source file / text :Ngy gia dnh Vi?t Nam
;; Width x Height (pixels) :160X16
;;  Font Format/Size : Monochrome LCD Fonts ,Horizontal scan ,Big endian order/320Byte
;;  Font make date  : 12/23/2013 2:28:07 PM
;------------------------------------------------------------------------------*/
;0xA0,0x10,0x14,//Width pixels,Height pixels,Width bytes
;0x00,0x00,0x00,0x00,0x00,0x00,0x00,0x00,0x00,0x00,0x00,0x00,0x00,0x00,0x00,0x00,
;0x00,0x00,0x00,0x00,0x00,0x00,0x00,0x00,0x00,0x00,0x00,0x00,0x00,0x00,0x00,0x00,
;0x00,0x00,0x00,0x00,0x00,0x00,0x00,0x00,0xF9,0xF0,0x00,0x00,0x00,0x00,0x60,0x00,
;0x0E,0x00,0x0E,0x00,0xF8,0xEC,0x38,0x00,0xF9,0xF0,0x00,0x00,0x38,0x40,0x01,0x00,
;0x00,0x00,0x60,0x00,0x06,0x40,0x06,0x00,0x30,0x4C,0x28,0x00,0x38,0x40,0x00,0x00,
;0x2C,0x40,0x00,0x80,0x00,0x00,0x00,0x00,0x1F,0x20,0x06,0x00,0x30,0x40,0x44,0x40,
;0x2C,0x40,0x00,0x00,0x26,0x40,0x00,0x00,0x00,0x00,0x00,0x00,0x06,0x00,0x06,0x00,
;0x18,0x80,0x00,0xC0,0x26,0x40,0x00,0x00,0x26,0x43,0xF3,0xCF,0x70,0x3F,0x63,0xC0,
;0x3E,0xEE,0xC6,0xC0,0x18,0x9C,0x79,0xF0,0x26,0x43,0xCE,0xCC,0x23,0x46,0x66,0x66,
;0x20,0x66,0x66,0x60,0x66,0x67,0x67,0x60,0x19,0x0C,0xCC,0xC0,0x23,0x46,0x67,0x76,
;0x21,0xc6,0x60,0x67,0x40,0x66,0x60,0x60,0x66,0x66,0x66,0x60,0x0d,0x0c,0xcc,0xc0, //
;0x21,0xc0,0x66,0x66,0x21,0xC6,0x63,0xE3,0x40,0x66,0x63,0xE0,0x66,0x66,0x66,0x60,
;0x0D,0x0C,0xFC,0xC0,0x21,0xC3,0xE6,0x66,0x20,0xC3,0xC6,0x63,0x80,0x3C,0x66,0x60,
;0x66,0x66,0x66,0x60,0x06,0x0C,0xC0,0xC0,0x20,0xC6,0x66,0x66,0x20,0x44,0x06,0x61,
;0x80,0x40,0x66,0x60,0x66,0x66,0x66,0x60,0x06,0x0C,0xC4,0xD0,0x20,0x46,0x66,0x66,
;0xF8,0x47,0xE3,0xF1,0x80,0x7E,0x73,0xF0,0x3F,0x77,0x77,0x70,0x06,0x1E,0x78,0x60,
;0xF8,0x43,0xF7,0x77,0x00,0x07,0xF0,0x01,0x00,0x7F,0x00,0x00,0x00,0x00,0x00,0x00,
;0x00,0x00,0x00,0x00,0x00,0x00,0x00,0x00,0x00,0x04,0x10,0x0D,0x00,0x41,0x00,0x00,
;0x00,0x00,0x00,0x00,0x00,0x00,0x30,0x00,0x00,0x00,0x00,0x00,0x00,0x03,0xE0,0x0E,
;0x00,0x3E,0x00,0x00,0x00,0x00,0x00,0x00,0x00,0x00,0x30,0x00,0x00,0x00,0x00,0x00,
;};
;/*************************************/
;//NGAY THUONG BINH LIET SI 27/7
;flash unsigned char msg34[]=
;{
;/*------------------------------------------------------------------------------
;; If font display distortion, please check Fonts format of setup.
;; Source file / text :Ngy thuong binh, li?t si
;; Width x Height (pixels) :168X16
;;  Font Format/Size : Monochrome LCD Fonts ,Horizontal scan ,Big endian order/336Byte
;;  Font make date  : 12/23/2013 12:25:02 PM
;------------------------------------------------------------------------------*/
;0xA8,0x10,0x15,//Width pixels,Height pixels,Width bytes
;0x00,0x00,0x00,0x00,0x00,0x00,0x00,0x00,0x00,0x00,0x00,0x00,0x00,0x00,0x00,0x00,
;0x00,0x00,0x00,0x00,0x00,0x00,0x00,0x00,0x00,0x00,0x00,0x00,0x00,0x00,0x00,0x00,
;0x00,0x00,0x00,0x00,0x00,0x00,0x00,0x00,0x00,0x00,0x3E,0x7C,0x00,0x00,0x00,0x01,
;0xC0,0x00,0x00,0x00,0x00,0x03,0x81,0x80,0x38,0x00,0x39,0x87,0x00,0x00,0x00,0x0E,
;0x10,0x00,0x40,0x00,0x00,0xC0,0x00,0x00,0x00,0x00,0x01,0x81,0x80,0x18,0x00,0x19,
;0x85,0x00,0x00,0x64,0x0B,0x10,0x00,0x20,0x00,0x08,0xC0,0x00,0x00,0x00,0x00,0x01,
;0x80,0x00,0x18,0x00,0x18,0x08,0x88,0x00,0x5C,0x09,0x90,0x00,0x00,0x00,0x18,0xC0,
;0x00,0x00,0xC0,0x00,0x01,0x80,0x00,0x18,0x00,0x18,0x00,0x18,0x00,0x00,0x09,0x90,
;0xFC,0xF3,0xDC,0x3E,0xD9,0xDD,0x1E,0x5B,0x0F,0xC1,0xF3,0xBB,0x1B,0x00,0x1B,0x8F,
;0x3E,0x07,0xB8,0x08,0xD1,0x99,0x99,0x88,0x18,0xEC,0xCD,0x33,0x9D,0x99,0x81,0x99,
;0x9D,0x9D,0x80,0x19,0x99,0x98,0x0C,0x98,0x08,0x71,0x98,0x19,0xd0,0x18,0xcc,0xcF,  //
;0x33,0x19,0x99,0x81,0x99,0x99,0x99,0x80,0x19,0x99,0x98,0x0e,0x18,0x08,0x71,0x98,
;0xF8,0xD0,0x18,0xCC,0xCC,0x33,0x19,0x99,0x81,0x99,0x99,0x99,0x80,0x19,0x9F,0x98,
;0x07,0x18,0x08,0x30,0xF1,0x98,0xE0,0x18,0xCC,0xCC,0x33,0x19,0x8F,0x01,0x99,0x99,
;0x99,0x80,0x19,0x98,0x18,0x03,0x98,0x08,0x11,0x01,0x98,0x60,0x1A,0xCC,0xCC,0x33,
;0x19,0x90,0x01,0x99,0x99,0x99,0x8C,0x19,0x98,0x9A,0x09,0x98,0x3E,0x11,0xF8,0xFC,
;0x60,0x0C,0xEE,0x7E,0x1E,0x3D,0xDF,0x81,0x73,0xDD,0xDD,0xCC,0x3D,0xCF,0x0C,0x0F,
;0x3C,0x00,0x01,0xFC,0x00,0x40,0x00,0x00,0x00,0x00,0x00,0x1F,0xC0,0x00,0x00,0x00,
;0x04,0x00,0x00,0x00,0x00,0x00,0x00,0x01,0x04,0x03,0x40,0x00,0x00,0x00,0x00,0x00,
;0x10,0x40,0x00,0x00,0x00,0x04,0x00,0x06,0x00,0x00,0x00,0x00,0x00,0xF8,0x03,0x80,
;0x00,0x00,0x00,0x00,0x00,0x0F,0x80,0x00,0x00,0x00,0x08,0x00,0x06,0x00,0x00,0x00,
;};
;
;/**********************************************/
;//LE QUOC KHANH 2/9
;flash unsigned char msg35[]=
;{
;/*------------------------------------------------------------------------------
;; If font display distortion, please check Fonts format of setup.
;; Source file / text :Ngy Qu?c Khnh Vi?t Nam
;; Width x Height (pixels) :192X16
;;  Font Format/Size : Monochrome LCD Fonts ,Horizontal scan ,Big endian order/384Byte
;;  Font make date  : 12/23/2013 12:34:18 PM
;------------------------------------------------------------------------------*/
;0xC0,0x10,0x18,//Width pixels,Height pixels,Width bytes
;0x00,0x00,0x00,0x00,0x00,0x00,0x00,0x00,0x08,0x00,0x00,0x00,0x00,0x00,0x00,0x00,
;0x00,0x00,0x00,0x00,0x00,0x00,0x00,0x00,0x00,0x00,0x00,0x00,0x00,0x00,0x00,0x00,
;0x10,0x00,0x00,0x00,0x00,0x00,0x00,0x00,0x00,0x00,0x00,0x00,0x00,0x00,0x00,0x00,
;0xF9,0xF0,0x00,0x00,0x00,0x0F,0x00,0x01,0xC0,0x01,0xF9,0xDC,0x00,0x00,0x1C,0x01,
;0xF1,0xD8,0x70,0x01,0xF3,0xE0,0x00,0x00,0x38,0x40,0x01,0x00,0x00,0x30,0xC0,0x01,
;0x40,0x00,0x60,0x8C,0x01,0x00,0x0C,0x00,0x60,0x98,0x50,0x00,0x70,0x80,0x00,0x00,
;0x2C,0x40,0x00,0x80,0x00,0x30,0xC0,0x02,0x20,0x00,0x61,0x0C,0x02,0x00,0x0C,0x00,
;0x60,0x80,0x88,0x80,0x58,0x80,0x00,0x00,0x26,0x40,0x00,0x00,0x00,0x60,0x60,0x00,
;0x00,0x00,0x66,0x0C,0x00,0x00,0x0C,0x00,0x31,0x00,0x01,0x80,0x4C,0x80,0x00,0x00,
;0x26,0x43,0xF3,0xCF,0x70,0x60,0x6E,0xE3,0xC3,0xC0,0x68,0x0D,0x87,0x9D,0x8D,0x80,
;0x31,0x38,0xF3,0xE0,0x4C,0x87,0x9D,0x98,0x23,0x46,0x66,0x66,0x20,0x60,0x66,0x66,
;0x66,0xC0,0x78,0x0E,0xCC,0xCE,0xCE,0xC0,0x32,0x19,0x99,0x80,0x46,0x8C,0xCE,0xEC,
;0x21,0xc6,0x60,0x67,0x40,0x60,0x66,0x66,0x66,0x00,0x6c,0x0c,0xc0,0xcc,0xcc,0xc0, //
;0x1a,0x19,0x99,0x80,0x43,0x80,0xcc,0xcc,0x21,0xC6,0x63,0xE3,0x40,0x60,0x66,0x66,
;0x66,0x00,0x66,0x0C,0xC7,0xCC,0xCC,0xC0,0x1A,0x19,0xF9,0x80,0x43,0x87,0xCC,0xCC,
;0x20,0xC3,0xC6,0x63,0x80,0x30,0xC6,0x66,0x66,0x00,0x63,0x0C,0xCC,0xCC,0xCC,0xC0,
;0x0C,0x19,0x81,0x80,0x41,0x8C,0xCC,0xCC,0x20,0x44,0x06,0x61,0x80,0x30,0xC6,0x66,
;0x66,0x40,0x61,0x8C,0xCC,0xCC,0xCC,0xC0,0x0C,0x19,0x89,0xA0,0x40,0x8C,0xCC,0xCC,
;0xF8,0x47,0xE3,0xF1,0x80,0x0F,0x03,0xF3,0xC3,0x81,0xFB,0xEE,0xE7,0xEE,0xEE,0xE0,
;0x0C,0x3C,0xF0,0xC1,0xF0,0x87,0xEE,0xEE,0x00,0x07,0xF0,0x01,0x00,0x06,0x00,0x00,
;0x00,0x00,0x00,0x00,0x00,0x00,0x00,0x00,0x00,0x00,0x00,0x00,0x00,0x00,0x00,0x00,
;0x00,0x04,0x10,0x0D,0x00,0x03,0x00,0x00,0x00,0x00,0x00,0x00,0x00,0x00,0x00,0x00,
;0x00,0x00,0x60,0x00,0x00,0x00,0x00,0x00,0x00,0x03,0xE0,0x0E,0x00,0x01,0xC0,0x00,
;0x00,0x00,0x00,0x00,0x00,0x00,0x00,0x00,0x00,0x00,0x60,0x00,0x00,0x00,0x00,0x00,
;};
;
;/**********************************************/
;//NGAY QUOC TE NGUOI CAO TUOI 1/10
;flash unsigned char msg36[]=
;{
;/*------------------------------------------------------------------------------
;; If font display distortion, please check Fonts format of setup.
;; Source file / text :Ngy qu?c t? ngu?i cao tu?i
;; Width x Height (pixels) :192X16
;;  Font Format/Size : Monochrome LCD Fonts ,Horizontal scan ,Big endian order/384Byte
;;  Font make date  : 12/23/2013 12:42:44 PM
;------------------------------------------------------------------------------*/
;0xC0,0x10,0x18,//Width pixels,Height pixels,Width bytes
;0x00,0x00,0x00,0x00,0x00,0x00,0x00,0x00,0x20,0x00,0x00,0x20,0x00,0x00,0x00,0x00,
;0x00,0x00,0x00,0x00,0x00,0x00,0x01,0x80,0x00,0x00,0x00,0x00,0x00,0x00,0x00,0x00,
;0x40,0x00,0x00,0x40,0x00,0x00,0x00,0x00,0x00,0x00,0x00,0x00,0x00,0x00,0x00,0x80,
;0x3E,0x7C,0x00,0x00,0x00,0x00,0x00,0x07,0x00,0x00,0x07,0x00,0x00,0x00,0x00,0x00,
;0x30,0x00,0x00,0x00,0x00,0x00,0x04,0x30,0x0E,0x10,0x00,0x40,0x00,0x00,0x00,0x05,
;0x00,0x00,0x05,0x00,0x00,0x00,0x00,0x10,0x30,0x00,0x00,0x00,0x00,0x00,0x0A,0x30,
;0x0B,0x10,0x00,0x20,0x00,0x00,0x00,0x08,0x80,0x01,0x08,0x80,0x00,0x00,0x00,0x08,
;0x00,0x00,0x00,0x00,0x02,0x00,0x11,0x00,0x09,0x90,0x00,0x00,0x00,0x00,0x00,0x00,
;0x00,0x03,0x00,0x00,0x00,0x00,0x00,0x01,0x80,0x00,0x00,0x00,0x06,0x00,0x00,0x00,
;0x09,0x90,0xFC,0xF3,0xDC,0x0E,0xBB,0x8F,0x0F,0x07,0xCF,0x03,0xB0,0xFD,0xBA,0x3C,
;0xB0,0x1E,0x3C,0x3C,0x0F,0xB7,0x1E,0x70,0x08,0xD1,0x99,0x99,0x88,0x19,0x99,0x99,
;0x9B,0x03,0x19,0x81,0xD9,0x99,0x9A,0x67,0x30,0x36,0x66,0x66,0x06,0x33,0x33,0x30,
;0x08,0x71,0x98,0x19,0xd0,0x19,0x99,0x99,0x98,0x03,0x19,0x81,0x99,0x99,0x9e,0x66,  //
;0x30,0x30,0x06,0x66,0x06,0x33,0x33,0x30,0x08,0x71,0x98,0xF8,0xD0,0x19,0x99,0x99,
;0x98,0x03,0x1F,0x81,0x99,0x99,0x98,0x66,0x30,0x30,0x3E,0x66,0x06,0x33,0x33,0x30,
;0x08,0x30,0xF1,0x98,0xE0,0x19,0x99,0x99,0x98,0x03,0x18,0x01,0x98,0xF1,0x98,0x66,
;0x30,0x30,0x66,0x66,0x06,0x33,0x33,0x30,0x08,0x11,0x01,0x98,0x60,0x19,0x99,0x99,
;0x99,0x03,0x58,0x81,0x99,0x01,0x98,0x66,0x30,0x32,0x66,0x66,0x06,0xB3,0x33,0x30,
;0x3E,0x11,0xF8,0xFC,0x60,0x0F,0x8F,0xCF,0x0E,0x01,0x8F,0x03,0xDD,0xF8,0xFC,0x3C,
;0x78,0x1C,0x3F,0x3C,0x03,0x1F,0x9E,0x78,0x00,0x01,0xFC,0x00,0x40,0x01,0x80,0x00,
;0x00,0x00,0x00,0x00,0x01,0xFC,0x00,0x00,0x00,0x00,0x00,0x00,0x00,0x00,0x00,0x00,
;0x00,0x01,0x04,0x03,0x40,0x01,0x80,0x00,0x00,0x00,0x00,0x00,0x01,0x04,0x00,0x00,
;0x00,0x00,0x00,0x00,0x00,0x00,0x00,0x00,0x00,0x00,0xF8,0x03,0x80,0x03,0xC0,0x00,
;0x00,0x00,0x00,0x00,0x00,0xF8,0x00,0x00,0x00,0x00,0x00,0x00,0x00,0x00,0x00,0x00,
;};
;
;/**********************************************/
;//NGAY NHA GIAO VIET NAM 20/11
;flash unsigned char msg37[]=
;{
;/*------------------------------------------------------------------------------
;; If font display distortion, please check Fonts format of setup.
;; Source file / text :Ngy nh gio Vi?t Nam
;; Width x Height (pixels) :168X16
;;  Font Format/Size : Monochrome LCD Fonts ,Horizontal scan ,Big endian order/336Byte
;;  Font make date  : 12/23/2013 12:52:06 PM
;------------------------------------------------------------------------------*/
;0xA8,0x10,0x15,//Width pixels,Height pixels,Width bytes
;0x00,0x00,0x00,0x00,0x00,0x00,0x00,0x00,0x00,0x00,0x00,0x00,0x00,0x00,0x00,0x00,
;0x00,0x00,0x00,0x00,0x00,0x00,0x00,0x00,0x00,0x00,0x00,0x00,0x00,0x00,0x00,0x00,
;0x00,0x00,0x00,0x00,0x00,0x00,0x00,0x00,0x00,0x00,0x3E,0x7C,0x00,0x00,0x00,0x00,
;0x38,0x00,0x00,0x01,0x80,0x00,0x03,0xE3,0xB0,0xE0,0x03,0xE7,0xC0,0x00,0x00,0x0E,
;0x10,0x00,0x40,0x00,0x00,0x18,0x04,0x00,0x01,0x82,0x00,0x00,0xC1,0x30,0xA0,0x00,
;0xE1,0x00,0x00,0x00,0x0B,0x10,0x00,0x20,0x00,0x00,0x18,0x02,0x00,0x00,0x04,0x00,
;0x00,0xC1,0x01,0x11,0x00,0xB1,0x00,0x00,0x00,0x09,0x90,0x00,0x00,0x00,0x00,0x18,
;0x00,0x00,0x00,0x00,0x00,0x00,0x62,0x00,0x03,0x00,0x99,0x00,0x00,0x00,0x09,0x90,
;0xFC,0xF3,0xDC,0x3B,0x1B,0x0F,0x00,0xFD,0x8F,0x0F,0x00,0x62,0x71,0xE7,0xC0,0x99,
;0x0F,0x3B,0x30,0x08,0xD1,0x99,0x99,0x88,0x1D,0x9D,0x99,0x81,0x99,0x99,0x99,0x80,
;0x64,0x33,0x33,0x00,0x8D,0x19,0x9D,0xD8,0x08,0x71,0x98,0x19,0xd0,0x19,0x99,0x81,   //
;0x81,0x99,0x81,0x99,0x80,0x34,0x33,0x33,0x00,0x87,0x01,0x99,0x98,0x08,0x71,0x98,
;0xF8,0xD0,0x19,0x99,0x8F,0x81,0x99,0x8F,0x99,0x80,0x34,0x33,0xF3,0x00,0x87,0x0F,
;0x99,0x98,0x08,0x30,0xF1,0x98,0xE0,0x19,0x99,0x99,0x80,0xF1,0x99,0x99,0x80,0x18,
;0x33,0x03,0x00,0x83,0x19,0x99,0x98,0x08,0x11,0x01,0x98,0x60,0x19,0x99,0x99,0x81,
;0x01,0x99,0x99,0x80,0x18,0x33,0x13,0x40,0x81,0x19,0x99,0x98,0x3E,0x11,0xF8,0xFC,
;0x60,0x3D,0xDD,0xCF,0xC1,0xF9,0xCF,0xCF,0x00,0x18,0x79,0xE1,0x83,0xE1,0x0F,0xDD,
;0xDC,0x00,0x01,0xFC,0x00,0x40,0x00,0x00,0x00,0x01,0xFC,0x00,0x00,0x00,0x00,0x00,
;0x00,0x00,0x00,0x00,0x00,0x00,0x00,0x01,0x04,0x03,0x40,0x00,0x00,0x00,0x01,0x04,
;0x00,0x00,0x00,0x00,0x00,0xC0,0x00,0x00,0x00,0x00,0x00,0x00,0x00,0xF8,0x03,0x80,
;0x00,0x00,0x00,0x00,0xF8,0x00,0x00,0x00,0x00,0x00,0xC0,0x00,0x00,0x00,0x00,0x00,
;};
;
;/**********************************************/
;//NGAY THE GIOI PHONG CHON AIDS 1/12
;flash unsigned char msg38[]=
;{
;/*------------------------------------------------------------------------------
;; If font display distortion, please check Fonts format of setup.
;; Source file / text :Ngy th? gi?i phng ch?ng AIDS
;; Width x Height (pixels) :224X16
;;  Font Format/Size : Monochrome LCD Fonts ,Horizontal scan ,Big endian order/448Byte
;;  Font make date  : 12/23/2013 12:58:22 PM
;------------------------------------------------------------------------------*/
;0xE0,0x10,0x1C,//Width pixels,Height pixels,Width bytes
;0x00,0x00,0x00,0x00,0x00,0x00,0x00,0x00,0x80,0x00,0x00,0x00,0x00,0x00,0x00,0x00,
;0x00,0x00,0x00,0x00,0x08,0x00,0x00,0x00,0x00,0x00,0x00,0x00,0x00,0x00,0x00,0x00,
;0x00,0x00,0x00,0x01,0x00,0x00,0x00,0x00,0x00,0x00,0x00,0x00,0x00,0x00,0x00,0x00,
;0x10,0x00,0x00,0x00,0x00,0x00,0x00,0x00,0x1F,0x3E,0x00,0x00,0x00,0x00,0xE0,0x1C,
;0x00,0x06,0x00,0x30,0x00,0x70,0x00,0x00,0x00,0x00,0x0E,0x01,0xC0,0x00,0x00,0x04,
;0x0F,0x3F,0x81,0xE8,0x07,0x08,0x00,0x20,0x00,0x00,0x60,0x14,0x00,0x06,0x08,0x30,
;0x00,0x30,0x08,0x00,0x00,0x00,0x06,0x01,0x40,0x00,0x00,0x0C,0x06,0x18,0xC3,0x18,
;0x05,0x88,0x00,0x10,0x00,0x04,0x60,0x22,0x00,0x00,0x10,0x00,0x00,0x30,0x04,0x00,
;0x00,0x00,0x06,0x02,0x20,0x00,0x00,0x0E,0x06,0x18,0x63,0x08,0x04,0xC8,0x00,0x00,
;0x00,0x0C,0x60,0x00,0x00,0x00,0x01,0x80,0x00,0x30,0x00,0x00,0x00,0x00,0x06,0x00,
;0x00,0x00,0x00,0x16,0x06,0x18,0x33,0x88,0x04,0xC8,0x7E,0x79,0xEE,0x1F,0x6C,0x3C,
;0x03,0xF6,0x3C,0xB0,0x7E,0x36,0x1E,0x76,0x1F,0x81,0xE6,0xC3,0xCE,0xC3,0xF0,0x13,
;0x06,0x18,0x31,0xC0,0x04,0x68,0xCC,0xCC,0xC4,0x0C,0x76,0x66,0x06,0x66,0x67,0x30,
;0x33,0x3B,0x33,0x3B,0x33,0x03,0x67,0x66,0x67,0x66,0x60,0x13,0x06,0x18,0x30,0xE0,
;0x04,0x38,0xcc,0x0c,0xe8,0x0c,0x66,0x66,0x06,0x66,0x66,0x30,0x33,0x33,0x33,0x33, //
;0x33,0x03,0x06,0x66,0x66,0x66,0x60,0x21,0x86,0x18,0x30,0x70,0x04,0x38,0xCC,0x7C,
;0x68,0x0C,0x66,0x7E,0x06,0x66,0x66,0x30,0x33,0x33,0x33,0x33,0x33,0x03,0x06,0x66,
;0x66,0x66,0x60,0x3F,0x86,0x18,0x32,0x38,0x04,0x18,0x78,0xCC,0x70,0x0C,0x66,0x60,
;0x03,0xC6,0x66,0x30,0x33,0x33,0x33,0x33,0x1E,0x03,0x06,0x66,0x66,0x63,0xC0,0x21,
;0xC6,0x18,0x62,0x18,0x04,0x08,0x80,0xCC,0x30,0x0D,0x66,0x62,0x04,0x06,0x66,0x30,
;0x33,0x33,0x33,0x33,0x20,0x03,0x26,0x66,0x66,0x64,0x00,0x40,0xC6,0x18,0xC3,0x18,
;0x1F,0x08,0xFC,0x7E,0x30,0x06,0x77,0x3C,0x07,0xE7,0x3C,0x78,0x3E,0x7B,0x9E,0x7B,
;0xBF,0x01,0xCF,0x73,0xCF,0x77,0xE0,0xF1,0xEF,0x3F,0x82,0xF0,0x00,0x00,0xFE,0x00,
;0x20,0x00,0x00,0x00,0x07,0xF0,0x00,0x00,0x30,0x00,0x00,0x00,0x3F,0x80,0x00,0x00,
;0x00,0x07,0xF0,0x00,0x00,0x00,0x00,0x00,0x00,0x00,0x82,0x01,0xA0,0x00,0x00,0x00,
;0x04,0x10,0x00,0x00,0x30,0x00,0x00,0x00,0x20,0x80,0x00,0x00,0x00,0x04,0x10,0x00,
;0x00,0x00,0x00,0x00,0x00,0x00,0x7C,0x01,0xC0,0x00,0x00,0x00,0x03,0xE0,0x00,0x00,
;0x78,0x00,0x00,0x00,0x1F,0x00,0x00,0x00,0x00,0x03,0xE0,0x00,0x00,0x00,0x00,0x00,
;};
;
;/**********************************************/
;//NGAY QUAN DOI NHAN DAN VIET NAM 22/12
;flash unsigned char msg39[]=
;{
;/*------------------------------------------------------------------------------
;; If font display distortion, please check Fonts format of setup.
;; Source file / text :Ngy qun d?i nhn dn Vi?t Nam
;; Width x Height (pixels) :232X16
;;  Font Format/Size : Monochrome LCD Fonts ,Horizontal scan ,Big endian order/464Byte
;;  Font make date  : 12/23/2013 1:06:45 PM
;------------------------------------------------------------------------------*/
;0xE8,0x10,0x1D,//Width pixels,Height pixels,Width bytes
;0x00,0x00,0x00,0x00,0x00,0x00,0x00,0x00,0x00,0x00,0x00,0x00,0x00,0x00,0x00,0x00,
;0x00,0x00,0x00,0x00,0x00,0x00,0x00,0x00,0x00,0x00,0x00,0x00,0x00,0x00,0x00,0x00,
;0x00,0x00,0x00,0x00,0x00,0x00,0x00,0x00,0x00,0x00,0x00,0x00,0x00,0x00,0x00,0x00,
;0x00,0x00,0x00,0x00,0x00,0x00,0x00,0x00,0x00,0x00,0x3E,0x7C,0x00,0x00,0x00,0x00,
;0x00,0x07,0x00,0x00,0x38,0x71,0x80,0x03,0x80,0x70,0x00,0x03,0x87,0x00,0x03,0xE3,
;0xB0,0xE0,0x03,0xE7,0xC0,0x00,0x00,0x0E,0x10,0x00,0x40,0x00,0x00,0x00,0x05,0x00,
;0x00,0x18,0x51,0x80,0x01,0x80,0x50,0x00,0x01,0x85,0x00,0x00,0xC1,0x30,0xA0,0x00,
;0xE1,0x00,0x00,0x00,0x0B,0x10,0x00,0x20,0x00,0x00,0x00,0x08,0x80,0x00,0x7C,0x88,
;0x00,0x01,0x80,0x88,0x00,0x01,0x88,0x80,0x00,0xC1,0x01,0x11,0x00,0xB1,0x00,0x00,
;0x00,0x09,0x90,0x00,0x00,0x00,0x00,0x00,0x00,0x00,0x00,0x18,0x00,0x00,0x01,0x80,
;0x00,0x00,0x01,0x80,0x00,0x00,0x62,0x00,0x03,0x00,0x99,0x00,0x00,0x00,0x09,0x90,
;0xFC,0xF3,0xDC,0x0E,0xBB,0x8F,0x3B,0x00,0xF8,0xF3,0x83,0xB1,0xB0,0xF3,0xB0,0x0F,
;0x8F,0x3B,0x00,0x62,0x71,0xE7,0xC0,0x99,0x0F,0x3B,0x30,0x08,0xD1,0x99,0x99,0x88,
;0x19,0x99,0x99,0x9D,0x81,0x99,0x99,0x81,0xD9,0xD9,0x99,0xD8,0x19,0x99,0x9D,0x80,
;0x64,0x33,0x33,0x00,0x8D,0x19,0x9D,0xD8,0x08,0x71,0x98,0x19,0xd0,0x19,0x99,0x81,  //
;0x99,0x81,0x99,0x99,0x81,0x99,0x98,0x19,0x98,0x19,0x81,0x99,0x80,0x34,0x33,0x33,
;0x00,0x87,0x01,0x99,0x98,0x08,0x71,0x98,0xF8,0xD0,0x19,0x99,0x8F,0x99,0x81,0x99,
;0x99,0x81,0x99,0x98,0xF9,0x98,0x19,0x8F,0x99,0x80,0x34,0x33,0xF3,0x00,0x87,0x0F,
;0x99,0x98,0x08,0x30,0xF1,0x98,0xE0,0x19,0x99,0x99,0x99,0x81,0x99,0x99,0x81,0x99,
;0x99,0x99,0x98,0x19,0x99,0x99,0x80,0x18,0x33,0x03,0x00,0x83,0x19,0x99,0x98,0x08,
;0x11,0x01,0x98,0x60,0x19,0x99,0x99,0x99,0x81,0x99,0x99,0x81,0x99,0x99,0x99,0x98,
;0x19,0x99,0x99,0x80,0x18,0x33,0x13,0x40,0x81,0x19,0x99,0x98,0x3E,0x11,0xF8,0xFC,
;0x60,0x0F,0x8F,0xCF,0xDD,0xC0,0xFC,0xF3,0xC3,0xDD,0xDC,0xFD,0xDC,0x0F,0xCF,0xDD,
;0xC0,0x18,0x79,0xE1,0x83,0xE1,0x0F,0xDD,0xDC,0x00,0x01,0xFC,0x00,0x40,0x01,0x80,
;0x00,0x00,0x00,0x00,0x00,0x00,0x00,0x00,0x00,0x00,0x00,0x00,0x00,0x00,0x00,0x00,
;0x00,0x00,0x00,0x00,0x00,0x00,0x00,0x01,0x04,0x03,0x40,0x01,0x80,0x00,0x00,0x00,
;0x00,0x60,0x00,0x00,0x00,0x00,0x00,0x00,0x00,0x00,0x00,0x00,0x00,0xC0,0x00,0x00,
;0x00,0x00,0x00,0x00,0x00,0xF8,0x03,0x80,0x03,0xC0,0x00,0x00,0x00,0x00,0x60,0x00,
;0x00,0x00,0x00,0x00,0x00,0x00,0x00,0x00,0x00,0x00,0xC0,0x00,0x00,0x00,0x00,0x00,
;};
;
;/**********************************************/
;//GIANG SINH 24/12
;flash unsigned char msg40[]=
;{
;/*------------------------------------------------------------------------------
;; If font display distortion, please check Fonts format of setup.
;; Source file / text :Ging sinh vui v?
;; Width x Height (pixels) :120X16
;;  Font Format/Size : Monochrome LCD Fonts ,Horizontal scan ,Big endian order/240Byte
;;  Font make date  : 12/23/2013 4:56:54 PM
;------------------------------------------------------------------------------*/
;0x78,0x10,0x0F,//Width pixels,Height pixels,Width bytes
;0x00,0x00,0x00,0x00,0x00,0x00,0x00,0x00,0x00,0x00,0x00,0x00,0x00,0x00,0x00,0x00,
;0x00,0x00,0x00,0x00,0x00,0x00,0x00,0x00,0x00,0x00,0x00,0x00,0x00,0x00,0x07,0x23,
;0x00,0x00,0x00,0x00,0x06,0x00,0xE0,0x00,0x00,0x06,0x00,0x03,0xC0,0x18,0xE3,0x04,
;0x00,0x00,0x00,0x06,0x00,0x60,0x00,0x00,0x06,0x00,0x00,0x40,0x18,0x60,0x08,0x00,
;0x00,0x00,0x00,0x00,0x60,0x00,0x00,0x00,0x00,0x01,0x80,0x30,0x20,0x00,0x00,0x00,
;0x00,0x00,0x00,0x60,0x00,0x00,0x00,0x00,0x00,0x00,0x30,0x07,0x1E,0x76,0x1F,0x81,
;0xEE,0xEC,0x6C,0x0F,0x76,0xEE,0x0F,0x73,0xC0,0x30,0x03,0x33,0x3B,0x33,0x03,0x26,
;0x76,0x76,0x06,0x26,0x66,0x06,0x26,0x60,0x30,0xF3,0x03,0x33,0x33,0x03,0x86,0x66,    //
;0x66,0x03,0x46,0x66,0x03,0x46,0x60,0x30,0x63,0x1F,0x33,0x33,0x01,0xC6,0x66,0x66,
;0x03,0x46,0x66,0x03,0x47,0xE0,0x18,0x63,0x33,0x33,0x1E,0x00,0xE6,0x66,0x66,0x03,
;0x46,0x66,0x03,0x46,0x00,0x18,0x63,0x33,0x33,0x20,0x02,0x66,0x66,0x66,0x01,0x86,
;0x66,0x01,0x86,0x20,0x07,0xC7,0x9F,0xBB,0xBF,0x03,0xCF,0x77,0x77,0x01,0x83,0xF7,
;0x01,0x83,0xC0,0x00,0x00,0x00,0x00,0x3F,0x80,0x00,0x00,0x00,0x00,0x00,0x00,0x00,
;0x00,0x00,0x00,0x00,0x00,0x00,0x20,0x80,0x00,0x00,0x00,0x00,0x00,0x00,0x00,0x00,
;0x00,0x00,0x00,0x00,0x00,0x1F,0x00,0x00,0x00,0x00,0x00,0x00,0x00,0x00,0x00,0x00,
;};
;
;//********************************************************************************
;// MANG LUU KY TU 10 CAN HANG DAU TIEN: Canh-Tan-Nham-Quy-Giap-At-Binh-Dinh-Mau-Ky
;/********************************************/
;// MANG CAN 1
;flash unsigned  char text_can1[]=
;{
;//
;56,	68,	64,	64,	64,	68,	56,	0,           //C
;124,	16,	16,	16,	16,	16,	16,	0,      //T
;68,	100,	84,	76,	68,	68,	68,	0,      //N
;56,	68,	68,	68,	84,	72,	52,	0,           //Q
;56,	68,	64,	64,	92,	68,	60,	0,          //G
;17,	42,	56,	4,	60,	68,	60,	0,//'
;120,	68,	68,	120,	68,	68,	120,0,      //B
;120,	68,	68,	228,	68,	68,	120,0,      ///
;0x44,0x6C,0x54,0x44,0x44,0x44,0x44,0x00,  //M
;68,	72,	80,	96,	80,	72,	68,	0  //K
;};
;////////////////////////////////
;// MANG CAN 2
;flash unsigned  char text_can2[]=
;{
;0x00,0x00,0x38,0x04,0x3C,0x44,0x3C,0x00, //a
;16,	40,	56,	4,	60,	68,	60,	0,//
;64,	64,	120,	68,	68,	68,	68,	0,      //h
;0x00,0x00,0x44,0x44,0x44,0x4C,0x34,0x00, //u
;16,	0,	16,	48,	16,	16,	24,	0,//i
;0x00,0x10,0x7C,0x10,0x10,0x14,0x08,0x00,  //t
;2,	20,	0,	16,	48,	16,	24,	0,//i'
;16,	0,	16,	48,	16,	16,	24,	0,//i
;16,	40,	56,	4,	60,	68,	60,	0,//
;48,	16,	68,	68,	68,	60,	8,	48//y
;
;};
;////////////////////////////////
;// MANG CAN 3
;flash unsigned  char text_can3[]=
;{
;0x00,0x00,0x78,0x44,0x44,0x44,0x44,0x00,  //n
;0x00,0x00,0x78,0x44,0x44,0x44,0x44,0x00,  //n
;16,	40,	56,	4,	60,	68,	60,	0,//
;8,	16,	68,	68,	68,	56,	8,	48,            //y
;1,	2,	56,	4,	60,	68,	60,	0,//
;0x00,0x00,0x00,0x00,0x00,0x00,0x00,0x00,
;0x00,0x00,0x78,0x44,0x44,0x44,0x44,0x00,  //n
;0x00,0x00,0x78,0x44,0x44,0x44,0x44,0x00,  //n
;0x00,0x00,0x44,0x44,0x44,0x4C,0x34,0x00, //u
;0x00,0x00,0x00,0x00,0x00,0x00,0x00,0x00
;
;};
;////////////////////////////////
;// MANG CAN 4
;flash unsigned  char text_can4[]=
;{
;64,	64,	120,	68,	68,	68,	68,	0,         //h
;0x00,0x00,0x00,0x00,0x00,0x00,0x00,0x00,
;0,	0,	104,	84,	84,	84,	84,	0,//m
;0x00,0x00,0x00,0x00,0x00,0x00,0x00,0x00,
;0,	0,	120,	68,	68,	120,	64,	64,    //p
;0x00,0x00,0x00,0x00,0x00,0x00,0x00,0x00,
;64,	64,	120,	68,	68,	68,	68,	0,      //h
;64,	64,	120,	68,	68,	68,	68,	0,      //h
;0x00,0x00,0x00,0x00,0x00,0x00,0x00,0x00,
;0x00,0x00,0x00,0x00,0x00,0x00,0x00,0x00
;};
;//********************************************************************************
;//********************************************************************************
;// MANG LUU KY TU 12 CHI: Ty-Suu-Dan_meo_thin-Ty-Ngo_Mui-Than_dau-Tuat-Hoi
;///************************************/
;/************************************/
;flash unsigned  char text_chi1[]=
;{
;0x00,0x00,0x00,0x00,0x00,0x00,0x00,0x00,
;0x00,0x00,0x00,0x00,0x00,0x00,0x00,0x00,
;0x00,0x00,0x00,0x00,0x00,0x00,0x00,0x00,
;0x00,0x00,0x00,0x00,0x00,0x00,0x00,0x00,
;0x00,0x7C,0x10,0x10,0x10,0x10,0x10,0x10,  //T2 ...........
;0x00,0x00,0x00,0x00,0x00,0x00,0x00,0x00,
;0x00,0x00,0x00,0x00,0x00,0x00,0x00,0x00,
;0x00,0x00,0x00,0x00,0x00,0x00,0x00,0x00,
;0x00,0x7C,0x10,0x10,0x10,0x10,0x10,0x10,  //T2 ............
;0x00,0x00,0x00,0x00,0x00,0x00,0x00,0x00,
;0x00,0x7C,0x10,0x10,0x10,0x10,0x10,0x10,  //T2  ...........
;0x00,0x00,0x00,0x00,0x00,0x00,0x00,0x00
;
;};
;/************************************/
;flash unsigned  char text_chi2[]=
;{
;0x00,0x00,0x00,0x00,0x00,0x00,0x00,0x00,
;0x00,0x38,0x44,0x40,0x38,0x04,0x44,0x38,  //S2
;0,	120,	68,	68,	68,	68,	68,	120,     //D
;0x00,0x44,0x6C,0x54,0x44,0x44,0x44,0x44,  //M2
;0x00,0x40,0x40,0x78,0x44,0x44,0x44,0x44,   //h
;0x00,0x00,0x00,0x00,0x00,0x00,0x00,0x00,
;0,	68,	100,	84,	76,	68,	68,	68,         //N
;0x00,0x44,0x6C,0x54,0x44,0x44,0x44,0x44,  //M2
;0x00,0x40,0x40,0x78,0x44,0x44,0x44,0x44,   //h
;0,	120,	68,	68,	68,	68,	68,	120,     //D
;0x00,0x00,0x00,0x44,0x44,0x44,0x4C,0x34,  //u2
;0,	68,	68,	68,	124,	68,	68,	68         //H
;
;};
;/************************************/
;flash unsigned  char text_chi3[]=
;{
;0x00,0x7C,0x10,0x10,0x10,0x10,0x10,0x10,  //T2
;48,	22,	2,	68,	68,	68,	76,	52,//u'?2
;2,	17,	40,	56,	4,	60,	68,	60,//`
;0,	0,	0,	56,	68,	120,	64,	56,       //e2
;0x08,0x04,0x10,0x00,0x10,0x30,0x10,0x18,//i`
;0x00,0x7C,0x10,0x10,0x10,0x10,0x10,0x10,  //T2
;0,	56,	68,	68,	60,	4,	4,	56,//g
;32,	16,	0,	68,	68,	68,	76,	52,//2
;16,	40,	0,	56,	4,	60,	68,	60,//
;16,	40,	0,	56,	4,	60,	68,	60,//
;17,	42,	0,	56,	4,	60,	68,	60,//'
;0,	4,	2,	58,	68,	68,	68,	56//o
;
;};
;/************************************/
;flash unsigned  char text_chi4[]=
;{
;8,	16,	68,	68,	68,	60,	8,	48,//2
;0x00,0x00,0x00,0x44,0x44,0x44,0x4C,0x34,  //u2
;0x00,0x00,0x00,0x78,0x44,0x44,0x44,0x44,   //n
;0x00,0x00,0x00,0x38,0x44,0x44,0x44,0x38,   //o2
;0x00,0x00,0x00,0x78,0x44,0x44,0x44,0x44,   //n
;0,	68,	68,	40,	16,	96,	0,	16,             //Y.
;0,	56,	68,	68,	68,	56,	0,	16,//o.
;0,	16,	0,	16,	48,	16,	16,	24,//i
;0x00,0x00,0x00,0x78,0x44,0x44,0x44,0x44,   //n
;0x00,0x00,0x00,0x44,0x44,0x44,0x4C,0x34,  //u2
;0x00,0x00,0x10,0x7C,0x10,0x10,0x14,0x08,    //t
;0,	16,	0,	16,	48,	16,	16,	24//i
;};
;
;/******************************************/
;/*****************************************/
;flash unsigned  char text_dauxet[]=
;{
;//Dau //
;3,	6,	12,	8,	0,	0,	0,	0,
;0,	0,	0,	16,	48,	96,	192,	128,
;0x64,0x94,0xF4,0x94,0x97,0x00,0x00,0x00       //AL
;};
;
;/*************************/
;flash unsigned  char text_muiten[]=
;{
;0x00,0x00,0x08,0x04,0x7e,0x04,0x08,0x00, //muiten
;};
;
;
;//********************************************************************************
;// MANG LUU KY TU CHINH THOI GIAN HANG DAU
;flash unsigned  char text_sec[]=
;{
;//Sec
;0x38,0x44,0x40,0x38,0x04,0x44,0x38,0x00, // S
;0x00,0x00,0x38,0x44,0x78,0x40,0x38,0x00,
;0,	0,	56,	64,	64,	64,	56,	0
;};
;
;flash unsigned  char text_min[]=
;{
;//Min
;0x44,0x6C,0x54,0x44,0x44,0x44,0x44,0x00,  //M
;16,	0,	16,	48,	16,	16,	24,	0,//i
;0x00,0x00,0x78,0x44,0x44,0x44,0x44,0x00  //n
;};
;
;flash unsigned  char text_hour[]=
;{
;//Hour
;0x44,0x44,0x44,0x7C,0x44,0x44,0x44,0x00,
;0x00,0x00,0x38,0x44,0x44,0x44,0x38,0x00,
;0x00,0x00,0x44,0x44,0x44,0x4C,0x34,0x00, //u
;0x00,0x00,0x58,0x24,0x20,0x20,0x70,0x00
;};
;
;//text_weekday
;flash unsigned  char text_week[]=
;{
;/*
;////Week
;//0x44,0x44,0x54,0x54,0x54,0x54,0x28,0x00,
;//0x00,0x00,0x38,0x44,0x78,0x40,0x38,0x00,
;//0x00,0x00,0x38,0x44,0x78,0x40,0x38,0x00,
;//0x40,0x40,0x48,0x50,0x60,0x50,0x4C,0x00
;*/
;
;// Thu'
;124,	16,	16,	16,	16,	16,	16,	0,      //T
;64,	64,	120,	68,	68,	68,	68,	0,      //h
;6,	2,	68,	68,	68,	76,	52,	0,          //u
;64,	128,	0,	0,	0,	0,	0,	0,      //'
;
;};
;
;flash unsigned  char text_day[]=
;{
;//Date
;0x78,0x44,0x44,0x44,0x44,0x44,0x78,0x00, //D
;0x00,0x00,0x38,0x04,0x3C,0x44,0x3C,0x00, //a
;0x00,0x10,0x7C,0x10,0x10,0x14,0x08,0x00,  //t
;0x00,0x00,0x38,0x44,0x78,0x40,0x38,0x00  //e
;};
;
;flash unsigned  char text_month[]=
;{
;//Month
;0x44,0x6C,0x54,0x44,0x44,0x44,0x44,0x00,
;0x00,0x00,0x38,0x44,0x44,0x44,0x38,0x00,
;0,	1,	227,	145,	145,	145,	145,	0,
;8,	8,	206,	9,	9,	73,	137,	0
;};
;
;flash unsigned  char text_year[]=
;{
;//Year
;0x44,0x44,0x44,0x28,0x10,0x10,0x10,0x00,
;0x00,0x00,0x38,0x44,0x78,0x40,0x38,0x00,
;0x00,0x00,0x38,0x04,0x3C,0x44,0x3C,0x00,
;0x00,0x00,0x58,0x24,0x20,0x20,0x70,0x00
;};
;
;flash unsigned  char text_autohand[]=
;{
;//Auto 1
;//0
;0x38,0x44,0x44,0x44,0x7c,0x44,0x44,0x00,  //A
;0x00,0x00,0x44,0x44,0x44,0x4C,0x34,0x00,   //u
;0x00,0x10,0x7C,0x10,0x10,0x14,0x08,0x00,  //t
;0x00,0x00,0x38,0x44,0x44,0x44,0x38,0x00,  //o
;
;//Hand 2
;//32
;0x44,0x44,0x44,0x7C,0x44,0x44,0x44,0x00,   //H
;0x00,0x00,0x38,0x04,0x3C,0x44,0x3C,0x00, //a
;0x00,0x00,0x78,0x44,0x44,0x44,0x44,0x00,  //n
;0x04,0x04,0x3C,0x44,0x44,0x44,0x3C,0x00, //d
;
;//Mix
;//64
;0x44,0x6C,0x54,0x44,0x44,0x44,0x44,0x00, //M
;16,	0,	16,	48,	16,	16,	24,	0,            //i
;0x00,0x00,0x44,0x28,0x10,0x28,0x44,0x00, //x
;};
;
;//flash unsigned  int text_mode[]=
;//{
;//// Mode
;//0x44,0x6C,0x54,0x44,0x44,0x44,0x44,0x00,
;//0x00,0x00,0x38,0x44,0x44,0x44,0x38,0x00, //o
;//0x04,0x04,0x3C,0x44,0x44,0x44,0x3C,0x00,
;//0x00,0x00,0x38,0x44,0x78,0x40,0x38,0x00
;// };
;
;
;////////////////////////////////////////
;////Bang Font Hang sau
;///*Bang ma font cac thu trong tuan: Sun, Mon, Tue, Wed, Thu, Fri, Sat*/
;//flash unsigned  char font_weekled8[]=
;//{
;//0x00,0x00,0x00,0x00,0x00,0x00,0x00,0x00,///bo so 0
;////SMTWTFS
;//0x00,0x38,0x44,0x40,0x38,0x04,0x44,0x38,  //S2
;//0x00,0x44,0x6C,0x54,0x44,0x44,0x44,0x44,  //M2
;//0x00,0x7C,0x10,0x10,0x10,0x10,0x10,0x10,  //T2
;//0x00,0x44,0x44,0x54,0x54,0x54,0x54,0x28,
;//0x00,0x7C,0x10,0x10,0x10,0x10,0x10,0x10,
;//0x00,0x7C,0x40,0x40,0x78,0x40,0x40,0x40,
;//0x00,0x38,0x44,0x40,0x38,0x04,0x44,0x38
;//};
;//
;//flash unsigned  char font_weekled32[]=
;//{
;//0x00,0x00,0x00,0x00,0x00,0x00,0x00,0x00,///bo so 0
;////uouehra
;//0x00,0x00,0x00,0x44,0x44,0x44,0x4C,0x34,  //u2
;//0x00,0x00,0x00,0x38,0x44,0x44,0x44,0x38,   //o
;//0x00,0x00,0x00,0x44,0x44,0x44,0x4C,0x34,
;//0x00,0x00,0x00,0x38,0x44,0x78,0x40,0x38,    //e
;//0x00,0x40,0x40,0x78,0x44,0x44,0x44,0x44,   //h
;//0x00,0x00,0x00,0x58,0x24,0x20,0x20,0x70,
;//0x00,0x00,0x00,0x38,0x04,0x3C,0x44,0x3C   //a
;//};
;//
;//flash unsigned  char font_weekled40[]=
;//{
;//0x00,0x00,0x00,0x00,0x00,0x00,0x00,0x00,///bo so 0
;////nneuit
;//0x00,0x00,0x00,0x78,0x44,0x44,0x44,0x44,   //n
;//0x00,0x00,0x00,0x78,0x44,0x44,0x44,0x44,
;//0x00,0x00,0x00,0x38,0x44,0x78,0x40,0x38,
;//0x00,0x04,0x04,0x3C,0x44,0x44,0x44,0x3C,
;//0x00,0x00,0x00,0x44,0x44,0x44,0x4C,0x34,
;//0,	16,	0,	16,	48,	16,	20,	24,//i
;//0x00,0x00,0x10,0x7C,0x10,0x10,0x14,0x08    //t
;//};
;
;
;flash unsigned  char font_weekled2[]=
;{
;0x00,0x00,0x00,0x00,0x00,0x00,0x00,0x00,
;    //C.HBTNSB (Hang2)
;0x00,0x38,0x44,0x40,0x40,0x40,0x44,0x39,   //C.
;0,	68,	68,	68,	124,	68,	68,	68,         //H
;0x00,0x78,0x44,0x44,0x78,0x44,0x44,0x78,   //B
;0x00,0x7C,0x10,0x10,0x10,0x10,0x10,0x10,  //T2
;0,	68,	100,	84,	76,	68,	68,	68,         //N
;0x00,0x38,0x44,0x40,0x38,0x04,0x44,0x38,  //S2
;0x00,0x78,0x44,0x44,0x78,0x44,0x44,0x78   //B
;
;};
;
;flash unsigned  char font_weekled3[]=
;{
;0x00,0x00,0x00,0x00,0x00,0x00,0x00,0x00,
;    //n.aauaaa  (Hang2)
;0x00,0x00,0x00,0x70,0x48,0x48,0x48,0x4A,   //n.
;0x00,0x00,0x00,0x38,0x04,0x3C,0x44,0x3C,   //a
;0x00,0x00,0x00,0x38,0x04,0x3C,0x44,0x3C,   //a
;0x00,0x06,0x02,0x44,0x44,0x44,0x4C,0x34,     //uw
;0x24,0x18,0x00,0x38,0x04,0x3C,0x44,0x3C,     //aw
;0x01,0x02,0x00,0x38,0x04,0x3C,0x44,0x3C,      //
;0x00,0x06,0x02,0x38,0x04,0x3C,0x44,0x3C,        //a?
;
;};
;
;flash unsigned  char font_weekled4[]=
;{
;0x00,0x00,0x00,0x00,0x00,0x00,0x00,0x00,
;    //_i_ _muy (Hang2)
;0,	0,	0,	0,	0,	0,	0,	0,
;0,	16,	0,	16,	48,	16,	16,	24,             //i
;0,	0,	0,	0,	0,	0,	0,	0,
;0,	0,	0,	0,	0,	0,	0,	0,
;0x00,0x00,0x00,0x68,0x54,0x54,0x54,0x54,   //m2
;0x00,0x00,0x00,0x44,0x44,0x44,0x4C,0x34,  //u2
;0x00,0x00,0x44,0x44,0x44,0x3C,0x08,0x30  //y
;};
;
;/****************************************/
;flash unsigned  char font_chunhat[]=
;{
;56,	68,	64,	64,	64,	68,	56,	0,           //C 1
;64,	64,	120,	68,	68,	68,	68,	0,      //h  1
;0x30,0x10,0x44,0x44,0x44,0x4C,0x34,0x00,  //u?  1
;
;0,	68,	100,	84,	76,	68,	68,	68,         //N  2
;0x00,0x40,0x40,0x78,0x44,0x44,0x44,0x44,   //h  2
;16,	40,	0,	56,	4,	60,	68,	60,             //  2
;0x00,0x00,0x10,0x7C,0x10,0x10,0x14,0x08    //t
;
;};
;/*************************************/
;/****************************************/
;flash unsigned char font_sohang1[]={
;//Ma so: 0123456789 (Hang 1)
;
;0x38,0x44,0x44,0x44,0x44,0x44,0x38,0x00,    //0
;16,	48,	80,	16,	16,	16,	124,	0,          //1
;0x38,0x44,0x04,0x18,0x20,0x40,0x7C,0x00,    //2
;//0x38,0x44,0x04,0x38,0x04,0x44,0x38,0x00,    //3
;56,	68,	4,	24,	4,	68,	56,	0,                //3
;0x08,0x18,0x28,0x48,0x7C,0x08,0x08,0x00,    //4
;//0x7C,0x40,0x40,0x78,0x04,0x44,0x38,0x00,    //5
;124,	64,	120,	4,	4,	68,	56,	0,        //5
;0x18,0x20,0x40,0x78,0x44,0x44,0x38,0x00,    //6
;0x7C,0x04,0x08,0x10,0x20,0x20,0x20,0x00,    //7
;56,	68,	68,	56,	68,	68,	56,	0,              //8
;56,	68,	68,	60,	4,	8,	48,	0              //9
;};
;/************************************/
;/********************************/
;flash unsigned char font_sohang2[]={
;//Ma so: 0123456789 (Hang 2)
;0x00,0x38,0x44,0x44,0x44,0x44,0x44,0x38,   //0
;0,	16,	48,	80,	16,	16,	16,	124,            //1
;0x00,0x38,0x44,0x04,0x18,0x20,0x40,0x7C,    //2
;//0x00,0x38,0x44,0x04,0x38,0x04,0x44,0x38,    //3
;0x00, 0x38, 0x44, 0x04, 0x18, 0x04, 0x44, 0x38, //3
;0x00,0x08,0x18,0x28,0x48,0x7C,0x08,0x08,    //4
;//0x00,0x7C,0x40,0x40,0x78,0x04,0x44,0x38,    //5
;0x00, 0x7c, 0x40, 0x78, 0x04, 0x04, 0x44, 0x38, // 5
;0x00,0x18,0x20,0x40,0x78,0x44,0x44,0x38,    //6
;0x00,0x7C,0x04,0x08,0x10,0x20,0x20,0x20,    //7
;0,	56,	68,	68,	56,	68,	68,	56,             //8
;0,	56,	68,	68,	60,	4,	8,	48              //9
;};
;/***************************************************/
;flash unsigned char font_sohang1_tr[]={
;///Chi dung cho don vi ngay
;0x70,0x88,0x88,0x88,0x88,0x88,0x70,0x00, //0
;0x20,0x60,0xA0,0x20,0x20,0x20,0xF8,0x00, //1
;0x70,0x88,0x08,0x30,0x40,0x80,0xF8,0x00, //2
;0x70,0x88,0x08,0x30,0x08,0x88,0x70,0x00, //3
;0x10,0x30,0x50,0x90,0xF8,0x10,0x10,0x00, //4
;0xF8,0x80,0xF0,0x08,0x08,0x88,0x70,0x00, //5
;0x30,0x40,0x80,0xF0,0x88,0x88,0x70,0x00, //6
;0xF8,0x08,0x10,0x20,0x40,0x40,0x40,0x00, //7
;0x70,0x88,0x88,0x70,0x88,0x88,0x70,0x00, //8
;0x70,0x88,0x88,0x78,0x08,0x10,0x60,0x00, //9
;};
;/**********************************/
;flash unsigned char font_sohang1_ch[]={
;///Chi dung cho chuc thang
;0x1C,0x22,0x22,0x22,0x22,0x22,0x1C,0x00, //0
;0x08,0x18,0x28,0x08,0x08,0x08,0x3E,0x00, //1
;0x1C,0x22,0x02,0x0C,0x10,0x20,0x3E,0x00, //2
;0x1C,0x22,0x02,0x0C,0x02,0x22,0x1C,0x00, //3
;0x04,0x0C,0x14,0x24,0x3e,0x04,0x04,0x00, //4
;0x3E,0x20,0x3C,0x02,0x02,0x22,0x1C,0x00, //5
;0x0C,0x10,0x20,0x3C,0x22,0x22,0x1C,0x00, //6
;0x3E,0x02,0x04,0x08,0x10,0x10,0x10,0x00, //7
;0x1C,0x22,0x22,0x1C,0x22,0x22,0x1C,0x00, //8
;0x1C,0x22,0x22,0x1E,0x02,0x04,0x18,0x00, //9
;};
;
;/*******************************************/
;flash unsigned char font_sohang2_ch[]={
;//Chi dung cho chuc thang am lich
;0x00,0x1C,0x22,0x22,0x22,0x22,0x22,0x1C,//0
;0x00,0x08,0x18,0x28,0x08,0x08,0x08,0x3E,
;0x00,0x1C,0x22,0x02,0x0c,0x10,0x20,0x3E,
;0x00,0x1C,0x22,0x02,0x0e,0x02,0x22,0x1C,
;0x00,0x04,0x0C,0x14,0x24,0x3E,0x04,0x04,
;0x00,0x3E,0x20,0x3C,0x02,0x02,0x22,0x1C,
;0x00,0x0C,0x10,0x20,0x3c,0x22,0x22,0x1C,
;0x00,0x3E,0x02,0x04,0x08,0x10,0x10,0x10,
;0x00,0x1C,0x22,0x22,0x1c,0x22,0x22,0x1C,
;0x00,0x1C,0x22,0x22,0x1e,0x02,0x04,0x18,
;};
;
;/*************************************************/
;// BANG MA LUU DU LIEU LICH AM
;flash unsigned char ngayALdauthangDL[18][12] = {
;//	{17,18,16,27,18,19,20,21,23,24,25,26},//2010
;//	{27,29,27,28,29,30, 1, 2, 4, 5, 6, 7},//2011
;//	{ 8,10, 9,11,11,12,13,14,16,16,18,18},//2012
;
;	{20,21,20,21,22,23,24,25,26,27,28,29},//2013
;	{ 1, 2, 1, 2, 3, 4, 5, 6, 8, 8, 9,10},//2014
;	{11,13,11,13,13,15,16,17,19,19,20,20},//2015
;	{22,23,23,24,25,26,27,29, 1, 1, 2, 3},//2016
;	{ 4, 5, 4, 5, 6, 7, 8,10,11,12,13,14},//2017
;	{15,16,14,16,16,18,18,20,22,22,24,25},//2018
;	{26,27,25,27,27,28,29, 1, 3, 3, 5, 6},//2019
;	{ 7, 8, 8, 9, 9,10,11,12,14,15,16,17},//2020
;
;	{19,20,18,20,20,21,22,23,25,25,27,27},//2021
;	{29, 1,29, 1, 1, 3, 3, 4, 6, 6, 8, 8},//2022
;	{10,11,20,11,12,14,14,15,17,17,18,19},//2023
;	{20,22,21,23,23,25,26,27,29,29, 1, 1},//2024
;	{ 2, 4, 2, 4, 4, 6, 7, 8,10,10,12,12},//2025
;	{13,14,13,14,15,16,17,19,20,21,23,23},//2026
;	{24,25,24,25,25,27,27,29, 1, 2, 4, 4},//2027
;	{ 5, 7, 6, 7, 7, 9, 9,11,13,13,15,16},//2028
;	{17,18,17,18,18,20,20,22,23,24,25,26},//2029
;	{28,29,28,29,29, 1, 1, 3, 4, 5, 6, 7} //2030
;};
;
;/////////////////////////////////////////////
;
;flash unsigned char thangALdauthangDL[18][12] = {
;//	{11,12, 1, 2, 3, 4, 5, 6, 7, 8, 9,10},//2010
;//	{11,12, 1, 2, 3, 4, 6, 7, 8, 9,10,11},//2011
;//	{12, 1, 2, 3, 4, 4, 5, 6, 7, 8, 9,10},//2012
;
;	{11,12, 1, 2, 3, 4, 5, 6, 7, 8, 9,10},//2013
;	{12, 1, 2, 3, 4, 5, 6, 7, 8, 9, 9,10},//2014
;	{11,12, 1, 2, 3, 4, 5, 6, 7, 8, 9,10},//2015
;	{11,12, 1, 2, 3, 4, 5, 6, 8, 9,10,11},//2016
;	{12, 1, 2, 3, 4, 5, 6, 6, 7, 8, 9,10},//2017
;	{11,12, 1, 2, 3, 4, 5, 6, 7, 8, 9,10},//2018
;	{11,12, 1, 2, 3, 4, 5, 7, 8, 9,10,11},//2019
;	{12, 1, 2, 3, 4, 4, 5, 6, 7, 8, 9,10},//2020
;
;	{11,12, 1, 2, 3, 4, 5, 6, 7, 8, 9,10},//2021
;	{11, 1, 1, 3, 4, 5, 6, 7, 8, 9,10,11},//2022
;	{12, 1, 2, 2, 3, 4, 5, 6, 7, 8, 9,10},//2023
;	{11,12, 1, 2, 3, 4, 5, 6, 7, 8,10,11},//2024
;	{12, 1, 2, 3, 4, 5, 6, 6, 7, 8, 9,10},//2025
;	{11,12, 1, 2, 3, 4, 5, 6, 7, 8, 9,10},//2026
;	{11,12, 1, 2, 3, 4, 5, 6, 8, 9,10,11},//2027
;	{12, 1, 2, 3, 4, 5, 5, 6, 7, 8, 9,10},//2028
;	{11,12, 1, 2, 3, 4, 5, 6, 7, 8, 9,10},//2029
;	{11,12, 1, 2, 3, 5, 6, 7, 8, 9,10,11}//2030
;};
;
;//////////////////////////////////////
;
;flash unsigned char ngayDLdauthangAL[18][12] = {
;//	{15,14,16, 5,14,12,12,10, 8, 8, 6, 6},//2010
;//	{ 4, 3, 5, 3, 3, 2,31,29,27,27,25,25},//2011
;//	{23,22,22,21,21,19,19,17,16,15,14,13},//2012
;
;	{12,10,12,10,10, 8, 8, 7, 5, 5, 3, 3},//2013
;
;	{31,31,31,29,29,27,27,25,24,24,22,22},//2014
;	{20,19,20,19,18,16,16,14,13,13,12,11},//2015
;	{10, 8, 9, 7, 7, 5, 4, 3, 1,31,29,29},//2016
;	{28,26,28,26,26,24,23,22,20,20,18,18},//2017
;	{17,16,17,16,15,14,13,11,10, 9, 7, 7},//2018
;	{ 6, 5, 6, 5, 5, 3, 3,30,29,28,26,26},//2019
;	{25,23,24,23,23,21,21,19,17,17,15,14},//2020
;
;	{13,12,13,12,12,10,10, 8, 7, 6, 5, 4},//2021
;	{ 3,29, 3,31,30,29,29,27,26,25,24,23},//2022
;	{22,20,22,20,19,18,18,16,15,15,13,13},//2023
;	{11,10,10, 9, 8, 6, 6, 4, 3, 3,31,31},//2024
;	{29,28,29,28,27,25,25,23,22,21,20,20},//2025
;	{19,17,19,17,17,15,14,13,11,10, 9, 9},//2026
;	{ 8, 6, 8, 7, 6, 5, 4, 1,30,29,28,28},//2027
;	{26,25,26,25,24,23,22,20,19,18,16,16},//2028
;	{15,23,15,14,13,12,11,10, 8, 8, 6, 5},//2029
;	{ 4, 2, 4,31, 2,30,30,29,27,27,25,25}//2030
;};
;
;//////////////////////////////////////////////////////
;
;flash unsigned char thangALdauthangAL[18][12] = {
;//	{12, 1, 2, 3, 4, 5, 6, 7, 8, 9,10,11},//2010
;//	{12, 1, 2, 3, 4, 5, 7, 8, 9,10,11,12},//2011
;//	{ 1, 2, 3, 4, 4, 5, 6, 7, 8, 9,10,11},//2012
;
;	{12, 1, 2, 3, 4, 5, 6, 7, 8, 9,10,11},//2013
;
;	{ 1, 2, 3, 4, 5, 6, 7, 8, 9, 9,10,11},//2014
;	{12, 1, 2, 3, 4, 5, 6, 7, 8, 9,10,11},//2015
;	{12, 1, 2, 3, 4, 5, 6, 7, 8,10,11,12},//2016
;	{ 1, 2, 3, 4, 5, 6, 6, 7, 8, 9,10,11},//2017
;	{12, 1, 2, 3, 4, 5, 6, 7, 8, 9,10,11},//2018
;	{12, 1, 2, 3, 4, 5, 6, 8, 9,10,11,12},//2019
;	{ 1, 2, 3, 4, 4, 5, 6, 7, 8, 9,10,11},//2020
;
;	{12, 1, 2, 3, 4, 5, 6, 7, 8, 9,10,11},//2021
;	{12, 1, 2, 3, 5, 6, 7, 8, 9,10,11,12},//2022
;	{ 1, 2, 2, 3, 4, 5, 6, 7, 8, 9,10,11},//2023
;	{12, 1, 2, 3, 4, 5, 6, 7, 8, 9,10,12},//2024
;	{ 1, 2, 3, 4, 5, 6, 6, 7, 8, 9,10,11},//2025
;	{12, 1, 2, 3, 4, 5, 6, 7, 8, 9,10,11},//2026
;	{12, 1, 2, 3, 4, 5, 6, 7, 9,10,11,12},//2027
;	{ 1, 2, 3, 4, 5, 5, 6, 7, 8, 9,10,11},//2028
;	{12, 1, 2, 3, 4, 5, 6, 7, 8, 9,10,11},//2029
;	{12, 1, 2, 3, 4, 5, 7, 8, 9,10,11,12}//2030
;};
;#include <SpiMem.c>
;// chuong trinh con spi mem
;
;/*----------------------------------------------------------------------------*/
;// ctc chot du lieu
;void latch_data(void)
; 0000 0027 {

	.CSEG
_latch_data:
;  CKL=0;
	CBI  0x18,7
;  CKL=1;
	SBI  0x18,7
;}
	RET
;/*----------------------------------------------------------------------------*/
;
;/*----------------------------------------------------------------------------*/
;// ctc dich du lieu
;void Shift_data(void)
;{
_Shift_data:
;  SCLK=0;
	CBI  0x18,3
;  SCLK=1;
	SBI  0x18,3
;}
	RET
;/*----------------------------------------------------------------------------*/
;
;void spi_mem(unsigned char data)
;{
_spi_mem:
;    unsigned char n;
;    for(n=0x80;n!=0;n>>=1)  // SPI Data Order: MSB First
	ST   -Y,R26
	ST   -Y,R17
;	data -> Y+1
;	n -> R17
	LDI  R17,LOW(128)
_0xE:
	CPI  R17,0
	BREQ _0xF
;    {
;        R=~data&n;       //  ='0' khi data&n=0, ='1' khi data&n!=0
	LDD  R30,Y+1
	COM  R30
	AND  R30,R17
	BRNE _0x10
	CBI  0x18,5
	RJMP _0x11
_0x10:
	SBI  0x18,5
_0x11:
;        Shift_data();   // dich bit
	RCALL _Shift_data
;    };
	LSR  R17
	RJMP _0xE
_0xF:
;}
	LDD  R17,Y+0
	ADIW R28,2
	RET
;
;
;#include <ScreenScan.c>
;//*****************************************************************************
;// ctc hien thi du lieu ra man hinh
;/*----------------------------------------------------------------------------*/
;
;void scan_screen(void)
; 0000 0028 {
_scan_screen:
;    OE=1;  //  "0" thi enalbe 74138, "1" disable 74138
	SBI  0x18,4
;    if(dem==0)
	TST  R11
	BREQ PC+3
	JMP _0x14
;      for(i=0;i<wb;i++)
	LDI  R30,LOW(0)
	STS  _i,R30
	STS  _i+1,R30
_0x16:
	CALL SUBOPT_0x0
	BRLO PC+3
	JMP _0x17
;      {
;        if(i==0)
	LDS  R30,_i
	LDS  R31,_i+1
	SBIW R30,0
	BRNE _0x18
;        {
;            spi_mem(buf_screen_1[(r+12)+i]);
	CALL SUBOPT_0x1
	CALL SUBOPT_0x2
	CALL SUBOPT_0x3
;            spi_mem(buf_screen_1[(r+8)+i]);
	CALL SUBOPT_0x4
	CALL SUBOPT_0x3
;            spi_mem(buf_screen_1[(r+4)+i]);
	CALL SUBOPT_0x5
	CALL SUBOPT_0x3
;            spi_mem(buf_screen_1[(r+0)+i]);
	CALL SUBOPT_0x6
	SUBI R30,LOW(-_buf_screen_1)
	SBCI R31,HIGH(-_buf_screen_1)
	LD   R26,Z
	RCALL _spi_mem
;        }
;        if(i==1)
_0x18:
	CALL SUBOPT_0x7
	SBIW R26,1
	BRNE _0x19
;        {
;            spi_mem(buf_screen_1[(r+12)+i+15]);
	CALL SUBOPT_0x8
	CALL SUBOPT_0x9
;            spi_mem(buf_screen_1[(r+8)+i+15]);
	CALL SUBOPT_0x4
	CALL SUBOPT_0x9
;            spi_mem(buf_screen_1[(r+4)+i+15]);
	CALL SUBOPT_0x5
	CALL SUBOPT_0x9
;            spi_mem(buf_screen_1[(r+0)+i+15]);
	CALL SUBOPT_0x6
	__ADDW1MN _buf_screen_1,15
	LD   R26,Z
	RCALL _spi_mem
;        }
;        if(i==2)
_0x19:
	CALL SUBOPT_0x7
	SBIW R26,2
	BRNE _0x1A
;        {
;            spi_mem(buf_screen_1[(r+12)+i+30]);
	CALL SUBOPT_0x8
	CALL SUBOPT_0xA
;            spi_mem(buf_screen_1[(r+8)+i+30]);
	CALL SUBOPT_0x4
	CALL SUBOPT_0xA
;            spi_mem(buf_screen_1[(r+4)+i+30]);
	CALL SUBOPT_0x5
	CALL SUBOPT_0xA
;            spi_mem(buf_screen_1[(r+0)+i+30]);
	CALL SUBOPT_0x6
	__ADDW1MN _buf_screen_1,30
	LD   R26,Z
	RCALL _spi_mem
;        }
;        if(i==3)
_0x1A:
	CALL SUBOPT_0x7
	SBIW R26,3
	BRNE _0x1B
;        {
;            spi_mem(buf_screen_1[(r+12)+i+45]);
	CALL SUBOPT_0x8
	CALL SUBOPT_0xB
;            spi_mem(buf_screen_1[(r+8)+i+45]);
	CALL SUBOPT_0x4
	CALL SUBOPT_0xB
;            spi_mem(buf_screen_1[(r+4)+i+45]);
	CALL SUBOPT_0x5
	CALL SUBOPT_0xB
;            spi_mem(buf_screen_1[(r+0)+i+45]);
	CALL SUBOPT_0x6
	__ADDW1MN _buf_screen_1,45
	LD   R26,Z
	RCALL _spi_mem
;        }
;      };
_0x1B:
	CALL SUBOPT_0xC
	RJMP _0x16
_0x17:
_0x14:
;
;     if(dem==1)
	LDI  R30,LOW(1)
	CP   R30,R11
	BRNE _0x1C
;     for(i=0;i<wb;i++)
	LDI  R30,LOW(0)
	STS  _i,R30
	STS  _i+1,R30
_0x1E:
	CALL SUBOPT_0x0
	BRSH _0x1F
;     {
;       if(status_buf)
	SBRS R3,0
	RJMP _0x20
;      {
;        spi_mem(buf_screen_1[(r+12)*wb+i]);
	CALL SUBOPT_0xD
	CALL SUBOPT_0x3
;        spi_mem(buf_screen_1[(r+8)*wb+i]);
	CALL SUBOPT_0xE
	CALL SUBOPT_0x3
;        spi_mem(buf_screen_1[(r+4)*wb+i]);
	CALL SUBOPT_0xF
	CALL SUBOPT_0x3
;        spi_mem(buf_screen_1[(r+0)*wb+i]);
	CALL SUBOPT_0x10
	SUBI R30,LOW(-_buf_screen_1)
	SBCI R31,HIGH(-_buf_screen_1)
	RJMP _0x393
;      }
;      else
_0x20:
;      {
;        spi_mem(buf_screen_0[(r+12)*wb+i]);
	CALL SUBOPT_0xD
	CALL SUBOPT_0x11
;        spi_mem(buf_screen_0[(r+8)*wb+i]);
	CALL SUBOPT_0xE
	CALL SUBOPT_0x11
;        spi_mem(buf_screen_0[(r+4)*wb+i]);
	CALL SUBOPT_0xF
	CALL SUBOPT_0x11
;        spi_mem(buf_screen_0[(r+0)*wb+i]);
	CALL SUBOPT_0x10
	SUBI R30,LOW(-_buf_screen_0)
	SBCI R31,HIGH(-_buf_screen_0)
_0x393:
	LD   R26,Z
	RCALL _spi_mem
;      };
;     };
	CALL SUBOPT_0xC
	RJMP _0x1E
_0x1F:
_0x1C:
;     latch_data();
	RCALL _latch_data
;     ROW=r; // hang thu r duoc hien thi
	LDS  R30,_r
	OUT  0x18,R30
;     OE=0; // enable 74138
	CBI  0x18,4
;     r++;
	LDI  R26,LOW(_r)
	LDI  R27,HIGH(_r)
	CALL SUBOPT_0x12
;     if (r==4)
	LDS  R26,_r
	LDS  R27,_r+1
	SBIW R26,4
	BRNE _0x24
;     {
;       r=0;
	LDI  R30,LOW(0)
	STS  _r,R30
	STS  _r+1,R30
;     }
;}
_0x24:
	RET
;
;/*----------------------------------------------------------------------------*/
;
;//*******************************************************************************
;
;#define AUTOHAND         PINA.1
;#define OK               PINA.0
;#define EXIT             PINC.2
;#define UP               PINC.3
;#define DOWN             PINC.4
;#define SETUP            PINA.5
;#define SETDOWN          PINA.3
;///chan con lai mass
;
;#define BUZZER   PORTD.0
;
;// I2C Bus functions
;#asm
   .equ __i2c_port=0x15 ;PORTC
   .equ __sda_bit=1
   .equ __scl_bit=0
; 0000 003A #endasm
;#include <i2c.h>
;// DS1307 Real Time Clock functions
;#include <ds1307.h>
;
;// Cac chuong trinh tao hieu ung cho led matrix
;#include <ShiftLeft.c>
;//******************************************************************
;// Hieu ung dich trai msg
;/*----------------------------------------------------------------------------*/
; // ctc cap nhat byte du lieu de dich trai
; /************************************************/
; void up_data_1(void)
; 0000 0040  {
_up_data_1:
; // b_shift=0: dich du lieu man hinh ra ngoai, va tu flash vao trong man hinh
; // b_shft=1: chi dich du lieu man hinh ra ngoai => b_data lun lun=0
;
;    if(hieuung==0 || hieuung==5)  //Time:
	LDS  R26,_hieuung
	CPI  R26,LOW(0x0)
	BREQ _0x26
	CPI  R26,LOW(0x5)
	BRNE _0x25
_0x26:
;    {
;           if ((b_shift==1)||(count_byte>=msg0[2]))
	SBRC R3,1
	RJMP _0x29
	CALL SUBOPT_0x13
	BRLO _0x28
_0x29:
;           {
;             b_data=0;
	CALL SUBOPT_0x14
;           }
;           else
	RJMP _0x2B
_0x28:
;           {
;             if ((b_shift==0)&&(count_byte<msg0[2]))
	CALL SUBOPT_0x15
	BRNE _0x2D
	CALL SUBOPT_0x13
	BRLO _0x2E
_0x2D:
	RJMP _0x2C
_0x2E:
;             {
;               b_data=(msg0[row*msg0[2]+count_byte+3]<<count_bit);
	__POINTW1FN _msg0,2
	CALL SUBOPT_0x16
	__ADDW1FN _msg0,3
	CALL SUBOPT_0x17
;             }
;           }
_0x2C:
_0x2B:
;    }
;  /**********************************/
;    else if(hieuung==1)  //Duong Lich:
	RJMP _0x2F
_0x25:
	LDS  R26,_hieuung
	CPI  R26,LOW(0x1)
	BRNE _0x30
;    {
;           if ((b_shift==1)||(count_byte>=msg1[2]))
	SBRC R3,1
	RJMP _0x32
	CALL SUBOPT_0x18
	BRLO _0x31
_0x32:
;           {
;             b_data=0;
	CALL SUBOPT_0x14
;           }
;           else
	RJMP _0x34
_0x31:
;           {
;             if ((b_shift==0)&&(count_byte<msg1[2]))
	CALL SUBOPT_0x15
	BRNE _0x36
	CALL SUBOPT_0x18
	BRLO _0x37
_0x36:
	RJMP _0x35
_0x37:
;             {
;               b_data=(msg1[row*msg1[2]+count_byte+3]<<count_bit);
	__POINTW1FN _msg1,2
	CALL SUBOPT_0x16
	__ADDW1FN _msg1,3
	CALL SUBOPT_0x17
;             }
;           }
_0x35:
_0x34:
;    }
;  /**********************************/
;    else if(hieuung==2)  //Duong Lich:
	RJMP _0x38
_0x30:
	LDS  R26,_hieuung
	CPI  R26,LOW(0x2)
	BRNE _0x39
;    {
;           if ((b_shift==1)||(count_byte>=msg2[2]))
	SBRC R3,1
	RJMP _0x3B
	CALL SUBOPT_0x19
	BRLO _0x3A
_0x3B:
;           {
;             b_data=0;
	CALL SUBOPT_0x14
;           }
;           else
	RJMP _0x3D
_0x3A:
;           {
;             if ((b_shift==0)&&(count_byte<msg2[2]))
	CALL SUBOPT_0x15
	BRNE _0x3F
	CALL SUBOPT_0x19
	BRLO _0x40
_0x3F:
	RJMP _0x3E
_0x40:
;             {
;               b_data=(msg2[row*msg2[2]+count_byte+3]<<count_bit);
	__POINTW1FN _msg2,2
	CALL SUBOPT_0x16
	__ADDW1FN _msg2,3
	CALL SUBOPT_0x17
;             }
;           }
_0x3E:
_0x3D:
;    }
;  /**********************************/
;    else if(hieuung==3)  //Am Lich:
	RJMP _0x41
_0x39:
	LDS  R26,_hieuung
	CPI  R26,LOW(0x3)
	BRNE _0x42
;    {
;           if ((b_shift==1)||(count_byte>=msg3[2]))
	SBRC R3,1
	RJMP _0x44
	CALL SUBOPT_0x1A
	BRLO _0x43
_0x44:
;           {
;             b_data=0;
	CALL SUBOPT_0x14
;           }
;           else
	RJMP _0x46
_0x43:
;           {
;             if ((b_shift==0)&&(count_byte<msg3[2]))
	CALL SUBOPT_0x15
	BRNE _0x48
	CALL SUBOPT_0x1A
	BRLO _0x49
_0x48:
	RJMP _0x47
_0x49:
;             {
;               b_data=(msg3[row*msg3[2]+count_byte+3]<<count_bit);
	__POINTW1FN _msg3,2
	CALL SUBOPT_0x16
	__ADDW1FN _msg3,3
	CALL SUBOPT_0x17
;             }
;           }
_0x47:
_0x46:
;    }
;   /**********************************/
;    else if(hieuung==4)  //Duong Lich:
	RJMP _0x4A
_0x42:
	LDS  R26,_hieuung
	CPI  R26,LOW(0x4)
	BRNE _0x4B
;    {
;           if ((b_shift==1)||(count_byte>=msg4[2]))
	SBRC R3,1
	RJMP _0x4D
	CALL SUBOPT_0x1B
	BRLO _0x4C
_0x4D:
;           {
;             b_data=0;
	CALL SUBOPT_0x14
;           }
;           else
	RJMP _0x4F
_0x4C:
;           {
;             if ((b_shift==0)&&(count_byte<msg4[2]))
	CALL SUBOPT_0x15
	BRNE _0x51
	CALL SUBOPT_0x1B
	BRLO _0x52
_0x51:
	RJMP _0x50
_0x52:
;             {
;               b_data=(msg4[row*msg4[2]+count_byte+3]<<count_bit);
	__POINTW1FN _msg4,2
	CALL SUBOPT_0x16
	__ADDW1FN _msg4,3
	CALL SUBOPT_0x17
;             }
;           }
_0x50:
_0x4F:
;    }
;//  /**********************************/
;//  /**********************************/
;//    else if(hieuung==7)  //Buoi sang vui ve !
;//    {
;//           if ((b_shift==1)||(count_byte>=msg8[2]))
;//           {
;//             b_data=0;
;//           }
;//           else
;//           {
;//             if ((b_shift==0)&&(count_byte<msg8[2]))
;//             {
;//               b_data=(msg8[row*msg8[2]+count_byte+3]<<count_bit);
;//             }
;//           }
;//    }
;//  /**********************************/
;//    else if(hieuung==8)  //Chuc ngu ngon!
;//    {
;//           if ((b_shift==1)||(count_byte>=msg9[2]))
;//           {
;//             b_data=0;
;//           }
;//           else
;//           {
;//             if ((b_shift==0)&&(count_byte<msg9[2]))
;//             {
;//               b_data=(msg9[row*msg9[2]+count_byte+3]<<count_bit);
;//             }
;//           }
;//    }
;   /**********************************/
;    else if(hieuung==9)  //
	RJMP _0x53
_0x4B:
	LDS  R26,_hieuung
	CPI  R26,LOW(0x9)
	BRNE _0x54
;    {
;           if ((b_shift==1)||(count_byte>=msg9[2]))
	SBRC R3,1
	RJMP _0x56
	CALL SUBOPT_0x1C
	BRLO _0x55
_0x56:
;           {
;             b_data=0;
	CALL SUBOPT_0x14
;           }
;           else
	RJMP _0x58
_0x55:
;           {
;             if ((b_shift==0)&&(count_byte<msg9[2]))
	CALL SUBOPT_0x15
	BRNE _0x5A
	CALL SUBOPT_0x1C
	BRLO _0x5B
_0x5A:
	RJMP _0x59
_0x5B:
;             {
;               b_data=(msg9[row*msg9[2]+count_byte+3]<<count_bit);
	__POINTW1FN _msg9,2
	CALL SUBOPT_0x16
	__ADDW1FN _msg9,3
	CALL SUBOPT_0x17
;             }
;           }
_0x59:
_0x58:
;    }
; /**********************************/
;    else if(hieuung==10)  //Chuc mung nam moi
	RJMP _0x5C
_0x54:
	LDS  R26,_hieuung
	CPI  R26,LOW(0xA)
	BRNE _0x5D
;    {
;           if ((b_shift==1)||(count_byte>=msg10[2]))
	SBRC R3,1
	RJMP _0x5F
	CALL SUBOPT_0x1D
	BRLO _0x5E
_0x5F:
;           {
;             b_data=0;
	CALL SUBOPT_0x14
;           }
;           else
	RJMP _0x61
_0x5E:
;           {
;             if ((b_shift==0)&&(count_byte<msg10[2]))
	CALL SUBOPT_0x15
	BRNE _0x63
	CALL SUBOPT_0x1D
	BRLO _0x64
_0x63:
	RJMP _0x62
_0x64:
;             {
;               b_data=(msg10[row*msg10[2]+count_byte+3]<<count_bit);
	__POINTW1FN _msg10,2
	CALL SUBOPT_0x16
	__ADDW1FN _msg10,3
	CALL SUBOPT_0x17
;             }
;           }
_0x62:
_0x61:
;    }
;    /***************************************/
;    else if(hieuung==11)  //Tet toi tan tai-Xuan sang dac loc !
	RJMP _0x65
_0x5D:
	LDS  R26,_hieuung
	CPI  R26,LOW(0xB)
	BRNE _0x66
;    {
;           if ((b_shift==1)||(count_byte>=msg11[2]))
	SBRC R3,1
	RJMP _0x68
	CALL SUBOPT_0x1E
	BRLO _0x67
_0x68:
;           {
;             b_data=0;
	CALL SUBOPT_0x14
;           }
;           else
	RJMP _0x6A
_0x67:
;           {
;             if ((b_shift==0)&&(count_byte<msg11[2]))
	CALL SUBOPT_0x15
	BRNE _0x6C
	CALL SUBOPT_0x1E
	BRLO _0x6D
_0x6C:
	RJMP _0x6B
_0x6D:
;             {
;               b_data=(msg11[row*msg11[2]+count_byte+3]<<count_bit);
	__POINTW1FN _msg11,2
	CALL SUBOPT_0x16
	__ADDW1FN _msg11,3
	CALL SUBOPT_0x17
;             }
;           }
_0x6B:
_0x6A:
;    }
;    /************************************/
;    else if(hieuung==12)  //Tet toi tan tai-Xuan sang dac loc !
	RJMP _0x6E
_0x66:
	LDS  R26,_hieuung
	CPI  R26,LOW(0xC)
	BRNE _0x6F
;    {
;           if ((b_shift==1)||(count_byte>=msg12[2]))
	SBRC R3,1
	RJMP _0x71
	CALL SUBOPT_0x1F
	BRLO _0x70
_0x71:
;           {
;             b_data=0;
	CALL SUBOPT_0x14
;           }
;           else
	RJMP _0x73
_0x70:
;           {
;             if ((b_shift==0)&&(count_byte<msg12[2]))
	CALL SUBOPT_0x15
	BRNE _0x75
	CALL SUBOPT_0x1F
	BRLO _0x76
_0x75:
	RJMP _0x74
_0x76:
;             {
;               b_data=(msg12[row*msg12[2]+count_byte+3]<<count_bit);
	__POINTW1FN _msg12,2
	CALL SUBOPT_0x16
	__ADDW1FN _msg12,3
	CALL SUBOPT_0x17
;             }
;           }
_0x74:
_0x73:
;    }
;/********************************/
;    else if(hieuung==13)  //Tet toi tan tai-Xuan sang dac loc !
	RJMP _0x77
_0x6F:
	LDS  R26,_hieuung
	CPI  R26,LOW(0xD)
	BRNE _0x78
;    {
;           if ((b_shift==1)||(count_byte>=msg13[2]))
	SBRC R3,1
	RJMP _0x7A
	CALL SUBOPT_0x20
	BRLO _0x79
_0x7A:
;           {
;             b_data=0;
	CALL SUBOPT_0x14
;           }
;           else
	RJMP _0x7C
_0x79:
;           {
;             if ((b_shift==0)&&(count_byte<msg13[2]))
	CALL SUBOPT_0x15
	BRNE _0x7E
	CALL SUBOPT_0x20
	BRLO _0x7F
_0x7E:
	RJMP _0x7D
_0x7F:
;             {
;               b_data=(msg13[row*msg13[2]+count_byte+3]<<count_bit);
	__POINTW1FN _msg13,2
	CALL SUBOPT_0x16
	__ADDW1FN _msg13,3
	CALL SUBOPT_0x17
;             }
;           }
_0x7D:
_0x7C:
;    }
;
;
;  /************************************/
;  /*NGAY LE AM LICH*/
;   /**********************************/
;    else if(hieuung==15)  //
	RJMP _0x80
_0x78:
	LDS  R26,_hieuung
	CPI  R26,LOW(0xF)
	BRNE _0x81
;    {
;           if ((b_shift==1)||(count_byte>=msg15[2]))
	SBRC R3,1
	RJMP _0x83
	CALL SUBOPT_0x21
	BRLO _0x82
_0x83:
;           {
;             b_data=0;
	CALL SUBOPT_0x14
;           }
;           else
	RJMP _0x85
_0x82:
;           {
;             if ((b_shift==0)&&(count_byte<msg15[2]))
	CALL SUBOPT_0x15
	BRNE _0x87
	CALL SUBOPT_0x21
	BRLO _0x88
_0x87:
	RJMP _0x86
_0x88:
;             {
;               b_data=(msg15[row*msg15[2]+count_byte+3]<<count_bit);
	__POINTW1FN _msg15,2
	CALL SUBOPT_0x16
	__ADDW1FN _msg15,3
	CALL SUBOPT_0x17
;             }
;           }
_0x86:
_0x85:
;    }
; /**********************************/
;    else if(hieuung==16)  //
	RJMP _0x89
_0x81:
	LDS  R26,_hieuung
	CPI  R26,LOW(0x10)
	BRNE _0x8A
;    {
;           if ((b_shift==1)||(count_byte>=msg16[2]))
	SBRC R3,1
	RJMP _0x8C
	CALL SUBOPT_0x22
	BRLO _0x8B
_0x8C:
;           {
;             b_data=0;
	CALL SUBOPT_0x14
;           }
;           else
	RJMP _0x8E
_0x8B:
;           {
;             if ((b_shift==0)&&(count_byte<msg16[2]))
	CALL SUBOPT_0x15
	BRNE _0x90
	CALL SUBOPT_0x22
	BRLO _0x91
_0x90:
	RJMP _0x8F
_0x91:
;             {
;               b_data=(msg16[row*msg16[2]+count_byte+3]<<count_bit);
	__POINTW1FN _msg16,2
	CALL SUBOPT_0x16
	__ADDW1FN _msg16,3
	CALL SUBOPT_0x17
;             }
;           }
_0x8F:
_0x8E:
;    }
;    /***************************************/
;    else if(hieuung==17)  //
	RJMP _0x92
_0x8A:
	LDS  R26,_hieuung
	CPI  R26,LOW(0x11)
	BRNE _0x93
;    {
;           if ((b_shift==1)||(count_byte>=msg17[2]))
	SBRC R3,1
	RJMP _0x95
	CALL SUBOPT_0x23
	BRLO _0x94
_0x95:
;           {
;             b_data=0;
	CALL SUBOPT_0x14
;           }
;           else
	RJMP _0x97
_0x94:
;           {
;             if ((b_shift==0)&&(count_byte<msg17[2]))
	CALL SUBOPT_0x15
	BRNE _0x99
	CALL SUBOPT_0x23
	BRLO _0x9A
_0x99:
	RJMP _0x98
_0x9A:
;             {
;               b_data=(msg17[row*msg17[2]+count_byte+3]<<count_bit);
	__POINTW1FN _msg17,2
	CALL SUBOPT_0x16
	__ADDW1FN _msg17,3
	CALL SUBOPT_0x17
;             }
;           }
_0x98:
_0x97:
;    }
;    /************************************/
;    else if(hieuung==18)  //
	RJMP _0x9B
_0x93:
	LDS  R26,_hieuung
	CPI  R26,LOW(0x12)
	BRNE _0x9C
;    {
;           if ((b_shift==1)||(count_byte>=msg18[2]))
	SBRC R3,1
	RJMP _0x9E
	CALL SUBOPT_0x24
	BRLO _0x9D
_0x9E:
;           {
;             b_data=0;
	CALL SUBOPT_0x14
;           }
;           else
	RJMP _0xA0
_0x9D:
;           {
;             if ((b_shift==0)&&(count_byte<msg18[2]))
	CALL SUBOPT_0x15
	BRNE _0xA2
	CALL SUBOPT_0x24
	BRLO _0xA3
_0xA2:
	RJMP _0xA1
_0xA3:
;             {
;               b_data=(msg18[row*msg18[2]+count_byte+3]<<count_bit);
	__POINTW1FN _msg18,2
	CALL SUBOPT_0x16
	__ADDW1FN _msg18,3
	CALL SUBOPT_0x17
;             }
;           }
_0xA1:
_0xA0:
;    }
;/********************************/
;    else if(hieuung==19)  //
	RJMP _0xA4
_0x9C:
	LDS  R26,_hieuung
	CPI  R26,LOW(0x13)
	BRNE _0xA5
;    {
;           if ((b_shift==1)||(count_byte>=msg19[2]))
	SBRC R3,1
	RJMP _0xA7
	CALL SUBOPT_0x25
	BRLO _0xA6
_0xA7:
;           {
;             b_data=0;
	CALL SUBOPT_0x14
;           }
;           else
	RJMP _0xA9
_0xA6:
;           {
;             if ((b_shift==0)&&(count_byte<msg19[2]))
	CALL SUBOPT_0x15
	BRNE _0xAB
	CALL SUBOPT_0x25
	BRLO _0xAC
_0xAB:
	RJMP _0xAA
_0xAC:
;             {
;               b_data=(msg19[row*msg19[2]+count_byte+3]<<count_bit);
	__POINTW1FN _msg19,2
	CALL SUBOPT_0x16
	__ADDW1FN _msg19,3
	CALL SUBOPT_0x17
;             }
;           }
_0xAA:
_0xA9:
;    }
;/********************************/
;    else if(hieuung==20)  //
	RJMP _0xAD
_0xA5:
	LDS  R26,_hieuung
	CPI  R26,LOW(0x14)
	BRNE _0xAE
;    {
;           if ((b_shift==1)||(count_byte>=msg20[2]))
	SBRC R3,1
	RJMP _0xB0
	CALL SUBOPT_0x26
	BRLO _0xAF
_0xB0:
;           {
;             b_data=0;
	CALL SUBOPT_0x14
;           }
;           else
	RJMP _0xB2
_0xAF:
;           {
;             if ((b_shift==0)&&(count_byte<msg20[2]))
	CALL SUBOPT_0x15
	BRNE _0xB4
	CALL SUBOPT_0x26
	BRLO _0xB5
_0xB4:
	RJMP _0xB3
_0xB5:
;             {
;               b_data=(msg20[row*msg20[2]+count_byte+3]<<count_bit);
	__POINTW1FN _msg20,2
	CALL SUBOPT_0x16
	__ADDW1FN _msg20,3
	CALL SUBOPT_0x17
;             }
;           }
_0xB3:
_0xB2:
;    }
;/********************************/
;/*NGAY LE DUONG LICH*/
;/********************************/
;    else if(hieuung==21)  //
	RJMP _0xB6
_0xAE:
	LDS  R26,_hieuung
	CPI  R26,LOW(0x15)
	BRNE _0xB7
;    {
;           if ((b_shift==1)||(count_byte>=msg21[2]))
	SBRC R3,1
	RJMP _0xB9
	CALL SUBOPT_0x27
	BRLO _0xB8
_0xB9:
;           {
;             b_data=0;
	CALL SUBOPT_0x14
;           }
;           else
	RJMP _0xBB
_0xB8:
;           {
;             if ((b_shift==0)&&(count_byte<msg21[2]))
	CALL SUBOPT_0x15
	BRNE _0xBD
	CALL SUBOPT_0x27
	BRLO _0xBE
_0xBD:
	RJMP _0xBC
_0xBE:
;             {
;               b_data=(msg21[row*msg21[2]+count_byte+3]<<count_bit);
	__POINTW1FN _msg21,2
	CALL SUBOPT_0x16
	__ADDW1FN _msg21,3
	CALL SUBOPT_0x17
;             }
;           }
_0xBC:
_0xBB:
;    }
;/********************************/
;    else if(hieuung==22)  //
	RJMP _0xBF
_0xB7:
	LDS  R26,_hieuung
	CPI  R26,LOW(0x16)
	BRNE _0xC0
;    {
;           if ((b_shift==1)||(count_byte>=msg22[2]))
	SBRC R3,1
	RJMP _0xC2
	CALL SUBOPT_0x28
	BRLO _0xC1
_0xC2:
;           {
;             b_data=0;
	CALL SUBOPT_0x14
;           }
;           else
	RJMP _0xC4
_0xC1:
;           {
;             if ((b_shift==0)&&(count_byte<msg22[2]))
	CALL SUBOPT_0x15
	BRNE _0xC6
	CALL SUBOPT_0x28
	BRLO _0xC7
_0xC6:
	RJMP _0xC5
_0xC7:
;             {
;               b_data=(msg22[row*msg22[2]+count_byte+3]<<count_bit);
	__POINTW1FN _msg22,2
	CALL SUBOPT_0x16
	__ADDW1FN _msg22,3
	CALL SUBOPT_0x17
;             }
;           }
_0xC5:
_0xC4:
;    }
;/********************************/
;    else if(hieuung==23)  //
	RJMP _0xC8
_0xC0:
	LDS  R26,_hieuung
	CPI  R26,LOW(0x17)
	BRNE _0xC9
;    {
;           if ((b_shift==1)||(count_byte>=msg23[2]))
	SBRC R3,1
	RJMP _0xCB
	CALL SUBOPT_0x29
	BRLO _0xCA
_0xCB:
;           {
;             b_data=0;
	CALL SUBOPT_0x14
;           }
;           else
	RJMP _0xCD
_0xCA:
;           {
;             if ((b_shift==0)&&(count_byte<msg23[2]))
	CALL SUBOPT_0x15
	BRNE _0xCF
	CALL SUBOPT_0x29
	BRLO _0xD0
_0xCF:
	RJMP _0xCE
_0xD0:
;             {
;               b_data=(msg23[row*msg23[2]+count_byte+3]<<count_bit);
	__POINTW1FN _msg23,2
	CALL SUBOPT_0x16
	__ADDW1FN _msg23,3
	CALL SUBOPT_0x17
;             }
;           }
_0xCE:
_0xCD:
;    }
;/********************************/
;    else if(hieuung==24)  //
	RJMP _0xD1
_0xC9:
	LDS  R26,_hieuung
	CPI  R26,LOW(0x18)
	BRNE _0xD2
;    {
;           if ((b_shift==1)||(count_byte>=msg24[2]))
	SBRC R3,1
	RJMP _0xD4
	CALL SUBOPT_0x2A
	BRLO _0xD3
_0xD4:
;           {
;             b_data=0;
	CALL SUBOPT_0x14
;           }
;           else
	RJMP _0xD6
_0xD3:
;           {
;             if ((b_shift==0)&&(count_byte<msg24[2]))
	CALL SUBOPT_0x15
	BRNE _0xD8
	CALL SUBOPT_0x2A
	BRLO _0xD9
_0xD8:
	RJMP _0xD7
_0xD9:
;             {
;               b_data=(msg24[row*msg24[2]+count_byte+3]<<count_bit);
	__POINTW1FN _msg24,2
	CALL SUBOPT_0x16
	__ADDW1FN _msg24,3
	CALL SUBOPT_0x17
;             }
;           }
_0xD7:
_0xD6:
;    }
;/********************************/
;    else if(hieuung==25)  //
	RJMP _0xDA
_0xD2:
	LDS  R26,_hieuung
	CPI  R26,LOW(0x19)
	BRNE _0xDB
;    {
;           if ((b_shift==1)||(count_byte>=msg25[2]))
	SBRC R3,1
	RJMP _0xDD
	CALL SUBOPT_0x2B
	BRLO _0xDC
_0xDD:
;           {
;             b_data=0;
	CALL SUBOPT_0x14
;           }
;           else
	RJMP _0xDF
_0xDC:
;           {
;             if ((b_shift==0)&&(count_byte<msg25[2]))
	CALL SUBOPT_0x15
	BRNE _0xE1
	CALL SUBOPT_0x2B
	BRLO _0xE2
_0xE1:
	RJMP _0xE0
_0xE2:
;             {
;               b_data=(msg25[row*msg25[2]+count_byte+3]<<count_bit);
	__POINTW1FN _msg25,2
	CALL SUBOPT_0x16
	__ADDW1FN _msg25,3
	CALL SUBOPT_0x17
;             }
;           }
_0xE0:
_0xDF:
;    }
;/********************************/
;    else if(hieuung==26)  //
	RJMP _0xE3
_0xDB:
	LDS  R26,_hieuung
	CPI  R26,LOW(0x1A)
	BRNE _0xE4
;    {
;           if ((b_shift==1)||(count_byte>=msg26[2]))
	SBRC R3,1
	RJMP _0xE6
	CALL SUBOPT_0x2C
	BRLO _0xE5
_0xE6:
;           {
;             b_data=0;
	CALL SUBOPT_0x14
;           }
;           else
	RJMP _0xE8
_0xE5:
;           {
;             if ((b_shift==0)&&(count_byte<msg26[2]))
	CALL SUBOPT_0x15
	BRNE _0xEA
	CALL SUBOPT_0x2C
	BRLO _0xEB
_0xEA:
	RJMP _0xE9
_0xEB:
;             {
;               b_data=(msg26[row*msg26[2]+count_byte+3]<<count_bit);
	__POINTW1FN _msg26,2
	CALL SUBOPT_0x16
	__ADDW1FN _msg26,3
	CALL SUBOPT_0x17
;             }
;           }
_0xE9:
_0xE8:
;    }
;/********************************/
;    else if(hieuung==27)  //
	RJMP _0xEC
_0xE4:
	LDS  R26,_hieuung
	CPI  R26,LOW(0x1B)
	BRNE _0xED
;    {
;           if ((b_shift==1)||(count_byte>=msg27[2]))
	SBRC R3,1
	RJMP _0xEF
	CALL SUBOPT_0x2D
	BRLO _0xEE
_0xEF:
;           {
;             b_data=0;
	CALL SUBOPT_0x14
;           }
;           else
	RJMP _0xF1
_0xEE:
;           {
;             if ((b_shift==0)&&(count_byte<msg27[2]))
	CALL SUBOPT_0x15
	BRNE _0xF3
	CALL SUBOPT_0x2D
	BRLO _0xF4
_0xF3:
	RJMP _0xF2
_0xF4:
;             {
;               b_data=(msg27[row*msg27[2]+count_byte+3]<<count_bit);
	__POINTW1FN _msg27,2
	CALL SUBOPT_0x16
	__ADDW1FN _msg27,3
	CALL SUBOPT_0x17
;             }
;           }
_0xF2:
_0xF1:
;    }
;
;/********************************/
;
;    else if(hieuung==28)  //
	RJMP _0xF5
_0xED:
	LDS  R26,_hieuung
	CPI  R26,LOW(0x1C)
	BRNE _0xF6
;    {
;           if ((b_shift==1)||(count_byte>=msg28[2]))
	SBRC R3,1
	RJMP _0xF8
	CALL SUBOPT_0x2E
	BRLO _0xF7
_0xF8:
;           {
;             b_data=0;
	CALL SUBOPT_0x14
;           }
;           else
	RJMP _0xFA
_0xF7:
;           {
;             if ((b_shift==0)&&(count_byte<msg28[2]))
	CALL SUBOPT_0x15
	BRNE _0xFC
	CALL SUBOPT_0x2E
	BRLO _0xFD
_0xFC:
	RJMP _0xFB
_0xFD:
;             {
;               b_data=(msg28[row*msg28[2]+count_byte+3]<<count_bit);
	__POINTW1FN _msg28,2
	CALL SUBOPT_0x16
	__ADDW1FN _msg28,3
	CALL SUBOPT_0x17
;             }
;           }
_0xFB:
_0xFA:
;    }
;/********************************/
;    else if(hieuung==29)  //
	RJMP _0xFE
_0xF6:
	LDS  R26,_hieuung
	CPI  R26,LOW(0x1D)
	BRNE _0xFF
;    {
;           if ((b_shift==1)||(count_byte>=msg29[2]))
	SBRC R3,1
	RJMP _0x101
	CALL SUBOPT_0x2F
	BRLO _0x100
_0x101:
;           {
;             b_data=0;
	CALL SUBOPT_0x14
;           }
;           else
	RJMP _0x103
_0x100:
;           {
;             if ((b_shift==0)&&(count_byte<msg29[2]))
	CALL SUBOPT_0x15
	BRNE _0x105
	CALL SUBOPT_0x2F
	BRLO _0x106
_0x105:
	RJMP _0x104
_0x106:
;             {
;               b_data=(msg29[row*msg29[2]+count_byte+3]<<count_bit);
	__POINTW1FN _msg29,2
	CALL SUBOPT_0x16
	__ADDW1FN _msg29,3
	CALL SUBOPT_0x17
;             }
;           }
_0x104:
_0x103:
;    }
;/********************************/
;    else if(hieuung==30)  //
	RJMP _0x107
_0xFF:
	LDS  R26,_hieuung
	CPI  R26,LOW(0x1E)
	BRNE _0x108
;    {
;           if ((b_shift==1)||(count_byte>=msg30[2]))
	SBRC R3,1
	RJMP _0x10A
	CALL SUBOPT_0x30
	BRLO _0x109
_0x10A:
;           {
;             b_data=0;
	CALL SUBOPT_0x14
;           }
;           else
	RJMP _0x10C
_0x109:
;           {
;             if ((b_shift==0)&&(count_byte<msg30[2]))
	CALL SUBOPT_0x15
	BRNE _0x10E
	CALL SUBOPT_0x30
	BRLO _0x10F
_0x10E:
	RJMP _0x10D
_0x10F:
;             {
;               b_data=(msg30[row*msg30[2]+count_byte+3]<<count_bit);
	__POINTW1FN _msg30,2
	CALL SUBOPT_0x16
	__ADDW1FN _msg30,3
	CALL SUBOPT_0x17
;             }
;           }
_0x10D:
_0x10C:
;    }
;/********************************/
;    else if(hieuung==31)  //
	RJMP _0x110
_0x108:
	LDS  R26,_hieuung
	CPI  R26,LOW(0x1F)
	BRNE _0x111
;    {
;           if ((b_shift==1)||(count_byte>=msg31[2]))
	SBRC R3,1
	RJMP _0x113
	CALL SUBOPT_0x31
	BRLO _0x112
_0x113:
;           {
;             b_data=0;
	CALL SUBOPT_0x14
;           }
;           else
	RJMP _0x115
_0x112:
;           {
;             if ((b_shift==0)&&(count_byte<msg31[2]))
	CALL SUBOPT_0x15
	BRNE _0x117
	CALL SUBOPT_0x31
	BRLO _0x118
_0x117:
	RJMP _0x116
_0x118:
;             {
;               b_data=(msg31[row*msg31[2]+count_byte+3]<<count_bit);
	__POINTW1FN _msg31,2
	CALL SUBOPT_0x16
	__ADDW1FN _msg31,3
	CALL SUBOPT_0x17
;             }
;           }
_0x116:
_0x115:
;    }
;/********************************/
;    else if(hieuung==32)  //
	RJMP _0x119
_0x111:
	LDS  R26,_hieuung
	CPI  R26,LOW(0x20)
	BRNE _0x11A
;    {
;           if ((b_shift==1)||(count_byte>=msg32[2]))
	SBRC R3,1
	RJMP _0x11C
	CALL SUBOPT_0x32
	BRLO _0x11B
_0x11C:
;           {
;             b_data=0;
	CALL SUBOPT_0x14
;           }
;           else
	RJMP _0x11E
_0x11B:
;           {
;             if ((b_shift==0)&&(count_byte<msg32[2]))
	CALL SUBOPT_0x15
	BRNE _0x120
	CALL SUBOPT_0x32
	BRLO _0x121
_0x120:
	RJMP _0x11F
_0x121:
;             {
;               b_data=(msg32[row*msg32[2]+count_byte+3]<<count_bit);
	__POINTW1FN _msg32,2
	CALL SUBOPT_0x16
	__ADDW1FN _msg32,3
	CALL SUBOPT_0x17
;             }
;           }
_0x11F:
_0x11E:
;    }
;/********************************/
;    else if(hieuung==33)  //
	RJMP _0x122
_0x11A:
	LDS  R26,_hieuung
	CPI  R26,LOW(0x21)
	BRNE _0x123
;    {
;           if ((b_shift==1)||(count_byte>=msg33[2]))
	SBRC R3,1
	RJMP _0x125
	CALL SUBOPT_0x33
	BRLO _0x124
_0x125:
;           {
;             b_data=0;
	CALL SUBOPT_0x14
;           }
;           else
	RJMP _0x127
_0x124:
;           {
;             if ((b_shift==0)&&(count_byte<msg33[2]))
	CALL SUBOPT_0x15
	BRNE _0x129
	CALL SUBOPT_0x33
	BRLO _0x12A
_0x129:
	RJMP _0x128
_0x12A:
;             {
;               b_data=(msg33[row*msg33[2]+count_byte+3]<<count_bit);
	__POINTW1FN _msg33,2
	CALL SUBOPT_0x16
	__ADDW1FN _msg33,3
	CALL SUBOPT_0x17
;             }
;           }
_0x128:
_0x127:
;    }
;/********************************/
;    else if(hieuung==34)  //
	RJMP _0x12B
_0x123:
	LDS  R26,_hieuung
	CPI  R26,LOW(0x22)
	BRNE _0x12C
;    {
;           if ((b_shift==1)||(count_byte>=msg34[2]))
	SBRC R3,1
	RJMP _0x12E
	CALL SUBOPT_0x34
	BRLO _0x12D
_0x12E:
;           {
;             b_data=0;
	CALL SUBOPT_0x14
;           }
;           else
	RJMP _0x130
_0x12D:
;           {
;             if ((b_shift==0)&&(count_byte<msg34[2]))
	CALL SUBOPT_0x15
	BRNE _0x132
	CALL SUBOPT_0x34
	BRLO _0x133
_0x132:
	RJMP _0x131
_0x133:
;             {
;               b_data=(msg34[row*msg34[2]+count_byte+3]<<count_bit);
	__POINTW1FN _msg34,2
	CALL SUBOPT_0x16
	__ADDW1FN _msg34,3
	CALL SUBOPT_0x17
;             }
;           }
_0x131:
_0x130:
;    }
;
;
;
;
;
;/********************************/
;    else if(hieuung==35)  //
	RJMP _0x134
_0x12C:
	LDS  R26,_hieuung
	CPI  R26,LOW(0x23)
	BRNE _0x135
;    {
;           if ((b_shift==1)||(count_byte>=msg35[2]))
	SBRC R3,1
	RJMP _0x137
	CALL SUBOPT_0x35
	BRLO _0x136
_0x137:
;           {
;             b_data=0;
	CALL SUBOPT_0x14
;           }
;           else
	RJMP _0x139
_0x136:
;           {
;             if ((b_shift==0)&&(count_byte<msg35[2]))
	CALL SUBOPT_0x15
	BRNE _0x13B
	CALL SUBOPT_0x35
	BRLO _0x13C
_0x13B:
	RJMP _0x13A
_0x13C:
;             {
;               b_data=(msg35[row*msg35[2]+count_byte+3]<<count_bit);
	__POINTW1FN _msg35,2
	CALL SUBOPT_0x16
	__ADDW1FN _msg35,3
	CALL SUBOPT_0x17
;             }
;           }
_0x13A:
_0x139:
;    }
;/********************************/
;    else if(hieuung==36)  //
	RJMP _0x13D
_0x135:
	LDS  R26,_hieuung
	CPI  R26,LOW(0x24)
	BRNE _0x13E
;    {
;           if ((b_shift==1)||(count_byte>=msg36[2]))
	SBRC R3,1
	RJMP _0x140
	CALL SUBOPT_0x36
	BRLO _0x13F
_0x140:
;           {
;             b_data=0;
	CALL SUBOPT_0x14
;           }
;           else
	RJMP _0x142
_0x13F:
;           {
;             if ((b_shift==0)&&(count_byte<msg36[2]))
	CALL SUBOPT_0x15
	BRNE _0x144
	CALL SUBOPT_0x36
	BRLO _0x145
_0x144:
	RJMP _0x143
_0x145:
;             {
;               b_data=(msg36[row*msg36[2]+count_byte+3]<<count_bit);
	__POINTW1FN _msg36,2
	CALL SUBOPT_0x16
	__ADDW1FN _msg36,3
	CALL SUBOPT_0x17
;             }
;           }
_0x143:
_0x142:
;    }
;/********************************/
;    else if(hieuung==37)  //
	RJMP _0x146
_0x13E:
	LDS  R26,_hieuung
	CPI  R26,LOW(0x25)
	BRNE _0x147
;    {
;           if ((b_shift==1)||(count_byte>=msg37[2]))
	SBRC R3,1
	RJMP _0x149
	CALL SUBOPT_0x37
	BRLO _0x148
_0x149:
;           {
;             b_data=0;
	CALL SUBOPT_0x14
;           }
;           else
	RJMP _0x14B
_0x148:
;           {
;             if ((b_shift==0)&&(count_byte<msg37[2]))
	CALL SUBOPT_0x15
	BRNE _0x14D
	CALL SUBOPT_0x37
	BRLO _0x14E
_0x14D:
	RJMP _0x14C
_0x14E:
;             {
;               b_data=(msg37[row*msg37[2]+count_byte+3]<<count_bit);
	__POINTW1FN _msg37,2
	CALL SUBOPT_0x16
	__ADDW1FN _msg37,3
	CALL SUBOPT_0x17
;             }
;           }
_0x14C:
_0x14B:
;    }
;/********************************/
;    else if(hieuung==38)  //
	RJMP _0x14F
_0x147:
	LDS  R26,_hieuung
	CPI  R26,LOW(0x26)
	BRNE _0x150
;    {
;           if ((b_shift==1)||(count_byte>=msg38[2]))
	SBRC R3,1
	RJMP _0x152
	CALL SUBOPT_0x38
	BRLO _0x151
_0x152:
;           {
;             b_data=0;
	CALL SUBOPT_0x14
;           }
;           else
	RJMP _0x154
_0x151:
;           {
;             if ((b_shift==0)&&(count_byte<msg38[2]))
	CALL SUBOPT_0x15
	BRNE _0x156
	CALL SUBOPT_0x38
	BRLO _0x157
_0x156:
	RJMP _0x155
_0x157:
;             {
;               b_data=(msg38[row*msg38[2]+count_byte+3]<<count_bit);
	__POINTW1FN _msg38,2
	CALL SUBOPT_0x16
	__ADDW1FN _msg38,3
	CALL SUBOPT_0x17
;             }
;           }
_0x155:
_0x154:
;    }
;
;/********************************/
;    else if(hieuung==39)  //
	RJMP _0x158
_0x150:
	LDS  R26,_hieuung
	CPI  R26,LOW(0x27)
	BRNE _0x159
;    {
;           if ((b_shift==1)||(count_byte>=msg39[2]))
	SBRC R3,1
	RJMP _0x15B
	CALL SUBOPT_0x39
	BRLO _0x15A
_0x15B:
;           {
;             b_data=0;
	CALL SUBOPT_0x14
;           }
;           else
	RJMP _0x15D
_0x15A:
;           {
;             if ((b_shift==0)&&(count_byte<msg39[2]))
	CALL SUBOPT_0x15
	BRNE _0x15F
	CALL SUBOPT_0x39
	BRLO _0x160
_0x15F:
	RJMP _0x15E
_0x160:
;             {
;               b_data=(msg39[row*msg39[2]+count_byte+3]<<count_bit);
	__POINTW1FN _msg39,2
	CALL SUBOPT_0x16
	__ADDW1FN _msg39,3
	CALL SUBOPT_0x17
;             }
;           }
_0x15E:
_0x15D:
;    }
;
;/********************************/
;    else if(hieuung==40)  //
	RJMP _0x161
_0x159:
	LDS  R26,_hieuung
	CPI  R26,LOW(0x28)
	BRNE _0x162
;    {
;           if ((b_shift==1)||(count_byte>=msg40[2]))
	SBRC R3,1
	RJMP _0x164
	CALL SUBOPT_0x3A
	BRLO _0x163
_0x164:
;           {
;             b_data=0;
	CALL SUBOPT_0x14
;           }
;           else
	RJMP _0x166
_0x163:
;           {
;             if ((b_shift==0)&&(count_byte<msg40[2]))
	CALL SUBOPT_0x15
	BRNE _0x168
	CALL SUBOPT_0x3A
	BRLO _0x169
_0x168:
	RJMP _0x167
_0x169:
;             {
;               b_data=(msg40[row*msg40[2]+count_byte+3]<<count_bit);
	__POINTW1FN _msg40,2
	CALL SUBOPT_0x16
	__ADDW1FN _msg40,3
	CALL SUBOPT_0x17
;             }
;           }
_0x167:
_0x166:
;    }
;/********************************/
;/********************************/
;    else     // Ngay moi vui ve
	RJMP _0x16A
_0x162:
;    {
;           if ((b_shift==1)||(count_byte>=msg[2]))
	SBRC R3,1
	RJMP _0x16C
	CALL SUBOPT_0x3B
	BRLO _0x16B
_0x16C:
;           {
;             b_data=0;
	CALL SUBOPT_0x14
;           }
;           else
	RJMP _0x16E
_0x16B:
;           {
;             if ((b_shift==0)&&(count_byte<msg[2]))
	CALL SUBOPT_0x15
	BRNE _0x170
	CALL SUBOPT_0x3B
	BRLO _0x171
_0x170:
	RJMP _0x16F
_0x171:
;             {
;               b_data=(msg[row*msg[2]+count_byte+3]<<count_bit);
	__POINTW1FN _msg,2
	CALL SUBOPT_0x16
	__ADDW1FN _msg,3
	CALL SUBOPT_0x17
;             }
;           }
_0x16F:
_0x16E:
;    }
_0x16A:
_0x161:
_0x158:
_0x14F:
_0x146:
_0x13D:
_0x134:
_0x12B:
_0x122:
_0x119:
_0x110:
_0x107:
_0xFE:
_0xF5:
_0xEC:
_0xE3:
_0xDA:
_0xD1:
_0xC8:
_0xBF:
_0xB6:
_0xAD:
_0xA4:
_0x9B:
_0x92:
_0x89:
_0x80:
_0x77:
_0x6E:
_0x65:
_0x5C:
_0x53:
_0x4A:
_0x41:
_0x38:
_0x2F:
; }
	RET
; /*----------------------------------------------------------------------------*/
; /*----------------------------------------------------------------------------*/
; // ctc dich trai chuoi msg tren led matrix
; void effect_left(void)
; {
_effect_left:
;   /*******************************************************************************
;    -Thuat giai dich trai chuoi tren led matrix: coi msg la phan man hinh ao ben phai man hinh led thuc
;    +  Moi byte tren 1 hang dich sang trai 1 bit
;    +  Bit 0 cua byte bat ki duoc thay boi bit 7 cua byte lien truoc (khi chua dich)
;   *******************************************************************************/
;  if(load_effect)
	SBRS R2,7
	RJMP _0x172
;  {
;    if(status_buf)  // khi dang quet hien thi o bo dem 1 thi sap sep du lieu o bo dem 0
	SBRS R3,0
	RJMP _0x173
;    {
;      // Gia su man hinh led co kich thuoc ngang wb byte
;      for(row=0; row<16; row++)
	LDI  R30,LOW(0)
	STS  _row,R30
	STS  _row+1,R30
_0x175:
	CALL SUBOPT_0x3C
	SBIW R26,16
	BRSH _0x176
;      {
;        // chuyen du lieu giua cac byte trong bo dem man hinh
;        for(j=0;j<wb-1;j++)
	LDI  R30,LOW(0)
	STS  _j,R30
	STS  _j+1,R30
_0x178:
	CALL SUBOPT_0x3D
	CALL SUBOPT_0x3E
	BRSH _0x179
;        {
;          buf_screen_0[row*wb+j]=(buf_screen_1[row*wb+j]<<1)|(buf_screen_1[row*wb+j+1]>>7);
	CALL SUBOPT_0x3F
	CALL SUBOPT_0x40
	SUBI R30,LOW(-_buf_screen_0)
	SBCI R31,HIGH(-_buf_screen_0)
	__PUTW1R 23,24
	MOVW R30,R26
	SUBI R30,LOW(-_buf_screen_1)
	SBCI R31,HIGH(-_buf_screen_1)
	LD   R30,Z
	LSL  R30
	MOV  R22,R30
	MOVW R30,R0
	__ADDW1MN _buf_screen_1,1
	CALL SUBOPT_0x41
;        };
	LDI  R26,LOW(_j)
	LDI  R27,HIGH(_j)
	CALL SUBOPT_0x12
	RJMP _0x178
_0x179:
;        //chuyen du lieu tu msg vao bo dem man hinh
;        up_data_1(); //   update du lieu cho b_data o hieu ung 1
	RCALL _up_data_1
;        buf_screen_0[row*wb+wb-1]=(buf_screen_1[row*wb+wb-1]<<1)|(b_data>>7);
	CALL SUBOPT_0x3F
	CALL SUBOPT_0x42
	SUBI R30,LOW(-_buf_screen_0)
	SBCI R31,HIGH(-_buf_screen_0)
	MOVW R22,R30
	MOVW R30,R26
	SUBI R30,LOW(-_buf_screen_1)
	SBCI R31,HIGH(-_buf_screen_1)
	CALL SUBOPT_0x43
;      };
	LDI  R26,LOW(_row)
	LDI  R27,HIGH(_row)
	CALL SUBOPT_0x12
	RJMP _0x175
_0x176:
;    }
;     // khi dang quet hien thi o bo dem 1 thi sap sep du lieu o bo dem 0
;    else
	RJMP _0x17A
_0x173:
;    {
;      // Gia su man hinh led co kich thuoc ngang wb byte
;      for(row=0; row<16; row++)
	LDI  R30,LOW(0)
	STS  _row,R30
	STS  _row+1,R30
_0x17C:
	CALL SUBOPT_0x3C
	SBIW R26,16
	BRSH _0x17D
;      {
;        // chuyen du lieu giua cac byte trong bo dem man hinh
;        for(j=0;j<wb-1;j++)
	LDI  R30,LOW(0)
	STS  _j,R30
	STS  _j+1,R30
_0x17F:
	CALL SUBOPT_0x3D
	CALL SUBOPT_0x3E
	BRSH _0x180
;        {
;          buf_screen_1[row*wb+j]=(buf_screen_0[row*wb+j]<<1)|(buf_screen_0[row*wb+j+1]>>7);
	CALL SUBOPT_0x3F
	CALL SUBOPT_0x40
	SUBI R30,LOW(-_buf_screen_1)
	SBCI R31,HIGH(-_buf_screen_1)
	__PUTW1R 23,24
	MOVW R30,R26
	SUBI R30,LOW(-_buf_screen_0)
	SBCI R31,HIGH(-_buf_screen_0)
	LD   R30,Z
	LSL  R30
	MOV  R22,R30
	MOVW R30,R0
	__ADDW1MN _buf_screen_0,1
	CALL SUBOPT_0x41
;        };
	LDI  R26,LOW(_j)
	LDI  R27,HIGH(_j)
	CALL SUBOPT_0x12
	RJMP _0x17F
_0x180:
;        //chuyen du lieu tu msg vao bo dem man hinh
;        up_data_1(); //   update du lieu cho b_data o hieu ung 1
	RCALL _up_data_1
;        buf_screen_1[row*wb+wb-1]=(buf_screen_0[row*wb+wb-1]<<1)|(b_data>>7);
	CALL SUBOPT_0x3F
	CALL SUBOPT_0x42
	SUBI R30,LOW(-_buf_screen_1)
	SBCI R31,HIGH(-_buf_screen_1)
	MOVW R22,R30
	MOVW R30,R26
	SUBI R30,LOW(-_buf_screen_0)
	SBCI R31,HIGH(-_buf_screen_0)
	CALL SUBOPT_0x43
;      };
	LDI  R26,LOW(_row)
	LDI  R27,HIGH(_row)
	CALL SUBOPT_0x12
	RJMP _0x17C
_0x17D:
;    };
_0x17A:
;     load_effect=0; // Da load xong du lieu moi, tam khoa load du lieu cho lan tiep theo
	CLT
	BLD  R2,7
;  }
; }
_0x172:
	RET
;/*----------------------------------------------------------------------------*/
;
;
;//******************************************************************
;//#include <ShiftRight.c>
;//#include <ShiftUp.c>
;//#include <ShiftDown.c>
;#include <CheckEffect.c>
;//************************************************************************
;/*----------------------------------------------------------------------------*/
; // ctc kiem tra su  dich chuyen hieu ung trai & phai
;/*****************************************************/
; void check_effect_left_right(unsigned int stop_byte)
; 0000 0044  {
_check_effect_left_right:
;   // doan ctc kiem sot so bit chuyen dich
;   k++;
	CALL SUBOPT_0x44
;	stop_byte -> Y+0
;   if(k==1)  // thoi gian dich hieu ung (hay toc do chay cua hieu ung)
	CALL SUBOPT_0x45
	SBIW R26,1
	BRNE _0x181
;   {
;     if(load_effect==0)    // Du lieu moi da load
	SBRC R2,7
	RJMP _0x182
;     {
;      count_bit++;
	LDI  R26,LOW(_count_bit)
	LDI  R27,HIGH(_count_bit)
	CALL SUBOPT_0x12
;      if(count_bit==8)
	LDS  R26,_count_bit
	LDS  R27,_count_bit+1
	SBIW R26,8
	BRNE _0x183
;      {
;        count_bit=0;
	CALL SUBOPT_0x46
;        count_byte++;
;        if(count_byte==stop_byte)  // stop_byte=so byte can dich cua msg+wb(so byte man hinh led)
	CALL SUBOPT_0x47
	BRNE _0x184
;        {
;          count_byte=0;
	CALL SUBOPT_0x48
;          effect++;
;          dem=0;
	CLR  R11
;        }
;      }
_0x184:
;      status_buf=~status_buf;  // dao man hinh hien thi
_0x183:
	CALL SUBOPT_0x49
;      load_effect=1; // tip tuc cho phep load du lieu cho hieu ung
;      k=0;
;
;     }
;   }
_0x182:
; }
_0x181:
	RJMP _0x2040004
;
;/*----------------------------------------------------------------------------*/
; // ctc kiem tra su  dich chuyen hieu ung trai & phai cua CHUC MUNG NAM MOI
;/*****************************************************/
; void check_effect_left_right2(unsigned int stop_byte)
; {
_check_effect_left_right2:
;   // doan ctc kiem sot so bit chuyen dich
;   k++;
	CALL SUBOPT_0x44
;	stop_byte -> Y+0
;   if(k==2)  // thoi gian dich hieu ung (hay toc do chay cua hieu ung)
	CALL SUBOPT_0x45
	SBIW R26,2
	BRNE _0x185
;   {
;     if(load_effect==0)    // Du lieu moi da load
	SBRC R2,7
	RJMP _0x186
;     {
;      count_bit++;
	LDI  R26,LOW(_count_bit)
	LDI  R27,HIGH(_count_bit)
	CALL SUBOPT_0x12
;      if(count_bit==8)
	LDS  R26,_count_bit
	LDS  R27,_count_bit+1
	SBIW R26,8
	BRNE _0x187
;      {
;        count_bit=0;
	CALL SUBOPT_0x46
;        count_byte++;
;        if(count_byte==stop_byte)  // stop_byte=so byte can dich cua msg+wb(so byte man hinh led)
	CALL SUBOPT_0x47
	BRNE _0x188
;        {
;          count_byte=0;
	CALL SUBOPT_0x48
;          effect++;
;          dem=0;
	CLR  R11
;        }
;      }
_0x188:
;      status_buf=~status_buf;  // dao man hinh hien thi
_0x187:
	CALL SUBOPT_0x49
;      load_effect=1; // tip tuc cho phep load du lieu cho hieu ung
;      k=0;
;
;     }
;   }
_0x186:
; }
_0x185:
_0x2040004:
	ADIW R28,2
	RET
;
; /*----------------------------------------------------------------------------*/
;
;
;
;
;
;// Khai bao chuong trinh con
;void giaima_nhayso(void);
;void case_effect(void);
;unsigned char giaima(unsigned char so);
;void lunar_calculate(unsigned char day,unsigned char month,unsigned char year, unsigned char *ngay_amlich,unsigned char *thang_amlich,unsigned char *nam_amlich);
;void ghivao_ramds (unsigned char giatri);
;/*----------------------------------------------------------------------------*/
;/*----------------------------------------------------------------------------*/
;// ctc lua chon hieu ung hien thi
;void case_effect(void)
; 0000 0050 {
_case_effect:
; 0000 0051   if    (hieuung==0 || hieuung==5)  {check_effect_left_right(msg0[2]+4);}    // Time
	LDS  R26,_hieuung
	CPI  R26,LOW(0x0)
	BREQ _0x18A
	CPI  R26,LOW(0x5)
	BRNE _0x189
_0x18A:
	__POINTW1FN _msg0,2
	CALL SUBOPT_0x4A
; 0000 0052   else if(hieuung==1)               {check_effect_left_right(msg1[2]+4);}    // Hom Nay
	RJMP _0x18C
_0x189:
	LDS  R26,_hieuung
	CPI  R26,LOW(0x1)
	BRNE _0x18D
	__POINTW1FN _msg1,2
	CALL SUBOPT_0x4A
; 0000 0053   else if(hieuung==2)               {check_effect_left_right(msg2[2]+4);}    // Duong Lich
	RJMP _0x18E
_0x18D:
	LDS  R26,_hieuung
	CPI  R26,LOW(0x2)
	BRNE _0x18F
	__POINTW1FN _msg2,2
	CALL SUBOPT_0x4A
; 0000 0054   else if(hieuung==3)               {check_effect_left_right(msg3[2]+4);}    // Am lich
	RJMP _0x190
_0x18F:
	LDS  R26,_hieuung
	CPI  R26,LOW(0x3)
	BRNE _0x191
	__POINTW1FN _msg3,2
	CALL SUBOPT_0x4A
; 0000 0055   else if(hieuung==4)               {check_effect_left_right(msg4[2]+4);}    // Nam
	RJMP _0x192
_0x191:
	LDS  R26,_hieuung
	CPI  R26,LOW(0x4)
	BRNE _0x193
	__POINTW1FN _msg4,2
	CALL SUBOPT_0x4A
; 0000 0056 //  else if(hieuung==6)               {check_effect_left_right2(msg6[2]+4);}    // Chuc Mung Nam Moi
; 0000 0057 //  else if(hieuung==7)               {check_effect_left_right2(msg7[2]+4);}    //
; 0000 0058 //  else if(hieuung==8)               {check_effect_left_right2(msg8[2]+4);}    // Buoi sang vui ve
; 0000 0059   else if(hieuung==9)               {check_effect_left_right2(msg9[2]+4);}    // Tram nam tinh vien man-Bac dau ngia phu the
	RJMP _0x194
_0x193:
	LDS  R26,_hieuung
	CPI  R26,LOW(0x9)
	BRNE _0x195
	__POINTW1FN _msg9,2
	RJMP _0x394
; 0000 005A   else if(hieuung==10)              {check_effect_left_right2(msg10[2]+4);}    // Chuc mung nam moi-An khang thinh vuong
_0x195:
	LDS  R26,_hieuung
	CPI  R26,LOW(0xA)
	BRNE _0x197
	__POINTW1FN _msg10,2
	RJMP _0x394
; 0000 005B   else if(hieuung==11)               {check_effect_left_right2(msg11[2]+4);}    // Tet toi tan tai
_0x197:
	LDS  R26,_hieuung
	CPI  R26,LOW(0xB)
	BRNE _0x199
	__POINTW1FN _msg11,2
	RJMP _0x394
; 0000 005C   else if(hieuung==12)               {check_effect_left_right2(msg12[2]+4);}    // Nam moi hanh phuc binh an den
_0x199:
	LDS  R26,_hieuung
	CPI  R26,LOW(0xC)
	BRNE _0x19B
	__POINTW1FN _msg12,2
	RJMP _0x394
; 0000 005D   else if(hieuung==13)              {check_effect_left_right2(msg13[2]+4);}    // Ngay xuan vinh hoa phu quy ve
_0x19B:
	LDS  R26,_hieuung
	CPI  R26,LOW(0xD)
	BRNE _0x19D
	__POINTW1FN _msg13,2
	RJMP _0x394
; 0000 005E 
; 0000 005F   else if(hieuung==15)               {check_effect_left_right2(msg15[2]+4);}    //
_0x19D:
	LDS  R26,_hieuung
	CPI  R26,LOW(0xF)
	BRNE _0x19F
	__POINTW1FN _msg15,2
	RJMP _0x394
; 0000 0060   else if(hieuung==16)              {check_effect_left_right2(msg16[2]+4);}    //
_0x19F:
	LDS  R26,_hieuung
	CPI  R26,LOW(0x10)
	BRNE _0x1A1
	__POINTW1FN _msg16,2
	RJMP _0x394
; 0000 0061   else if(hieuung==17)               {check_effect_left_right2(msg17[2]+4);}    //
_0x1A1:
	LDS  R26,_hieuung
	CPI  R26,LOW(0x11)
	BRNE _0x1A3
	__POINTW1FN _msg17,2
	RJMP _0x394
; 0000 0062   else if(hieuung==18)               {check_effect_left_right2(msg18[2]+4);}    //
_0x1A3:
	LDS  R26,_hieuung
	CPI  R26,LOW(0x12)
	BRNE _0x1A5
	__POINTW1FN _msg18,2
	RJMP _0x394
; 0000 0063   else if(hieuung==19)              {check_effect_left_right2(msg19[2]+4);}    //
_0x1A5:
	LDS  R26,_hieuung
	CPI  R26,LOW(0x13)
	BRNE _0x1A7
	__POINTW1FN _msg19,2
	RJMP _0x394
; 0000 0064   else if(hieuung==20)               {check_effect_left_right2(msg20[2]+4);}    //
_0x1A7:
	LDS  R26,_hieuung
	CPI  R26,LOW(0x14)
	BRNE _0x1A9
	__POINTW1FN _msg20,2
	RJMP _0x394
; 0000 0065 
; 0000 0066   else if(hieuung==21)              {check_effect_left_right2(msg21[2]+4);}    //
_0x1A9:
	LDS  R26,_hieuung
	CPI  R26,LOW(0x15)
	BRNE _0x1AB
	__POINTW1FN _msg21,2
	RJMP _0x394
; 0000 0067   else if(hieuung==22)               {check_effect_left_right2(msg22[2]+4);}    //
_0x1AB:
	LDS  R26,_hieuung
	CPI  R26,LOW(0x16)
	BRNE _0x1AD
	__POINTW1FN _msg22,2
	RJMP _0x394
; 0000 0068   else if(hieuung==23)               {check_effect_left_right2(msg23[2]+4);}    //
_0x1AD:
	LDS  R26,_hieuung
	CPI  R26,LOW(0x17)
	BRNE _0x1AF
	__POINTW1FN _msg23,2
	RJMP _0x394
; 0000 0069   else if(hieuung==24)              {check_effect_left_right2(msg24[2]+4);}    //
_0x1AF:
	LDS  R26,_hieuung
	CPI  R26,LOW(0x18)
	BRNE _0x1B1
	__POINTW1FN _msg24,2
	RJMP _0x394
; 0000 006A   else if(hieuung==25)               {check_effect_left_right2(msg25[2]+4);}    //
_0x1B1:
	LDS  R26,_hieuung
	CPI  R26,LOW(0x19)
	BRNE _0x1B3
	__POINTW1FN _msg25,2
	RJMP _0x394
; 0000 006B   else if(hieuung==26)              {check_effect_left_right2(msg26[2]+4);}    //
_0x1B3:
	LDS  R26,_hieuung
	CPI  R26,LOW(0x1A)
	BRNE _0x1B5
	__POINTW1FN _msg26,2
	RJMP _0x394
; 0000 006C   else if(hieuung==27)               {check_effect_left_right2(msg27[2]+4);}    //
_0x1B5:
	LDS  R26,_hieuung
	CPI  R26,LOW(0x1B)
	BRNE _0x1B7
	__POINTW1FN _msg27,2
	RJMP _0x394
; 0000 006D   else if(hieuung==28)               {check_effect_left_right2(msg28[2]+4);}    //
_0x1B7:
	LDS  R26,_hieuung
	CPI  R26,LOW(0x1C)
	BRNE _0x1B9
	__POINTW1FN _msg28,2
	RJMP _0x394
; 0000 006E   else if(hieuung==29)              {check_effect_left_right2(msg29[2]+4);}    //
_0x1B9:
	LDS  R26,_hieuung
	CPI  R26,LOW(0x1D)
	BRNE _0x1BB
	__POINTW1FN _msg29,2
	RJMP _0x394
; 0000 006F   else if(hieuung==30)               {check_effect_left_right2(msg30[2]+4);}    //
_0x1BB:
	LDS  R26,_hieuung
	CPI  R26,LOW(0x1E)
	BRNE _0x1BD
	__POINTW1FN _msg30,2
	RJMP _0x394
; 0000 0070   else if(hieuung==31)              {check_effect_left_right2(msg31[2]+4);}    //
_0x1BD:
	LDS  R26,_hieuung
	CPI  R26,LOW(0x1F)
	BRNE _0x1BF
	__POINTW1FN _msg31,2
	RJMP _0x394
; 0000 0071   else if(hieuung==32)               {check_effect_left_right2(msg32[2]+4);}    //
_0x1BF:
	LDS  R26,_hieuung
	CPI  R26,LOW(0x20)
	BRNE _0x1C1
	__POINTW1FN _msg32,2
	RJMP _0x394
; 0000 0072   else if(hieuung==33)               {check_effect_left_right2(msg33[2]+4);}    //
_0x1C1:
	LDS  R26,_hieuung
	CPI  R26,LOW(0x21)
	BRNE _0x1C3
	__POINTW1FN _msg33,2
	RJMP _0x394
; 0000 0073   else if(hieuung==34)              {check_effect_left_right2(msg34[2]+4);}    //
_0x1C3:
	LDS  R26,_hieuung
	CPI  R26,LOW(0x22)
	BRNE _0x1C5
	__POINTW1FN _msg34,2
	RJMP _0x394
; 0000 0074   else if(hieuung==35)               {check_effect_left_right2(msg35[2]+4);}    //
_0x1C5:
	LDS  R26,_hieuung
	CPI  R26,LOW(0x23)
	BRNE _0x1C7
	__POINTW1FN _msg35,2
	RJMP _0x394
; 0000 0075   else if(hieuung==36)              {check_effect_left_right2(msg36[2]+4);}    //
_0x1C7:
	LDS  R26,_hieuung
	CPI  R26,LOW(0x24)
	BRNE _0x1C9
	__POINTW1FN _msg36,2
	RJMP _0x394
; 0000 0076   else if(hieuung==37)               {check_effect_left_right2(msg37[2]+4);}    //
_0x1C9:
	LDS  R26,_hieuung
	CPI  R26,LOW(0x25)
	BRNE _0x1CB
	__POINTW1FN _msg37,2
	RJMP _0x394
; 0000 0077   else if(hieuung==38)               {check_effect_left_right2(msg38[2]+4);}    //
_0x1CB:
	LDS  R26,_hieuung
	CPI  R26,LOW(0x26)
	BRNE _0x1CD
	__POINTW1FN _msg38,2
	RJMP _0x394
; 0000 0078   else if(hieuung==39)              {check_effect_left_right2(msg39[2]+4);}    //
_0x1CD:
	LDS  R26,_hieuung
	CPI  R26,LOW(0x27)
	BRNE _0x1CF
	__POINTW1FN _msg39,2
	RJMP _0x394
; 0000 0079   else if(hieuung==40)              {check_effect_left_right2(msg40[2]+4);}    //
_0x1CF:
	LDS  R26,_hieuung
	CPI  R26,LOW(0x28)
	BRNE _0x1D1
	__POINTW1FN _msg40,2
	RJMP _0x394
; 0000 007A 
; 0000 007B   else                              {check_effect_left_right2(msg[2]+4);}     // Ngay moi vui ve !
_0x1D1:
	__POINTW1FN _msg,2
_0x394:
	LPM  R30,Z
	LDI  R31,0
	ADIW R30,4
	MOVW R26,R30
	RCALL _check_effect_left_right2
_0x194:
_0x192:
_0x190:
_0x18E:
_0x18C:
; 0000 007C }
	RET
;/*----------------------------------------------------------------------------*/
;/*----------------------------------------------------------------------------*/
;/////////////////////////////////////////////////
;// Timer 0 output compare interrupt service routine
;interrupt [TIM0_COMP] void timer0_comp_isr(void)  // Ngat dieu chinh thoi gian
; 0000 0082 {   // Place your code here
_timer0_comp_isr:
	CALL SUBOPT_0x4B
; 0000 0083 /*Dau cham nhap nhay*/
; 0000 0084     giaima_nhayso();
	CALL _giaima_nhayso
; 0000 0085     dem1++;
	INC  R10
; 0000 0086     dem1 = dem1 % 34;
	MOV  R26,R10
	CLR  R27
	LDI  R30,LOW(34)
	LDI  R31,HIGH(34)
	CALL __MODW21
	MOV  R10,R30
; 0000 0087     if(dem1 < 17)
	LDI  R30,LOW(17)
	CP   R10,R30
	BRSH _0x1D3
; 0000 0088     {
; 0000 0089         motcham=0x01; // TAT DAU CHAM
	LDI  R30,LOW(1)
	MOV  R13,R30
; 0000 008A     }
; 0000 008B     else
	RJMP _0x1D4
_0x1D3:
; 0000 008C     {
; 0000 008D         motcham=0x00;  // BAT DAU CHAM
	CLR  R13
; 0000 008E     }
_0x1D4:
; 0000 008F     /*************************/
; 0000 0090     if(dem==1)
	LDI  R30,LOW(1)
	CP   R30,R11
	BRNE _0x1D5
; 0000 0091     {
; 0000 0092         case_effect(); /// Goi chuong trinh chay chu luc bat nguon
	RCALL _case_effect
; 0000 0093     }
; 0000 0094     else // NEU DEM KHAC 1 THI CAI DAT THOI GIAN
	RJMP _0x1D6
_0x1D5:
; 0000 0095     {
; 0000 0096         if(check_autohand==0)
	TST  R4
	BRNE _0x1D7
; 0000 0097         {
; 0000 0098             if(!SETUP && SETUP!=setup_old) //check the set key, NEU NHAN SET TH LAM
	SBIC 0x19,5
	RJMP _0x1D9
	LDI  R26,0
	SBIC 0x19,5
	LDI  R26,1
	LDI  R30,0
	SBRC R2,0
	LDI  R30,1
	CALL SUBOPT_0x4C
	BRNE _0x1DA
_0x1D9:
	RJMP _0x1D8
_0x1DA:
; 0000 0099             {
; 0000 009A                 setting++;
	INC  R8
; 0000 009B                 if(setting >= 8) setting=0;
	LDI  R30,LOW(8)
	CP   R8,R30
	BRLO _0x1DB
	CLR  R8
; 0000 009C             }
_0x1DB:
; 0000 009D             /*************************/
; 0000 009E             if(!SETDOWN && SETDOWN!=setdown_old) //check the set key, NEU NHAN SET TH LAM
_0x1D8:
	SBIC 0x19,3
	RJMP _0x1DD
	LDI  R26,0
	SBIC 0x19,3
	LDI  R26,1
	LDI  R30,0
	SBRC R2,6
	LDI  R30,1
	CALL SUBOPT_0x4C
	BRNE _0x1DE
_0x1DD:
	RJMP _0x1DC
_0x1DE:
; 0000 009F             {
; 0000 00A0                 setting--;
	DEC  R8
; 0000 00A1                 if(setting == 255) setting=7;
	LDI  R30,LOW(255)
	CP   R30,R8
	BRNE _0x1DF
	LDI  R30,LOW(7)
	MOV  R8,R30
; 0000 00A2             }
_0x1DF:
; 0000 00A3         }
_0x1DC:
; 0000 00A4        /*************************/
; 0000 00A5         if(setting != 0)
_0x1D7:
	TST  R8
	BREQ _0x1E0
; 0000 00A6         {
; 0000 00A7            if(!OK && OK!=ok_old)
	SBIC 0x19,0
	RJMP _0x1E2
	CALL SUBOPT_0x4D
	BRNE _0x1E3
_0x1E2:
	RJMP _0x1E1
_0x1E3:
; 0000 00A8             {
; 0000 00A9                // DUA THOI GIAN CAI DAT VAO RTC
; 0000 00AA                setting = 0;
	CLR  R8
; 0000 00AB                mode1=0;
	CLR  R6
; 0000 00AC                mode2=0;
	CLR  R9
; 0000 00AD                rtc_set_time(hour,min,sec);
	LDS  R30,_hour
	ST   -Y,R30
	LDS  R30,_min
	ST   -Y,R30
	LDS  R26,_sec
	CALL _rtc_set_time
; 0000 00AE                rtc_set_date(week,day,month,year);
	LDS  R30,_week
	ST   -Y,R30
	CALL SUBOPT_0x4E
	LDS  R26,_year
	CALL _rtc_set_date
; 0000 00AF             }
; 0000 00B0             else if(!EXIT && EXIT!=exit_old)
	RJMP _0x1E4
_0x1E1:
	SBIC 0x13,2
	RJMP _0x1E6
	LDI  R26,0
	SBIC 0x13,2
	LDI  R26,1
	LDI  R30,0
	SBRC R2,5
	LDI  R30,1
	CALL SUBOPT_0x4C
	BRNE _0x1E7
_0x1E6:
	RJMP _0x1E5
_0x1E7:
; 0000 00B1             {
; 0000 00B2                setting = 0;
	CLR  R8
; 0000 00B3                mode1=0;
	CLR  R6
; 0000 00B4                mode2=0;
	CLR  R9
; 0000 00B5             }
; 0000 00B6         }
_0x1E5:
_0x1E4:
; 0000 00B7         /*************************/
; 0000 00B8         if(setting==0)
_0x1E0:
	TST  R8
	BREQ PC+3
	JMP _0x1E8
; 0000 00B9         {
; 0000 00BA             // DOC THOI GIAN TU RTC
; 0000 00BB             rtc_get_time(&hour,&min,&sec);
	LDI  R30,LOW(_hour)
	LDI  R31,HIGH(_hour)
	ST   -Y,R31
	ST   -Y,R30
	LDI  R30,LOW(_min)
	LDI  R31,HIGH(_min)
	ST   -Y,R31
	ST   -Y,R30
	LDI  R26,LOW(_sec)
	LDI  R27,HIGH(_sec)
	CALL _rtc_get_time
; 0000 00BC             rtc_get_date(&week,&day,&month,&year);
	LDI  R30,LOW(_week)
	LDI  R31,HIGH(_week)
	ST   -Y,R31
	ST   -Y,R30
	LDI  R30,LOW(_day)
	LDI  R31,HIGH(_day)
	ST   -Y,R31
	ST   -Y,R30
	LDI  R30,LOW(_month)
	LDI  R31,HIGH(_month)
	ST   -Y,R31
	ST   -Y,R30
	LDI  R26,LOW(_year)
	LDI  R27,HIGH(_year)
	CALL _rtc_get_date
; 0000 00BD             lunar_calculate(day,month,year,&ngay_amlich,&thang_amlich,&nam_amlich);
	CALL SUBOPT_0x4E
	LDS  R30,_year
	ST   -Y,R30
	LDI  R30,LOW(_ngay_amlich)
	LDI  R31,HIGH(_ngay_amlich)
	ST   -Y,R31
	ST   -Y,R30
	LDI  R30,LOW(_thang_amlich)
	LDI  R31,HIGH(_thang_amlich)
	ST   -Y,R31
	ST   -Y,R30
	LDI  R26,LOW(_nam_amlich)
	LDI  R27,HIGH(_nam_amlich)
	CALL _lunar_calculate
; 0000 00BE             allnam_amlich=20*100+nam_amlich;
	LDS  R30,_nam_amlich
	LDI  R31,0
	SUBI R30,LOW(-2000)
	SBCI R31,HIGH(-2000)
	STS  _allnam_amlich,R30
	STS  _allnam_amlich+1,R31
; 0000 00BF 
; 0000 00C0             /*************************/
; 0000 00C1             if (sec==0 && min==0 && hour >= 6 && hour <= 20) //  || ( sec==2 && min%2==0 &&((day==1 && month==1) || ( (ngay_amlich==30 && thang_amlich==12) || ( (ngay_amlich==1 || ngay_amlich==2 ||ngay_amlich==3 ||ngay_amlich==4) && thang_amlich==1) ))) )
	LDS  R26,_sec
	CPI  R26,LOW(0x0)
	BRNE _0x1EA
	LDS  R26,_min
	CPI  R26,LOW(0x0)
	BRNE _0x1EA
	LDS  R26,_hour
	CPI  R26,LOW(0x6)
	BRLO _0x1EA
	CPI  R26,LOW(0x15)
	BRLO _0x1EB
_0x1EA:
	RJMP _0x1E9
_0x1EB:
; 0000 00C2                 BUZZER = motcham;
	MOV  R30,R13
	CPI  R30,0
	BRNE _0x1EC
	CBI  0x12,0
	RJMP _0x1ED
_0x1EC:
	SBI  0x12,0
_0x1ED:
; 0000 00C3             else
	RJMP _0x1EE
_0x1E9:
; 0000 00C4                 BUZZER = 0;
	CBI  0x12,0
; 0000 00C5            /*************************/
; 0000 00C6             if(!AUTOHAND && AUTOHAND!=autohand_old) //check the up key
_0x1EE:
	SBIC 0x19,1
	RJMP _0x1F2
	LDI  R26,0
	SBIC 0x19,1
	LDI  R26,1
	LDI  R30,0
	SBRC R2,4
	LDI  R30,1
	CALL SUBOPT_0x4C
	BRNE _0x1F3
_0x1F2:
	RJMP _0x1F1
_0x1F3:
; 0000 00C7             {
; 0000 00C8                 check_autohand=1;  // Bat hien thi chon che do
	LDI  R30,LOW(1)
	MOV  R4,R30
; 0000 00C9                                     // Khoa hien thi Auto
; 0000 00CA                 mode1=6;           // Khoa hien thi Auto
	LDI  R30,LOW(6)
	MOV  R6,R30
; 0000 00CB                 mode2=6;           // Khoa hien thi Hand
	MOV  R9,R30
; 0000 00CC                 autohand++;
	INC  R5
; 0000 00CD                 if (autohand > 2) autohand =0;
	LDI  R30,LOW(2)
	CP   R30,R5
	BRSH _0x1F4
	CLR  R5
; 0000 00CE             }
_0x1F4:
; 0000 00CF             /******************************/
; 0000 00D0            if(!OK && OK!=ok_old)
_0x1F1:
	SBIC 0x19,0
	RJMP _0x1F6
	CALL SUBOPT_0x4D
	BRNE _0x1F7
_0x1F6:
	RJMP _0x1F5
_0x1F7:
; 0000 00D1             {
; 0000 00D2                check_autohand=0;           // Thoat hien thi chon che do
	CLR  R4
; 0000 00D3                luu_autohand = autohand;
	MOV  R7,R5
; 0000 00D4                mode1=0;
	CLR  R6
; 0000 00D5                mode2=0;
	CLR  R9
; 0000 00D6             }
; 0000 00D7            /*************************/
; 0000 00D8            if ((luu_autohand==1 || luu_autohand==2) && check_autohand==0) //Chon man hinh khi o che do Hand
_0x1F5:
	LDI  R30,LOW(1)
	CP   R30,R7
	BREQ _0x1F9
	LDI  R30,LOW(2)
	CP   R30,R7
	BRNE _0x1FB
_0x1F9:
	LDI  R30,LOW(0)
	CP   R30,R4
	BREQ _0x1FC
_0x1FB:
	RJMP _0x1F8
_0x1FC:
; 0000 00D9            {    mode1=6;        // Khoa hien thi Auto
	LDI  R30,LOW(6)
	MOV  R6,R30
; 0000 00DA                 if(!UP && UP!=up_old) //check the up key
	SBIC 0x13,3
	RJMP _0x1FE
	CALL SUBOPT_0x4F
	BRNE _0x1FF
_0x1FE:
	RJMP _0x1FD
_0x1FF:
; 0000 00DB                 {
; 0000 00DC                     mode2++;
	INC  R9
; 0000 00DD                     if (mode2 >4)mode2 = 0;
	LDI  R30,LOW(4)
	CP   R30,R9
	BRSH _0x200
	CLR  R9
; 0000 00DE                 }
_0x200:
; 0000 00DF                 else if(!DOWN && DOWN!=down_old) //check the down key
	RJMP _0x201
_0x1FD:
	SBIC 0x13,4
	RJMP _0x203
	CALL SUBOPT_0x50
	BRNE _0x204
_0x203:
	RJMP _0x202
_0x204:
; 0000 00E0                 {
; 0000 00E1                     mode2--;
	DEC  R9
; 0000 00E2                     if (mode2 == 255)mode2 = 4;
	LDI  R30,LOW(255)
	CP   R30,R9
	BRNE _0x205
	LDI  R30,LOW(4)
	MOV  R9,R30
; 0000 00E3                 }
_0x205:
; 0000 00E4            }
_0x202:
_0x201:
; 0000 00E5 
; 0000 00E6         }else if(setting==1)// CAI DAT NAM
_0x1F8:
	RJMP _0x206
_0x1E8:
	LDI  R30,LOW(1)
	CP   R30,R8
	BRNE _0x207
; 0000 00E7         {
; 0000 00E8             if(!UP && UP!=up_old) //check the up key
	SBIC 0x13,3
	RJMP _0x209
	CALL SUBOPT_0x4F
	BRNE _0x20A
_0x209:
	RJMP _0x208
_0x20A:
; 0000 00E9             {
; 0000 00EA                 year++;
	LDS  R30,_year
	SUBI R30,-LOW(1)
	STS  _year,R30
; 0000 00EB                 if (year >99)year = 13;
	LDS  R26,_year
	CPI  R26,LOW(0x64)
	BRLO _0x20B
	LDI  R30,LOW(13)
	STS  _year,R30
; 0000 00EC             }
_0x20B:
; 0000 00ED             else if(!DOWN && DOWN!=down_old) //check the down key
	RJMP _0x20C
_0x208:
	SBIC 0x13,4
	RJMP _0x20E
	CALL SUBOPT_0x50
	BRNE _0x20F
_0x20E:
	RJMP _0x20D
_0x20F:
; 0000 00EE             {
; 0000 00EF                 year--;
	LDS  R30,_year
	SUBI R30,LOW(1)
	STS  _year,R30
; 0000 00F0                 if (year <13)year = 99;
	LDS  R26,_year
	CPI  R26,LOW(0xD)
	BRSH _0x210
	LDI  R30,LOW(99)
	STS  _year,R30
; 0000 00F1             }
_0x210:
; 0000 00F2 
; 0000 00F3         }else if(setting==2)// CAI DAT THANG
_0x20D:
_0x20C:
	RJMP _0x211
_0x207:
	LDI  R30,LOW(2)
	CP   R30,R8
	BRNE _0x212
; 0000 00F4         {
; 0000 00F5             if(!UP && UP!=up_old) //check the up key
	SBIC 0x13,3
	RJMP _0x214
	CALL SUBOPT_0x4F
	BRNE _0x215
_0x214:
	RJMP _0x213
_0x215:
; 0000 00F6             {
; 0000 00F7                 month++;
	LDS  R30,_month
	SUBI R30,-LOW(1)
	STS  _month,R30
; 0000 00F8                 if (month >12)month = 1;
	LDS  R26,_month
	CPI  R26,LOW(0xD)
	BRLO _0x216
	LDI  R30,LOW(1)
	STS  _month,R30
; 0000 00F9             }
_0x216:
; 0000 00FA             else if(!DOWN && DOWN!=down_old) //check the down key
	RJMP _0x217
_0x213:
	SBIC 0x13,4
	RJMP _0x219
	CALL SUBOPT_0x50
	BRNE _0x21A
_0x219:
	RJMP _0x218
_0x21A:
; 0000 00FB             {
; 0000 00FC                 month--;
	LDS  R30,_month
	SUBI R30,LOW(1)
	STS  _month,R30
; 0000 00FD                 if (month < 1)month = 12;
	LDS  R26,_month
	CPI  R26,LOW(0x1)
	BRSH _0x21B
	LDI  R30,LOW(12)
	STS  _month,R30
; 0000 00FE             }
_0x21B:
; 0000 00FF         }else if(setting==3) // CAI DAT NGAY
_0x218:
_0x217:
	RJMP _0x21C
_0x212:
	LDI  R30,LOW(3)
	CP   R30,R8
	BRNE _0x21D
; 0000 0100         {
; 0000 0101             if(!UP && UP!=up_old) //check the up key
	SBIC 0x13,3
	RJMP _0x21F
	CALL SUBOPT_0x4F
	BRNE _0x220
_0x21F:
	RJMP _0x21E
_0x220:
; 0000 0102             {
; 0000 0103                 day++;
	LDS  R30,_day
	SUBI R30,-LOW(1)
	STS  _day,R30
; 0000 0104                 if (day >31)day = 1;
	LDS  R26,_day
	CPI  R26,LOW(0x20)
	BRLO _0x221
	LDI  R30,LOW(1)
	STS  _day,R30
; 0000 0105             }
_0x221:
; 0000 0106             else if(!DOWN && DOWN!=down_old) //check the down key
	RJMP _0x222
_0x21E:
	SBIC 0x13,4
	RJMP _0x224
	CALL SUBOPT_0x50
	BRNE _0x225
_0x224:
	RJMP _0x223
_0x225:
; 0000 0107             {
; 0000 0108                 day--;
	LDS  R30,_day
	SUBI R30,LOW(1)
	STS  _day,R30
; 0000 0109                 if (day < 1)day = 31;
	LDS  R26,_day
	CPI  R26,LOW(0x1)
	BRSH _0x226
	LDI  R30,LOW(31)
	STS  _day,R30
; 0000 010A             }
_0x226:
; 0000 010B         }else if(setting==4) // CAI DAT THU
_0x223:
_0x222:
	RJMP _0x227
_0x21D:
	LDI  R30,LOW(4)
	CP   R30,R8
	BRNE _0x228
; 0000 010C         {
; 0000 010D             if(!UP && UP!=up_old) //check the up key
	SBIC 0x13,3
	RJMP _0x22A
	CALL SUBOPT_0x4F
	BRNE _0x22B
_0x22A:
	RJMP _0x229
_0x22B:
; 0000 010E             {
; 0000 010F                 week++;
	LDS  R30,_week
	SUBI R30,-LOW(1)
	STS  _week,R30
; 0000 0110                 if (week >7)week = 1;
	LDS  R26,_week
	CPI  R26,LOW(0x8)
	BRLO _0x22C
	LDI  R30,LOW(1)
	STS  _week,R30
; 0000 0111             }
_0x22C:
; 0000 0112             else if(!DOWN && DOWN!=down_old) //check the down key
	RJMP _0x22D
_0x229:
	SBIC 0x13,4
	RJMP _0x22F
	CALL SUBOPT_0x50
	BRNE _0x230
_0x22F:
	RJMP _0x22E
_0x230:
; 0000 0113             {
; 0000 0114                 week--;
	LDS  R30,_week
	SUBI R30,LOW(1)
	STS  _week,R30
; 0000 0115                 if (week <1)week = 7;
	LDS  R26,_week
	CPI  R26,LOW(0x1)
	BRSH _0x231
	LDI  R30,LOW(7)
	STS  _week,R30
; 0000 0116             }
_0x231:
; 0000 0117         }
_0x22E:
_0x22D:
; 0000 0118 
; 0000 0119         else if(setting==5) // CAI DAT GIO
	RJMP _0x232
_0x228:
	LDI  R30,LOW(5)
	CP   R30,R8
	BRNE _0x233
; 0000 011A         {
; 0000 011B             if(!UP && UP!=up_old) //check the up key
	SBIC 0x13,3
	RJMP _0x235
	CALL SUBOPT_0x4F
	BRNE _0x236
_0x235:
	RJMP _0x234
_0x236:
; 0000 011C             {
; 0000 011D                 hour++;
	LDS  R30,_hour
	SUBI R30,-LOW(1)
	STS  _hour,R30
; 0000 011E                 if (hour >23)hour = 0;
	LDS  R26,_hour
	CPI  R26,LOW(0x18)
	BRLO _0x237
	LDI  R30,LOW(0)
	STS  _hour,R30
; 0000 011F             }
_0x237:
; 0000 0120             else if(!DOWN && DOWN!=down_old) //check the down key
	RJMP _0x238
_0x234:
	SBIC 0x13,4
	RJMP _0x23A
	CALL SUBOPT_0x50
	BRNE _0x23B
_0x23A:
	RJMP _0x239
_0x23B:
; 0000 0121             {
; 0000 0122                 hour--;
	LDS  R30,_hour
	SUBI R30,LOW(1)
	STS  _hour,R30
; 0000 0123                 if (hour == 255) hour = 23;
	LDS  R26,_hour
	CPI  R26,LOW(0xFF)
	BRNE _0x23C
	LDI  R30,LOW(23)
	STS  _hour,R30
; 0000 0124             }
_0x23C:
; 0000 0125 
; 0000 0126         }else if(setting==6) // CAI DAT PHUT
_0x239:
_0x238:
	RJMP _0x23D
_0x233:
	LDI  R30,LOW(6)
	CP   R30,R8
	BRNE _0x23E
; 0000 0127         {
; 0000 0128             if(!UP && UP!=up_old) //check the up key
	SBIC 0x13,3
	RJMP _0x240
	CALL SUBOPT_0x4F
	BRNE _0x241
_0x240:
	RJMP _0x23F
_0x241:
; 0000 0129             {
; 0000 012A                 min++;
	LDS  R30,_min
	SUBI R30,-LOW(1)
	STS  _min,R30
; 0000 012B                 if (min >59)min = 0;
	LDS  R26,_min
	CPI  R26,LOW(0x3C)
	BRLO _0x242
	LDI  R30,LOW(0)
	STS  _min,R30
; 0000 012C             }
_0x242:
; 0000 012D             else if(!DOWN && DOWN!=down_old) //check the down key
	RJMP _0x243
_0x23F:
	SBIC 0x13,4
	RJMP _0x245
	CALL SUBOPT_0x50
	BRNE _0x246
_0x245:
	RJMP _0x244
_0x246:
; 0000 012E             {
; 0000 012F                 min--;
	LDS  R30,_min
	SUBI R30,LOW(1)
	STS  _min,R30
; 0000 0130                 if (min == 255)  min = 59;
	LDS  R26,_min
	CPI  R26,LOW(0xFF)
	BRNE _0x247
	LDI  R30,LOW(59)
	STS  _min,R30
; 0000 0131             }
_0x247:
; 0000 0132         }else if(setting == 7)// CAI DAT GIAY
_0x244:
_0x243:
	RJMP _0x248
_0x23E:
	LDI  R30,LOW(7)
	CP   R30,R8
	BRNE _0x249
; 0000 0133         {
; 0000 0134             if(!UP && UP!=up_old) //check the up key
	SBIC 0x13,3
	RJMP _0x24B
	CALL SUBOPT_0x4F
	BRNE _0x24C
_0x24B:
	RJMP _0x24A
_0x24C:
; 0000 0135             {
; 0000 0136                 sec++;
	LDS  R30,_sec
	SUBI R30,-LOW(1)
	STS  _sec,R30
; 0000 0137                 if (sec >59)sec = 0;
	LDS  R26,_sec
	CPI  R26,LOW(0x3C)
	BRLO _0x24D
	LDI  R30,LOW(0)
	STS  _sec,R30
; 0000 0138             }
_0x24D:
; 0000 0139             else if(!DOWN && DOWN!=down_old) //check the down key
	RJMP _0x24E
_0x24A:
	SBIC 0x13,4
	RJMP _0x250
	CALL SUBOPT_0x50
	BRNE _0x251
_0x250:
	RJMP _0x24F
_0x251:
; 0000 013A             {
; 0000 013B                 sec--;
	LDS  R30,_sec
	SUBI R30,LOW(1)
	STS  _sec,R30
; 0000 013C                 if (sec == 255) sec = 59;
	LDS  R26,_sec
	CPI  R26,LOW(0xFF)
	BRNE _0x252
	LDI  R30,LOW(59)
	STS  _sec,R30
; 0000 013D             }
_0x252:
; 0000 013E         }
_0x24F:
_0x24E:
; 0000 013F 
; 0000 0140         setup_old=SETUP;
_0x249:
_0x248:
_0x23D:
_0x232:
_0x227:
_0x21C:
_0x211:
_0x206:
	CLT
	SBIC 0x19,5
	SET
	BLD  R2,0
; 0000 0141         up_old=UP;
	CLT
	SBIC 0x13,3
	SET
	BLD  R2,1
; 0000 0142         down_old = DOWN;
	CLT
	SBIC 0x13,4
	SET
	BLD  R2,2
; 0000 0143         autohand_old = AUTOHAND;
	CLT
	SBIC 0x19,1
	SET
	BLD  R2,4
; 0000 0144         ok_old = OK;
	CLT
	SBIC 0x19,0
	SET
	BLD  R2,3
; 0000 0145         setdown_old = SETDOWN;
	CLT
	SBIC 0x19,3
	SET
	BLD  R2,6
; 0000 0146         exit_old = EXIT;
	CLT
	SBIC 0x13,2
	SET
	BLD  R2,5
; 0000 0147     }
_0x1D6:
; 0000 0148 }
	RJMP _0x39A
;/*----------------------------------------------------------------------------*/
;/*----------------------------------------------------------------------------*/
;// Timer 1 output compare A interrupt service routine
;// Dung timer 1 de scan led matrix
;interrupt [TIM1_COMPA] void timer1_compa_isr(void) // Ngat scan man hinh
; 0000 014E {
_timer1_compa_isr:
	CALL SUBOPT_0x4B
; 0000 014F  // Place your code here
; 0000 0150    // Doc gio, phut, giay tu ds1307
; 0000 0151     scan_screen();
	CALL _scan_screen
; 0000 0152 }
_0x39A:
	LD   R30,Y+
	OUT  SREG,R30
	LD   R31,Y+
	LD   R30,Y+
	LD   R27,Y+
	LD   R26,Y+
	LD   R25,Y+
	LD   R24,Y+
	LD   R23,Y+
	LD   R22,Y+
	LD   R15,Y+
	LD   R1,Y+
	LD   R0,Y+
	RETI
;/*----------------------------------------------------*/
;
;/********************************************************/
;void main(void)
; 0000 0157 {
_main:
; 0000 0158     #include <ConfigSet.c>
;/*Cai dat thong so ban dau cho vi dieu khien*/
;PORTA=0x00;
	LDI  R30,LOW(0)
	OUT  0x1B,R30
;DDRA=0x00;
	OUT  0x1A,R30
;
;PORTB=0xFF;
	LDI  R30,LOW(255)
	OUT  0x18,R30
;DDRB=0xFF;    // PORTB lam dau ra
	OUT  0x17,R30
;
;PORTC=0x00;
	LDI  R30,LOW(0)
	OUT  0x15,R30
;DDRC=0x00;    // PORTC lam dau vao
	OUT  0x14,R30
;
;PORTD=0x00;
	OUT  0x12,R30
;DDRD=0xFF;
	LDI  R30,LOW(255)
	OUT  0x11,R30
;
;
;
;// Timer/Counter 0 initialization
;// Clock source: System Clock
;// Clock value: 3.906 kHz
;// Mode: CTC top=OCR0
;// OC0 output: Disconnected
;TCCR0=0x0D;
	LDI  R30,LOW(13)
	OUT  0x33,R30
;TCNT0=0x00;
	LDI  R30,LOW(0)
	OUT  0x32,R30
;OCR0=0xAF;
	LDI  R30,LOW(175)
	OUT  0x3C,R30
;
;// Timer/Counter 1 initialization
;// Clock source: System Clock
;// Clock value: 3.906 kHz
;// Mode: CTC top=OCR1A
;// OC1A output: Discon.
;// OC1B output: Discon.
;// Noise Canceler: Off
;// Input Capture on Falling Edge
;// Timer 1 Overflow Interrupt: Off
;// Input Capture Interrupt: Off
;// Compare A Match Interrupt: On
;// Compare B Match Interrupt: Off
;TCCR1A=0x00;
	LDI  R30,LOW(0)
	OUT  0x2F,R30
;TCCR1B=0x0D;
	LDI  R30,LOW(13)
	OUT  0x2E,R30
;TCNT1H=0x00;
	LDI  R30,LOW(0)
	OUT  0x2D,R30
;TCNT1L=0x00;
	OUT  0x2C,R30
;ICR1H=0x00;
	OUT  0x27,R30
;ICR1L=0x00;
	OUT  0x26,R30
;OCR1AH=0x00;
	OUT  0x2B,R30
;OCR1AL=0x0F;
	LDI  R30,LOW(15)
	OUT  0x2A,R30
;OCR1BH=0x00;
	LDI  R30,LOW(0)
	OUT  0x29,R30
;OCR1BL=0x00;
	OUT  0x28,R30
;
;// Timer(s)/Counter(s) Interrupt(s) initialization
;TIMSK=0x12;
	LDI  R30,LOW(18)
	OUT  0x39,R30
;
;// Analog Comparator initialization
;// Analog Comparator: Off
;// Analog Comparator Input Capture by Timer/Counter 1: Off
;ACSR=0x80;
	LDI  R30,LOW(128)
	OUT  0x8,R30
;SFIOR=0x00;
	LDI  R30,LOW(0)
	OUT  0x30,R30
;/*
;// SPI initialization
;// SPI Type: Master
;// SPI Clock Rate: 2*1000.000 kHz
;// SPI Clock Phase: Cycle Half
;// SPI Clock Polarity: Low
;// SPI Data Order: MSB First
;SPCR=0x50;
;SPSR=0x01;
;*/
;// Global enable interrupts
;i2c_init();
	CALL _i2c_init
;rtc_init(0,1,0);
	LDI  R30,LOW(0)
	ST   -Y,R30
	LDI  R30,LOW(1)
	ST   -Y,R30
	LDI  R26,LOW(0)
	CALL _rtc_init
;#asm("sei")
	sei
; 0000 0159     hieuung=rtc_read(0x0A);
	LDI  R26,LOW(10)
	CALL _rtc_read
	STS  _hieuung,R30
; 0000 015A 
; 0000 015B     dem=1;  // lnh nay cho phep chay chu
	LDI  R30,LOW(1)
	MOV  R11,R30
; 0000 015C     while (1)
_0x253:
; 0000 015D     {
; 0000 015E 
; 0000 015F     /// Dieu kien chay hieu ung
; 0000 0160 //    /*Chuong trinh chay mode Auto*/
; 0000 0161 //      if (luu_autohand==0 && check_autohand==0)
; 0000 0162 //        if(setting==0)   // <=> if (setting=0), khong cho thay doi hieu ung khi cai dat thoi gian
; 0000 0163 //            if(dem==0)
; 0000 0164 //            {
; 0000 0165 //                 if (hieuung <5) {mode1 = hieuung;}
; 0000 0166 //                 else             {mode1=0;}
; 0000 0167 //                 /************/
; 0000 0168 //                 if(sec==3 || sec==33)
; 0000 0169 //                  {
; 0000 016A //                        if ((day==1 && month==1) || ( (ngay_amlich==30 && thang_amlich==12) || ( (ngay_amlich==1 || ngay_amlich==2 ||ngay_amlich==3 ||ngay_amlich==4) && thang_amlich==1) ))
; 0000 016B //                        {
; 0000 016C //                           if(min%5==0)
; 0000 016D //                           {
; 0000 016E //                                //Chuc mung nam moi-An khang thinh vuong
; 0000 016F //                                ghivao_ramds(10);
; 0000 0170 //                           }
; 0000 0171 //
; 0000 0172 //                           else if(min%4==0)
; 0000 0173 //                           {
; 0000 0174 //                                //Ngay xuan vinh hoa phu quy ve
; 0000 0175 //                                ghivao_ramds(13);
; 0000 0176 //                           }
; 0000 0177 //                           else if(min%3==0)
; 0000 0178 //                           {
; 0000 0179 //                                //Nam moi hanh phuc binh an den
; 0000 017A //                                ghivao_ramds(12);
; 0000 017B //                           }
; 0000 017C //                           else if(min%2==0)
; 0000 017D //                           {
; 0000 017E //                                 // Tet toi tan tai-Xuan sang dac loc !
; 0000 017F //                                ghivao_ramds(11);
; 0000 0180 //                           }
; 0000 0181 //
; 0000 0182 //                        }
; 0000 0183 //                        else if (min%2==0 && year==13 && month==12 && (day==27 || day==28))
; 0000 0184 //                        {
; 0000 0185 //                               //tram nam tinh vien man-bac dau nghia phu the
; 0000 0186 //                                ghivao_ramds(9);
; 0000 0187 //                        }
; 0000 0188 //
; 0000 0189 //                        /************************/
; 0000 018A //                        /*Cac ngay le trong nam*/
; 0000 018B //                        /*AM LICH*/
; 0000 018C //
; 0000 018D //                        //TET NUYEN TIEU 15/1 AL
; 0000 018E //                        else if (min%10==0 && ngay_amlich==15 && thang_amlich==1)
; 0000 018F //                        {
; 0000 0190 //                            ghivao_ramds(15);
; 0000 0191 //                        }
; 0000 0192 //                        //GIO TO HUNG VUONG 10/3 AL
; 0000 0193 //                        else if (min%10==0 && ngay_amlich==10 && thang_amlich==3)
; 0000 0194 //                        {
; 0000 0195 //                            ghivao_ramds(16);
; 0000 0196 //                        }
; 0000 0197 //                        //LE PHAT DAN 15/4 AL
; 0000 0198 //                        else if (min%10==0 && ngay_amlich==15 && thang_amlich==4)
; 0000 0199 //                        {
; 0000 019A //                            ghivao_ramds(17);
; 0000 019B //                        }
; 0000 019C //                        //TET DOAN NGO 5/5 AL
; 0000 019D //                        else if (min%10==0 && ngay_amlich==5 && thang_amlich==5)
; 0000 019E //                        {
; 0000 019F //                            ghivao_ramds(18);
; 0000 01A0 //                        }
; 0000 01A1 //                        //LE VU LAN 15/7 AL
; 0000 01A2 //                        else if (min%10==0 && ngay_amlich==15 && thang_amlich==7)
; 0000 01A3 //                        {
; 0000 01A4 //                            ghivao_ramds(19);
; 0000 01A5 //                        }
; 0000 01A6 //                        //TET TRUNG THU 15/8 AL
; 0000 01A7 //                        else if (min%10==0 && ngay_amlich==15 && thang_amlich==8)
; 0000 01A8 //                        {
; 0000 01A9 //                            ghivao_ramds(20);
; 0000 01AA //                        }
; 0000 01AB //
; 0000 01AC //                        /**********************/
; 0000 01AD //                        /*NGAY LE DUONG LICH*/
; 0000 01AE //                        //NGAY HOC SINH SINH VIEN VIET NAM 9/1
; 0000 01AF //                        else if (min%5==0 && day==9 && month==1)
; 0000 01B0 //                        {
; 0000 01B1 //                            ghivao_ramds(21);
; 0000 01B2 //                        }
; 0000 01B3 //                        //THANH LAP DANG CONG SAN VIET NAM 3/2
; 0000 01B4 //                        else if (min%5==0 && day==3 && month==2)
; 0000 01B5 //                        {
; 0000 01B6 //                            ghivao_ramds(22);
; 0000 01B7 //                        }
; 0000 01B8 //                        //NGAY THAY THUOC VIET NAM 27/2
; 0000 01B9 //                        else if (min%5==0 && day==27 && month==2)
; 0000 01BA //                        {
; 0000 01BB //                            ghivao_ramds(23);
; 0000 01BC //                        }
; 0000 01BD //                        //NGAY LE TINH YEU 14/2
; 0000 01BE //                        else if (day==14 && month==2)
; 0000 01BF //                        {
; 0000 01C0 //                             if(min%5==0)
; 0000 01C1 //                             {   ghivao_ramds(24);}
; 0000 01C2 //                             else if (min%4==0)
; 0000 01C3 //                             {   ghivao_ramds(25);}
; 0000 01C4 //                        }
; 0000 01C5 //                        // QUOC TE PHU NU 8/3
; 0000 01C6 //                        else if (min%5==0 && day==8 && month==3)
; 0000 01C7 //                        {
; 0000 01C8 //                            ghivao_ramds(26);
; 0000 01C9 //                        }
; 0000 01CA //                        //NGAY GIAI PHONG MIEN NAM 30/4
; 0000 01CB //                        else if (min%5==0 && day==30 && month==4)
; 0000 01CC //                        {
; 0000 01CD //                            ghivao_ramds(27);
; 0000 01CE //                        }
; 0000 01CF //                        //NGAY QUOC TE LAO DONG 1/5
; 0000 01D0 //                        else if (min%5==0 && day==1 && month==5)
; 0000 01D1 //                        {
; 0000 01D2 //                            ghivao_ramds(28);
; 0000 01D3 //                        }
; 0000 01D4 //                        //NGAY CUA ME 13/5
; 0000 01D5 //                        else if (min%5==0 && day==13 && month==5)
; 0000 01D6 //                        {
; 0000 01D7 //                            ghivao_ramds(29);
; 0000 01D8 //                        }
; 0000 01D9 //                        //NGAY SINH CHU TICH HO CHI MINH 19/5
; 0000 01DA //                        else if (min%5==0 && day==19 && month==5)
; 0000 01DB //                        {
; 0000 01DC //                            ghivao_ramds(30);
; 0000 01DD //                        }
; 0000 01DE //                        //NGAY QUOC TE THIEU NHI 1/6
; 0000 01DF //                        else if (min%5==0 && day==1 && month==6)
; 0000 01E0 //                        {
; 0000 01E1 //                            ghivao_ramds(31);
; 0000 01E2 //                        }
; 0000 01E3 //                        //NGAY CUA BO 17/6
; 0000 01E4 //                        else if (min%5==0 && day==17 && month==6)
; 0000 01E5 //                        {
; 0000 01E6 //                            ghivao_ramds(32);
; 0000 01E7 //                        }
; 0000 01E8 //                        //NGAY GIA DINH VIET NAM 28/6
; 0000 01E9 //                        else if (min%5==0 && day==28 && month==6)
; 0000 01EA //                        {
; 0000 01EB //                            ghivao_ramds(33);
; 0000 01EC //                        }
; 0000 01ED //                        //NGAY THUONG BINH LIET SI 27/7
; 0000 01EE //                        else if (min%5==0 && day==27 && month==7)
; 0000 01EF //                        {
; 0000 01F0 //                            ghivao_ramds(34);
; 0000 01F1 //                        }
; 0000 01F2 //                        //LE QUOC KHANH 2/9
; 0000 01F3 //                        else if (min%5==0 && day==2 && month==9)
; 0000 01F4 //                        {
; 0000 01F5 //                            ghivao_ramds(35);
; 0000 01F6 //                        }
; 0000 01F7 //                        //NGAY QUOC TE NGUOI CAO TUOI 1/10
; 0000 01F8 //                        else if (min%5==0 && day==1 && month==10)
; 0000 01F9 //                        {
; 0000 01FA //                            ghivao_ramds(36);
; 0000 01FB //                        }
; 0000 01FC //                        //NGAY NHA GIAO VIET NAM 20/11
; 0000 01FD //                        else if (min%5==0 && day==20 && month==11)
; 0000 01FE //                        {
; 0000 01FF //                            ghivao_ramds(37);
; 0000 0200 //                        }
; 0000 0201 //                        //NGAY THE GIOI PHONG CHON AIDS 1/12
; 0000 0202 //                        else if (min%5==0 && day==1 && month==12)
; 0000 0203 //                        {
; 0000 0204 //                            ghivao_ramds(38);
; 0000 0205 //                        }
; 0000 0206 //                        //NGAY QUAN DOI NHAN DAN VIET NAM 22/12
; 0000 0207 //                        else if (min%5==0 && day==22 && month==12)
; 0000 0208 //                        {
; 0000 0209 //                            ghivao_ramds(39);
; 0000 020A //                        }
; 0000 020B //                        //GIANG SINH 24/12
; 0000 020C //                        else if (min%5==0 && day==24 && month==12)
; 0000 020D //                        {
; 0000 020E //                            ghivao_ramds(40);
; 0000 020F //                        }
; 0000 0210 //                       /*****************************/
; 0000 0211 //                        else
; 0000 0212 //                        {
; 0000 0213 //                            rtc_write(0x0A,0);
; 0000 0214 //                            if(hieuung==0)
; 0000 0215 //                            {
; 0000 0216 //                                //hien thi Thu
; 0000 0217 //                                ghivao_ramds(1);
; 0000 0218 //                            }
; 0000 0219 //                        }
; 0000 021A //                  }
; 0000 021B //                  else if(sec==7 || sec==37)
; 0000 021C //                  {
; 0000 021D //                        if(hieuung==1)
; 0000 021E //                        {
; 0000 021F //                                //hien thi duong lich
; 0000 0220 //                                ghivao_ramds(2);
; 0000 0221 //                        }
; 0000 0222 //                  }
; 0000 0223 //
; 0000 0224 //                  else if(sec==12 || sec==42)
; 0000 0225 //                  {
; 0000 0226 //                        if(hieuung==2)
; 0000 0227 //                        {
; 0000 0228 //                              //hien thi ngay am lich
; 0000 0229 //                                ghivao_ramds(3);
; 0000 022A //                        }
; 0000 022B //                  }
; 0000 022C //
; 0000 022D //                  else if(sec==16 || sec==46)
; 0000 022E //                  {
; 0000 022F //                        if(hieuung==3)
; 0000 0230 //                        {
; 0000 0231 //                                 //hien thi nam am lich
; 0000 0232 //                                ghivao_ramds(4);
; 0000 0233 //                        }
; 0000 0234 //                  }
; 0000 0235 //                  else if (sec==19 || sec==49)
; 0000 0236 //                  {
; 0000 0237 //                      if(hieuung==4)
; 0000 0238 //                      {
; 0000 0239 //                               //hien thi time
; 0000 023A //                                ghivao_ramds(0);
; 0000 023B //                      }
; 0000 023C //                      else if (hieuung>=6)
; 0000 023D //                      {
; 0000 023E //                          ghivao_ramds(1);
; 0000 023F //                      }
; 0000 0240 //                  }
; 0000 0241 //            }
; 0000 0242       ///////////////////////////
; 0000 0243       /*Chuong trinh chay mode Mix*/
; 0000 0244       if ((luu_autohand==2 || luu_autohand==0) && check_autohand==0)
	LDI  R30,LOW(2)
	CP   R30,R7
	BREQ _0x257
	LDI  R30,LOW(0)
	CP   R30,R7
	BRNE _0x259
_0x257:
	LDI  R30,LOW(0)
	CP   R30,R4
	BREQ _0x25A
_0x259:
	RJMP _0x256
_0x25A:
; 0000 0245         if(setting==0)   // <=> if (setting=0), khong cho thay doi hieu ung khi cai dat thoi gian
	TST  R8
	BREQ PC+3
	JMP _0x25B
; 0000 0246             if(dem==0)
	TST  R11
	BREQ PC+3
	JMP _0x25C
; 0000 0247             {
; 0000 0248                   if(sec==6 || sec==36)
	LDS  R26,_sec
	CPI  R26,LOW(0x6)
	BREQ _0x25E
	CPI  R26,LOW(0x24)
	BREQ _0x25E
	RJMP _0x25D
_0x25E:
; 0000 0249                   {
; 0000 024A                         if ((day==1 && month==1) || ( (ngay_amlich==30 && thang_amlich==12) || ( (ngay_amlich==1 || ngay_amlich==2 ||ngay_amlich==3 ||ngay_amlich==4) && thang_amlich==1) ))
	LDS  R26,_day
	CPI  R26,LOW(0x1)
	BRNE _0x261
	LDS  R26,_month
	CPI  R26,LOW(0x1)
	BREQ _0x263
_0x261:
	LDS  R26,_ngay_amlich
	CPI  R26,LOW(0x1E)
	BRNE _0x264
	LDS  R26,_thang_amlich
	CPI  R26,LOW(0xC)
	BREQ _0x266
_0x264:
	LDS  R26,_ngay_amlich
	CPI  R26,LOW(0x1)
	BREQ _0x267
	CPI  R26,LOW(0x2)
	BREQ _0x267
	CPI  R26,LOW(0x3)
	BREQ _0x267
	CPI  R26,LOW(0x4)
	BRNE _0x269
_0x267:
	LDS  R26,_thang_amlich
	CPI  R26,LOW(0x1)
	BREQ _0x266
_0x269:
	RJMP _0x26B
_0x266:
	RJMP _0x263
_0x26B:
	RJMP _0x260
_0x263:
; 0000 024B                         {
; 0000 024C                            if(min%5==0)
	CALL SUBOPT_0x51
	BRNE _0x26D
; 0000 024D                            {
; 0000 024E                                 //Chuc mung nam moi-An khang thinh vuong
; 0000 024F                                 ghivao_ramds(10);
	LDI  R26,LOW(10)
	RJMP _0x395
; 0000 0250                            }
; 0000 0251 
; 0000 0252                            else if(min%4==0)
_0x26D:
	CALL SUBOPT_0x52
	BRNE _0x26F
; 0000 0253                            {
; 0000 0254                                 //Ngay xuan vinh hoa phu quy ve
; 0000 0255                                 ghivao_ramds(13);
	LDI  R26,LOW(13)
	RJMP _0x395
; 0000 0256                            }
; 0000 0257                            else if(min%3==0)
_0x26F:
	LDS  R26,_min
	CLR  R27
	LDI  R30,LOW(3)
	LDI  R31,HIGH(3)
	CALL __MODW21
	SBIW R30,0
	BRNE _0x271
; 0000 0258                            {
; 0000 0259                                 //Nam moi hanh phuc binh an den
; 0000 025A                                 ghivao_ramds(12);
	LDI  R26,LOW(12)
	RJMP _0x395
; 0000 025B                            }
; 0000 025C                            else if(min%2==0)
_0x271:
	CALL SUBOPT_0x53
	BRNE _0x273
; 0000 025D                            {
; 0000 025E                                  // Tet toi tan tai-Xuan sang dac loc !
; 0000 025F                                 ghivao_ramds(11);
	LDI  R26,LOW(11)
_0x395:
	RCALL _ghivao_ramds
; 0000 0260                            }
; 0000 0261 
; 0000 0262                         }
_0x273:
; 0000 0263                         else if (min%2==0 && year==13 && month==12 && (day==27 || day==28))
	RJMP _0x274
_0x260:
	CALL SUBOPT_0x53
	BRNE _0x276
	LDS  R26,_year
	CPI  R26,LOW(0xD)
	BRNE _0x276
	LDS  R26,_month
	CPI  R26,LOW(0xC)
	BRNE _0x276
	LDS  R26,_day
	CPI  R26,LOW(0x1B)
	BREQ _0x277
	CPI  R26,LOW(0x1C)
	BRNE _0x276
_0x277:
	RJMP _0x279
_0x276:
	RJMP _0x275
_0x279:
; 0000 0264                         {
; 0000 0265                                //tram nam tinh vien man-bac dau nghia phu the
; 0000 0266                                 ghivao_ramds(9);
	LDI  R26,LOW(9)
	RCALL _ghivao_ramds
; 0000 0267                         }
; 0000 0268 
; 0000 0269                         /************************/
; 0000 026A                         /*Cac ngay le trong nam*/
; 0000 026B                         /*AM LICH*/
; 0000 026C 
; 0000 026D                         //TET NUYEN TIEU 15/1 AL
; 0000 026E                         else if (min%10==0 && ngay_amlich==15 && thang_amlich==1)
	RJMP _0x27A
_0x275:
	CALL SUBOPT_0x54
	BRNE _0x27C
	LDS  R26,_ngay_amlich
	CPI  R26,LOW(0xF)
	BRNE _0x27C
	LDS  R26,_thang_amlich
	CPI  R26,LOW(0x1)
	BREQ _0x27D
_0x27C:
	RJMP _0x27B
_0x27D:
; 0000 026F                         {
; 0000 0270                             ghivao_ramds(15);
	LDI  R26,LOW(15)
	RCALL _ghivao_ramds
; 0000 0271                         }
; 0000 0272                         //GIO TO HUNG VUONG 10/3 AL
; 0000 0273                         else if (min%10==0 && ngay_amlich==10 && thang_amlich==3)
	RJMP _0x27E
_0x27B:
	CALL SUBOPT_0x54
	BRNE _0x280
	LDS  R26,_ngay_amlich
	CPI  R26,LOW(0xA)
	BRNE _0x280
	LDS  R26,_thang_amlich
	CPI  R26,LOW(0x3)
	BREQ _0x281
_0x280:
	RJMP _0x27F
_0x281:
; 0000 0274                         {
; 0000 0275                             ghivao_ramds(16);
	LDI  R26,LOW(16)
	RCALL _ghivao_ramds
; 0000 0276                         }
; 0000 0277                         //LE PHAT DAN 15/4 AL
; 0000 0278                         else if (min%10==0 && ngay_amlich==15 && thang_amlich==4)
	RJMP _0x282
_0x27F:
	CALL SUBOPT_0x54
	BRNE _0x284
	LDS  R26,_ngay_amlich
	CPI  R26,LOW(0xF)
	BRNE _0x284
	LDS  R26,_thang_amlich
	CPI  R26,LOW(0x4)
	BREQ _0x285
_0x284:
	RJMP _0x283
_0x285:
; 0000 0279                         {
; 0000 027A                             ghivao_ramds(17);
	LDI  R26,LOW(17)
	RCALL _ghivao_ramds
; 0000 027B                         }
; 0000 027C                         //TET DOAN NGO 5/5 AL
; 0000 027D                         else if (min%10==0 && ngay_amlich==5 && thang_amlich==5)
	RJMP _0x286
_0x283:
	CALL SUBOPT_0x54
	BRNE _0x288
	LDS  R26,_ngay_amlich
	CPI  R26,LOW(0x5)
	BRNE _0x288
	LDS  R26,_thang_amlich
	CPI  R26,LOW(0x5)
	BREQ _0x289
_0x288:
	RJMP _0x287
_0x289:
; 0000 027E                         {
; 0000 027F                             ghivao_ramds(18);
	LDI  R26,LOW(18)
	RCALL _ghivao_ramds
; 0000 0280                         }
; 0000 0281                         //LE VU LAN 15/7 AL
; 0000 0282                         else if (min%10==0 && ngay_amlich==15 && thang_amlich==7)
	RJMP _0x28A
_0x287:
	CALL SUBOPT_0x54
	BRNE _0x28C
	LDS  R26,_ngay_amlich
	CPI  R26,LOW(0xF)
	BRNE _0x28C
	LDS  R26,_thang_amlich
	CPI  R26,LOW(0x7)
	BREQ _0x28D
_0x28C:
	RJMP _0x28B
_0x28D:
; 0000 0283                         {
; 0000 0284                             ghivao_ramds(19);
	LDI  R26,LOW(19)
	RCALL _ghivao_ramds
; 0000 0285                         }
; 0000 0286                         //TET TRUNG THU 15/8 AL
; 0000 0287                         else if (min%10==0 && ngay_amlich==15 && thang_amlich==8)
	RJMP _0x28E
_0x28B:
	CALL SUBOPT_0x54
	BRNE _0x290
	LDS  R26,_ngay_amlich
	CPI  R26,LOW(0xF)
	BRNE _0x290
	LDS  R26,_thang_amlich
	CPI  R26,LOW(0x8)
	BREQ _0x291
_0x290:
	RJMP _0x28F
_0x291:
; 0000 0288                         {
; 0000 0289                             ghivao_ramds(20);
	LDI  R26,LOW(20)
	RCALL _ghivao_ramds
; 0000 028A                         }
; 0000 028B 
; 0000 028C                         /**********************/
; 0000 028D                         /*NGAY LE DUONG LICH*/
; 0000 028E                         //NGAY HOC SINH SINH VIEN VIET NAM 9/1
; 0000 028F                         else if (min%5==0 && day==9 && month==1)
	RJMP _0x292
_0x28F:
	CALL SUBOPT_0x51
	BRNE _0x294
	LDS  R26,_day
	CPI  R26,LOW(0x9)
	BRNE _0x294
	LDS  R26,_month
	CPI  R26,LOW(0x1)
	BREQ _0x295
_0x294:
	RJMP _0x293
_0x295:
; 0000 0290                         {
; 0000 0291                             ghivao_ramds(21);
	LDI  R26,LOW(21)
	RCALL _ghivao_ramds
; 0000 0292                         }
; 0000 0293                         //THANH LAP DANG CONG SAN VIET NAM 3/2
; 0000 0294                         else if (min%5==0 && day==3 && month==2)
	RJMP _0x296
_0x293:
	CALL SUBOPT_0x51
	BRNE _0x298
	LDS  R26,_day
	CPI  R26,LOW(0x3)
	BRNE _0x298
	LDS  R26,_month
	CPI  R26,LOW(0x2)
	BREQ _0x299
_0x298:
	RJMP _0x297
_0x299:
; 0000 0295                         {
; 0000 0296                             ghivao_ramds(22);
	LDI  R26,LOW(22)
	RCALL _ghivao_ramds
; 0000 0297                         }
; 0000 0298                         //NGAY THAY THUOC VIET NAM 27/2
; 0000 0299                         else if (min%5==0 && day==27 && month==2)
	RJMP _0x29A
_0x297:
	CALL SUBOPT_0x51
	BRNE _0x29C
	LDS  R26,_day
	CPI  R26,LOW(0x1B)
	BRNE _0x29C
	LDS  R26,_month
	CPI  R26,LOW(0x2)
	BREQ _0x29D
_0x29C:
	RJMP _0x29B
_0x29D:
; 0000 029A                         {
; 0000 029B                             ghivao_ramds(23);
	LDI  R26,LOW(23)
	RCALL _ghivao_ramds
; 0000 029C                         }
; 0000 029D                         //NGAY LE TINH YEU 14/2
; 0000 029E                         else if (day==14 && month==2)
	RJMP _0x29E
_0x29B:
	LDS  R26,_day
	CPI  R26,LOW(0xE)
	BRNE _0x2A0
	LDS  R26,_month
	CPI  R26,LOW(0x2)
	BREQ _0x2A1
_0x2A0:
	RJMP _0x29F
_0x2A1:
; 0000 029F                         {
; 0000 02A0                              if(min%5==0)
	CALL SUBOPT_0x51
	BRNE _0x2A2
; 0000 02A1                              {   ghivao_ramds(24);}
	LDI  R26,LOW(24)
	RJMP _0x396
; 0000 02A2                              else if (min%4==0)
_0x2A2:
	CALL SUBOPT_0x52
	BRNE _0x2A4
; 0000 02A3                              {   ghivao_ramds(25);}
	LDI  R26,LOW(25)
_0x396:
	RCALL _ghivao_ramds
; 0000 02A4                         }
_0x2A4:
; 0000 02A5                         // QUOC TE PHU NU 8/3
; 0000 02A6                         else if (min%5==0 && day==8 && month==3)
	RJMP _0x2A5
_0x29F:
	CALL SUBOPT_0x51
	BRNE _0x2A7
	LDS  R26,_day
	CPI  R26,LOW(0x8)
	BRNE _0x2A7
	LDS  R26,_month
	CPI  R26,LOW(0x3)
	BREQ _0x2A8
_0x2A7:
	RJMP _0x2A6
_0x2A8:
; 0000 02A7                         {
; 0000 02A8                             ghivao_ramds(26);
	LDI  R26,LOW(26)
	RCALL _ghivao_ramds
; 0000 02A9                         }
; 0000 02AA                         //NGAY GIAI PHONG MIEN NAM 30/4
; 0000 02AB                         else if (min%5==0 && day==30 && month==4)
	RJMP _0x2A9
_0x2A6:
	CALL SUBOPT_0x51
	BRNE _0x2AB
	LDS  R26,_day
	CPI  R26,LOW(0x1E)
	BRNE _0x2AB
	LDS  R26,_month
	CPI  R26,LOW(0x4)
	BREQ _0x2AC
_0x2AB:
	RJMP _0x2AA
_0x2AC:
; 0000 02AC                         {
; 0000 02AD                             ghivao_ramds(27);
	LDI  R26,LOW(27)
	RCALL _ghivao_ramds
; 0000 02AE                         }
; 0000 02AF                         //NGAY QUOC TE LAO DONG 1/5
; 0000 02B0                         else if (min%5==0 && day==1 && month==5)
	RJMP _0x2AD
_0x2AA:
	CALL SUBOPT_0x51
	BRNE _0x2AF
	LDS  R26,_day
	CPI  R26,LOW(0x1)
	BRNE _0x2AF
	LDS  R26,_month
	CPI  R26,LOW(0x5)
	BREQ _0x2B0
_0x2AF:
	RJMP _0x2AE
_0x2B0:
; 0000 02B1                         {
; 0000 02B2                             ghivao_ramds(28);
	LDI  R26,LOW(28)
	RCALL _ghivao_ramds
; 0000 02B3                         }
; 0000 02B4                         //NGAY CUA ME 13/5
; 0000 02B5                         else if (min%5==0 && day==13 && month==5)
	RJMP _0x2B1
_0x2AE:
	CALL SUBOPT_0x51
	BRNE _0x2B3
	LDS  R26,_day
	CPI  R26,LOW(0xD)
	BRNE _0x2B3
	LDS  R26,_month
	CPI  R26,LOW(0x5)
	BREQ _0x2B4
_0x2B3:
	RJMP _0x2B2
_0x2B4:
; 0000 02B6                         {
; 0000 02B7                             ghivao_ramds(29);
	LDI  R26,LOW(29)
	RCALL _ghivao_ramds
; 0000 02B8                         }
; 0000 02B9                         //NGAY SINH CHU TICH HO CHI MINH 19/5
; 0000 02BA                         else if (min%5==0 && day==19 && month==5)
	RJMP _0x2B5
_0x2B2:
	CALL SUBOPT_0x51
	BRNE _0x2B7
	LDS  R26,_day
	CPI  R26,LOW(0x13)
	BRNE _0x2B7
	LDS  R26,_month
	CPI  R26,LOW(0x5)
	BREQ _0x2B8
_0x2B7:
	RJMP _0x2B6
_0x2B8:
; 0000 02BB                         {
; 0000 02BC                             ghivao_ramds(30);
	LDI  R26,LOW(30)
	RCALL _ghivao_ramds
; 0000 02BD                         }
; 0000 02BE                         //NGAY QUOC TE THIEU NHI 1/6
; 0000 02BF                         else if (min%5==0 && day==1 && month==6)
	RJMP _0x2B9
_0x2B6:
	CALL SUBOPT_0x51
	BRNE _0x2BB
	LDS  R26,_day
	CPI  R26,LOW(0x1)
	BRNE _0x2BB
	LDS  R26,_month
	CPI  R26,LOW(0x6)
	BREQ _0x2BC
_0x2BB:
	RJMP _0x2BA
_0x2BC:
; 0000 02C0                         {
; 0000 02C1                             ghivao_ramds(31);
	LDI  R26,LOW(31)
	RCALL _ghivao_ramds
; 0000 02C2                         }
; 0000 02C3                         //NGAY CUA BO 17/6
; 0000 02C4                         else if (min%5==0 && day==17 && month==6)
	RJMP _0x2BD
_0x2BA:
	CALL SUBOPT_0x51
	BRNE _0x2BF
	LDS  R26,_day
	CPI  R26,LOW(0x11)
	BRNE _0x2BF
	LDS  R26,_month
	CPI  R26,LOW(0x6)
	BREQ _0x2C0
_0x2BF:
	RJMP _0x2BE
_0x2C0:
; 0000 02C5                         {
; 0000 02C6                             ghivao_ramds(32);
	LDI  R26,LOW(32)
	RCALL _ghivao_ramds
; 0000 02C7                         }
; 0000 02C8                         //NGAY GIA DINH VIET NAM 28/6
; 0000 02C9                         else if (min%5==0 && day==28 && month==6)
	RJMP _0x2C1
_0x2BE:
	CALL SUBOPT_0x51
	BRNE _0x2C3
	LDS  R26,_day
	CPI  R26,LOW(0x1C)
	BRNE _0x2C3
	LDS  R26,_month
	CPI  R26,LOW(0x6)
	BREQ _0x2C4
_0x2C3:
	RJMP _0x2C2
_0x2C4:
; 0000 02CA                         {
; 0000 02CB                             ghivao_ramds(33);
	LDI  R26,LOW(33)
	RCALL _ghivao_ramds
; 0000 02CC                         }
; 0000 02CD                         //NGAY THUONG BINH LIET SI 27/7
; 0000 02CE                         else if (min%5==0 && day==27 && month==7)
	RJMP _0x2C5
_0x2C2:
	CALL SUBOPT_0x51
	BRNE _0x2C7
	LDS  R26,_day
	CPI  R26,LOW(0x1B)
	BRNE _0x2C7
	LDS  R26,_month
	CPI  R26,LOW(0x7)
	BREQ _0x2C8
_0x2C7:
	RJMP _0x2C6
_0x2C8:
; 0000 02CF                         {
; 0000 02D0                             ghivao_ramds(34);
	LDI  R26,LOW(34)
	RCALL _ghivao_ramds
; 0000 02D1                         }
; 0000 02D2                         //LE QUOC KHANH 2/9
; 0000 02D3                         else if (min%5==0 && day==2 && month==9)
	RJMP _0x2C9
_0x2C6:
	CALL SUBOPT_0x51
	BRNE _0x2CB
	LDS  R26,_day
	CPI  R26,LOW(0x2)
	BRNE _0x2CB
	LDS  R26,_month
	CPI  R26,LOW(0x9)
	BREQ _0x2CC
_0x2CB:
	RJMP _0x2CA
_0x2CC:
; 0000 02D4                         {
; 0000 02D5                             ghivao_ramds(35);
	LDI  R26,LOW(35)
	RCALL _ghivao_ramds
; 0000 02D6                         }
; 0000 02D7                         //NGAY QUOC TE NGUOI CAO TUOI 1/10
; 0000 02D8                         else if (min%5==0 && day==1 && month==10)
	RJMP _0x2CD
_0x2CA:
	CALL SUBOPT_0x51
	BRNE _0x2CF
	LDS  R26,_day
	CPI  R26,LOW(0x1)
	BRNE _0x2CF
	LDS  R26,_month
	CPI  R26,LOW(0xA)
	BREQ _0x2D0
_0x2CF:
	RJMP _0x2CE
_0x2D0:
; 0000 02D9                         {
; 0000 02DA                             ghivao_ramds(36);
	LDI  R26,LOW(36)
	RCALL _ghivao_ramds
; 0000 02DB                         }
; 0000 02DC                         //NGAY NHA GIAO VIET NAM 20/11
; 0000 02DD                         else if (min%5==0 && day==20 && month==11)
	RJMP _0x2D1
_0x2CE:
	CALL SUBOPT_0x51
	BRNE _0x2D3
	LDS  R26,_day
	CPI  R26,LOW(0x14)
	BRNE _0x2D3
	LDS  R26,_month
	CPI  R26,LOW(0xB)
	BREQ _0x2D4
_0x2D3:
	RJMP _0x2D2
_0x2D4:
; 0000 02DE                         {
; 0000 02DF                             ghivao_ramds(37);
	LDI  R26,LOW(37)
	RCALL _ghivao_ramds
; 0000 02E0                         }
; 0000 02E1                         //NGAY THE GIOI PHONG CHON AIDS 1/12
; 0000 02E2                         else if (min%5==0 && day==1 && month==12)
	RJMP _0x2D5
_0x2D2:
	CALL SUBOPT_0x51
	BRNE _0x2D7
	LDS  R26,_day
	CPI  R26,LOW(0x1)
	BRNE _0x2D7
	LDS  R26,_month
	CPI  R26,LOW(0xC)
	BREQ _0x2D8
_0x2D7:
	RJMP _0x2D6
_0x2D8:
; 0000 02E3                         {
; 0000 02E4                             ghivao_ramds(38);
	LDI  R26,LOW(38)
	RCALL _ghivao_ramds
; 0000 02E5                         }
; 0000 02E6                         //NGAY QUAN DOI NHAN DAN VIET NAM 22/12
; 0000 02E7                         else if (min%5==0 && day==22 && month==12)
	RJMP _0x2D9
_0x2D6:
	CALL SUBOPT_0x51
	BRNE _0x2DB
	LDS  R26,_day
	CPI  R26,LOW(0x16)
	BRNE _0x2DB
	LDS  R26,_month
	CPI  R26,LOW(0xC)
	BREQ _0x2DC
_0x2DB:
	RJMP _0x2DA
_0x2DC:
; 0000 02E8                         {
; 0000 02E9                             ghivao_ramds(39);
	LDI  R26,LOW(39)
	RCALL _ghivao_ramds
; 0000 02EA                         }
; 0000 02EB                         //GIANG SINH 24/12
; 0000 02EC                         else if (min%5==0 && day==24 && month==12)
	RJMP _0x2DD
_0x2DA:
	CALL SUBOPT_0x51
	BRNE _0x2DF
	LDS  R26,_day
	CPI  R26,LOW(0x18)
	BRNE _0x2DF
	LDS  R26,_month
	CPI  R26,LOW(0xC)
	BREQ _0x2E0
_0x2DF:
	RJMP _0x2DE
_0x2E0:
; 0000 02ED                         {
; 0000 02EE                             ghivao_ramds(40);
	LDI  R26,LOW(40)
	RCALL _ghivao_ramds
; 0000 02EF                         }
; 0000 02F0                        /*****************************/
; 0000 02F1                         else
	RJMP _0x2E1
_0x2DE:
; 0000 02F2                         {
; 0000 02F3                             mode2=1;      //hien thi Thu
	LDI  R30,LOW(1)
	MOV  R9,R30
; 0000 02F4                         }
_0x2E1:
_0x2DD:
_0x2D9:
_0x2D5:
_0x2D1:
_0x2CD:
_0x2C9:
_0x2C5:
_0x2C1:
_0x2BD:
_0x2B9:
_0x2B5:
_0x2B1:
_0x2AD:
_0x2A9:
_0x2A5:
_0x29E:
_0x29A:
_0x296:
_0x292:
_0x28E:
_0x28A:
_0x286:
_0x282:
_0x27E:
_0x27A:
_0x274:
; 0000 02F5                   }
; 0000 02F6                   else if(sec==9 || sec==39)
	RJMP _0x2E2
_0x25D:
	LDS  R26,_sec
	CPI  R26,LOW(0x9)
	BREQ _0x2E4
	CPI  R26,LOW(0x27)
	BRNE _0x2E3
_0x2E4:
; 0000 02F7                   {
; 0000 02F8                         mode2=2;      //hien thi duong lich
	LDI  R30,LOW(2)
	MOV  R9,R30
; 0000 02F9                   }
; 0000 02FA 
; 0000 02FB                   else if(sec==12 || sec==42)
	RJMP _0x2E6
_0x2E3:
	LDS  R26,_sec
	CPI  R26,LOW(0xC)
	BREQ _0x2E8
	CPI  R26,LOW(0x2A)
	BRNE _0x2E7
_0x2E8:
; 0000 02FC                   {
; 0000 02FD                         mode2=3;      //hien thi ngay am lich
	LDI  R30,LOW(3)
	MOV  R9,R30
; 0000 02FE                   }
; 0000 02FF 
; 0000 0300                   else if(sec==15 || sec==45)
	RJMP _0x2EA
_0x2E7:
	LDS  R26,_sec
	CPI  R26,LOW(0xF)
	BREQ _0x2EC
	CPI  R26,LOW(0x2D)
	BRNE _0x2EB
_0x2EC:
; 0000 0301                   {
; 0000 0302                         mode2=4;      //hien thi nam am lich
	LDI  R30,LOW(4)
	MOV  R9,R30
; 0000 0303                   }
; 0000 0304                   else if (sec==18 || sec==48)
	RJMP _0x2EE
_0x2EB:
	LDS  R26,_sec
	CPI  R26,LOW(0x12)
	BREQ _0x2F0
	CPI  R26,LOW(0x30)
	BRNE _0x2EF
_0x2F0:
; 0000 0305                   {
; 0000 0306                         mode2=0;      //hien thi time
	CLR  R9
; 0000 0307                   }
; 0000 0308                   else if(hour==23 && min==59 && sec==59)
	RJMP _0x2F2
_0x2EF:
	LDS  R26,_hour
	CPI  R26,LOW(0x17)
	BRNE _0x2F4
	LDS  R26,_min
	CPI  R26,LOW(0x3B)
	BRNE _0x2F4
	LDS  R26,_sec
	CPI  R26,LOW(0x3B)
	BREQ _0x2F5
_0x2F4:
	RJMP _0x2F3
_0x2F5:
; 0000 0309                   {
; 0000 030A                       if (hieuung>=9 || hieuung<=40)
	LDS  R26,_hieuung
	CPI  R26,LOW(0x9)
	BRSH _0x2F7
	CPI  R26,LOW(0x29)
	BRSH _0x2F6
_0x2F7:
; 0000 030B                       {
; 0000 030C                          ghivao_ramds(6);
	LDI  R26,LOW(6)
	RCALL _ghivao_ramds
; 0000 030D                       }
; 0000 030E                   }
_0x2F6:
; 0000 030F             }
_0x2F3:
_0x2F2:
_0x2EE:
_0x2EA:
_0x2E6:
_0x2E2:
; 0000 0310     /*********************************/
; 0000 0311 
; 0000 0312       if(dem==1)
_0x25C:
_0x25B:
_0x256:
	LDI  R30,LOW(1)
	CP   R30,R11
	BRNE _0x2F9
; 0000 0313       {
; 0000 0314         check_effect=0;
	CLR  R12
; 0000 0315         effect_left();
	RCALL _effect_left
; 0000 0316         delay_ms(25);
	LDI  R26,LOW(25)
	LDI  R27,0
	CALL _delay_ms
; 0000 0317       }
; 0000 0318       else
	RJMP _0x2FA
_0x2F9:
; 0000 0319       {
; 0000 031A         if(setting==0)
	TST  R8
	BREQ PC+3
	JMP _0x2FB
; 0000 031B         {
; 0000 031C             if(check_autohand==1) // Kiem tra hien thi chon che do
	LDI  R30,LOW(1)
	CP   R30,R4
	BREQ PC+3
	JMP _0x2FC
; 0000 031D                 if (autohand==0)                        // hien thi Auto
	TST  R5
	BRNE _0x2FD
; 0000 031E                      for(k=0;k<8;k++)
	CALL SUBOPT_0x55
_0x2FF:
	CALL SUBOPT_0x45
	SBIW R26,8
	BRSH _0x300
; 0000 031F                      {
; 0000 0320                             //Hang 1
; 0000 0321                             buf_screen_1[k   ]=text_autohand[k];
	CALL SUBOPT_0x56
	SUBI R30,LOW(-_text_autohand*2)
	SBCI R31,HIGH(-_text_autohand*2)
	CALL SUBOPT_0x57
; 0000 0322                             buf_screen_1[k+16]=text_autohand[k+8];
	CALL SUBOPT_0x58
	__ADDW1FN _text_autohand,8
	CALL SUBOPT_0x57
; 0000 0323                             buf_screen_1[k+32]=text_autohand[k+16];
	CALL SUBOPT_0x59
	__ADDW1FN _text_autohand,16
	CALL SUBOPT_0x57
; 0000 0324                             buf_screen_1[k+48]=text_autohand[k+24];
	CALL SUBOPT_0x5A
	__ADDW1FN _text_autohand,24
	LPM  R30,Z
	ST   X,R30
; 0000 0325 
; 0000 0326                         //Hang 2
; 0000 0327                         if(!motcham)
	TST  R13
	BRNE _0x301
; 0000 0328                         {
; 0000 0329                             buf_screen_1[k+8]=text_muiten[k];
	CALL SUBOPT_0x5B
	CALL SUBOPT_0x5C
; 0000 032A                         }
; 0000 032B                         else
	RJMP _0x302
_0x301:
; 0000 032C                         {
; 0000 032D                             buf_screen_1[k+8]=0x00;
	CALL SUBOPT_0x5D
; 0000 032E                         }
_0x302:
; 0000 032F                             buf_screen_1[k+24]=font_sohang2[giaima(autohand)+k];
	CALL SUBOPT_0x5E
	PUSH R31
	PUSH R30
	CALL SUBOPT_0x5F
	POP  R26
	POP  R27
	CALL SUBOPT_0x60
; 0000 0330                             buf_screen_1[k+40]=0x00;
; 0000 0331                             buf_screen_1[k+56]=0x00;
; 0000 0332 
; 0000 0333                      }
	CALL SUBOPT_0x61
	RJMP _0x2FF
_0x300:
; 0000 0334                 else if (autohand==1)                      //hien thi Hand
	RJMP _0x303
_0x2FD:
	LDI  R30,LOW(1)
	CP   R30,R5
	BRNE _0x304
; 0000 0335                      for(k=0;k<8;k++)
	CALL SUBOPT_0x55
_0x306:
	CALL SUBOPT_0x45
	SBIW R26,8
	BRSH _0x307
; 0000 0336                      {
; 0000 0337                         buf_screen_1[k]=text_autohand[k+32];
	CALL SUBOPT_0x56
	__ADDW1FN _text_autohand,32
	CALL SUBOPT_0x57
; 0000 0338                         buf_screen_1[k+16]=text_autohand[k+40];
	CALL SUBOPT_0x58
	__ADDW1FN _text_autohand,40
	CALL SUBOPT_0x57
; 0000 0339                         buf_screen_1[k+32]=text_autohand[k+48];
	CALL SUBOPT_0x59
	__ADDW1FN _text_autohand,48
	CALL SUBOPT_0x57
; 0000 033A                         buf_screen_1[k+48]=text_autohand[k+56];
	CALL SUBOPT_0x5A
	__ADDW1FN _text_autohand,56
	LPM  R30,Z
	ST   X,R30
; 0000 033B                         //Hang 2
; 0000 033C                         if(!motcham)
	TST  R13
	BRNE _0x308
; 0000 033D                         {
; 0000 033E                             buf_screen_1[k+8]=text_muiten[k];
	CALL SUBOPT_0x62
; 0000 033F                         }
; 0000 0340                         else
	RJMP _0x309
_0x308:
; 0000 0341                         {
; 0000 0342                             buf_screen_1[k+8]=0x00;
	CALL SUBOPT_0x5D
; 0000 0343                         }
_0x309:
; 0000 0344                             buf_screen_1[k+24]=font_sohang2[giaima(autohand)+k];
	CALL SUBOPT_0x5E
	PUSH R31
	PUSH R30
	CALL SUBOPT_0x5F
	POP  R26
	POP  R27
	CALL SUBOPT_0x60
; 0000 0345                             buf_screen_1[k+40]=0x00;
; 0000 0346                             buf_screen_1[k+56]=0x00;
; 0000 0347                      }
	CALL SUBOPT_0x61
	RJMP _0x306
_0x307:
; 0000 0348 
; 0000 0349                 else                                     //hien thi Mix
	RJMP _0x30A
_0x304:
; 0000 034A                      for(k=0;k<8;k++)
	CALL SUBOPT_0x55
_0x30C:
	CALL SUBOPT_0x45
	SBIW R26,8
	BRSH _0x30D
; 0000 034B                      {
; 0000 034C                         buf_screen_1[k]=text_autohand[k+64];
	CALL SUBOPT_0x56
	__ADDW1FN _text_autohand,64
	CALL SUBOPT_0x57
; 0000 034D                         buf_screen_1[k+16]=text_autohand[k+72];
	CALL SUBOPT_0x58
	__ADDW1FN _text_autohand,72
	CALL SUBOPT_0x57
; 0000 034E                         buf_screen_1[k+32]=text_autohand[k+80];
	CALL SUBOPT_0x59
	__ADDW1FN _text_autohand,80
	CALL SUBOPT_0x57
; 0000 034F                         buf_screen_1[k+48]=0x00;
	CALL SUBOPT_0x63
; 0000 0350 
; 0000 0351                         //Hang 2
; 0000 0352                         if(!motcham)
	TST  R13
	BRNE _0x30E
; 0000 0353                         {
; 0000 0354                             buf_screen_1[k+8]=text_muiten[k];
	CALL SUBOPT_0x62
; 0000 0355                         }
; 0000 0356                         else
	RJMP _0x30F
_0x30E:
; 0000 0357                         {
; 0000 0358                             buf_screen_1[k+8]=0x00;
	CALL SUBOPT_0x5D
; 0000 0359                         }
_0x30F:
; 0000 035A                             buf_screen_1[k+24]=font_sohang2[giaima(autohand)+k];
	CALL SUBOPT_0x5E
	PUSH R31
	PUSH R30
	CALL SUBOPT_0x5F
	POP  R26
	POP  R27
	CALL SUBOPT_0x60
; 0000 035B                             buf_screen_1[k+40]=0x00;
; 0000 035C                             buf_screen_1[k+56]=0x00;
; 0000 035D                      }
	CALL SUBOPT_0x61
	RJMP _0x30C
_0x30D:
_0x30A:
_0x303:
; 0000 035E 
; 0000 035F            else
	RJMP _0x310
_0x2FC:
; 0000 0360            {
; 0000 0361              if(mode1==0 || mode2==0) // HIEN THI GIO:PHUT, GIAY
	LDI  R30,LOW(0)
	CP   R30,R6
	BREQ _0x312
	CP   R30,R9
	BREQ _0x312
	RJMP _0x311
_0x312:
; 0000 0362                 for(k=0;k<8;k++)
	CALL SUBOPT_0x55
_0x315:
	CALL SUBOPT_0x45
	SBIW R26,8
	BRLO PC+3
	JMP _0x316
; 0000 0363                 {
; 0000 0364                     buf_screen_1[k]=font_sohang1[ch_hour+k];
	CALL SUBOPT_0x64
	MOVW R0,R30
	LDS  R30,_ch_hour
	CALL SUBOPT_0x65
	SUBI R30,LOW(-_font_sohang1*2)
	SBCI R31,HIGH(-_font_sohang1*2)
	LPM  R30,Z
	MOVW R26,R0
	ST   X,R30
; 0000 0365                     buf_screen_1[k+8]=0x00;
	CALL SUBOPT_0x5D
; 0000 0366 
; 0000 0367                     buf_screen_1[k+16]=font_sohang1_tr[dv_hour+k];
	CALL SUBOPT_0x66
	MOVW R0,R30
	LDS  R30,_dv_hour
	CALL SUBOPT_0x65
	SUBI R30,LOW(-_font_sohang1_tr*2)
	SBCI R31,HIGH(-_font_sohang1_tr*2)
	LPM  R30,Z
	MOVW R26,R0
	ST   X,R30
; 0000 0368                     buf_screen_1[k+24]=font_sohang2[ch_sec+k];
	CALL SUBOPT_0x5E
	MOVW R0,R30
	LDS  R30,_ch_sec
	CALL SUBOPT_0x65
	CALL SUBOPT_0x67
; 0000 0369 
; 0000 036A                     buf_screen_1[k+32]=font_sohang1_ch[ch_min+k];
	__ADDW1MN _buf_screen_1,32
	MOVW R0,R30
	LDS  R30,_ch_min
	CALL SUBOPT_0x65
	SUBI R30,LOW(-_font_sohang1_ch*2)
	SBCI R31,HIGH(-_font_sohang1_ch*2)
	LPM  R30,Z
	MOVW R26,R0
	CALL SUBOPT_0x68
; 0000 036B                     buf_screen_1[k+40]=font_sohang2[dv_sec+k];
	MOVW R0,R30
	LDS  R30,_dv_sec
	CALL SUBOPT_0x65
	CALL SUBOPT_0x67
; 0000 036C 
; 0000 036D                     buf_screen_1[k+48]=font_sohang1[dv_min+k];
	__ADDW1MN _buf_screen_1,48
	MOVW R0,R30
	LDS  R30,_dv_min
	CALL SUBOPT_0x65
	SUBI R30,LOW(-_font_sohang1*2)
	SBCI R31,HIGH(-_font_sohang1*2)
	LPM  R30,Z
	MOVW R26,R0
	CALL SUBOPT_0x69
; 0000 036E                     buf_screen_1[k+56]=0x00;
	LDI  R26,LOW(0)
	STD  Z+0,R26
; 0000 036F 
; 0000 0370                     //2 dau 2 cham
; 0000 0371                     if(!motcham)
	TST  R13
	BRNE _0x317
; 0000 0372                     {
; 0000 0373                       if((k+16)==17)  buf_screen_1[17]+=1;
	CALL SUBOPT_0x5B
	ADIW R30,16
	CPI  R30,LOW(0x11)
	LDI  R26,HIGH(0x11)
	CPC  R31,R26
	BRNE _0x318
	__GETB1MN _buf_screen_1,17
	SUBI R30,-LOW(1)
	__PUTB1MN _buf_screen_1,17
; 0000 0374                       if((k+16)==18)  buf_screen_1[18]+=1;
_0x318:
	CALL SUBOPT_0x5B
	ADIW R30,16
	CPI  R30,LOW(0x12)
	LDI  R26,HIGH(0x12)
	CPC  R31,R26
	BRNE _0x319
	__GETB1MN _buf_screen_1,18
	SUBI R30,-LOW(1)
	__PUTB1MN _buf_screen_1,18
; 0000 0375                       if((k+16)==21)  buf_screen_1[21]+=1;
_0x319:
	CALL SUBOPT_0x5B
	ADIW R30,16
	CPI  R30,LOW(0x15)
	LDI  R26,HIGH(0x15)
	CPC  R31,R26
	BRNE _0x31A
	__GETB1MN _buf_screen_1,21
	SUBI R30,-LOW(1)
	__PUTB1MN _buf_screen_1,21
; 0000 0376                       if((k+16)==22)  buf_screen_1[22]+=1;
_0x31A:
	CALL SUBOPT_0x5B
	ADIW R30,16
	CPI  R30,LOW(0x16)
	LDI  R26,HIGH(0x16)
	CPC  R31,R26
	BRNE _0x31B
	__GETB1MN _buf_screen_1,22
	SUBI R30,-LOW(1)
	__PUTB1MN _buf_screen_1,22
; 0000 0377                     }
_0x31B:
; 0000 0378                 }
_0x317:
	CALL SUBOPT_0x61
	RJMP _0x315
_0x316:
; 0000 0379 
; 0000 037A              else if(mode1==1 || mode2==1)  // HIEN THI THU
	RJMP _0x31C
_0x311:
	LDI  R30,LOW(1)
	CP   R30,R6
	BREQ _0x31E
	CP   R30,R9
	BREQ _0x31E
	RJMP _0x31D
_0x31E:
; 0000 037B                 for(k=0;k<8;k++)
	CALL SUBOPT_0x55
_0x321:
	CALL SUBOPT_0x45
	SBIW R26,8
	BRLO PC+3
	JMP _0x322
; 0000 037C                 {
; 0000 037D                      if (week == 1)
	LDS  R26,_week
	CPI  R26,LOW(0x1)
	BRNE _0x323
; 0000 037E                      {
; 0000 037F                         buf_screen_1[k]=font_chunhat[k];
	CALL SUBOPT_0x56
	SUBI R30,LOW(-_font_chunhat*2)
	SBCI R31,HIGH(-_font_chunhat*2)
	CALL SUBOPT_0x57
; 0000 0380                         buf_screen_1[k+8]=font_chunhat[k+24];
	__ADDW1MN _buf_screen_1,8
	MOVW R26,R30
	CALL SUBOPT_0x5B
	__ADDW1FN _font_chunhat,24
	CALL SUBOPT_0x57
; 0000 0381 
; 0000 0382                         buf_screen_1[k+16]=font_chunhat[k+8];
	CALL SUBOPT_0x58
	__ADDW1FN _font_chunhat,8
	CALL SUBOPT_0x57
; 0000 0383                         buf_screen_1[k+24]=font_chunhat[k+32];
	__ADDW1MN _buf_screen_1,24
	MOVW R26,R30
	CALL SUBOPT_0x5B
	__ADDW1FN _font_chunhat,32
	CALL SUBOPT_0x57
; 0000 0384 
; 0000 0385                         buf_screen_1[k+32]=font_chunhat[k+16];
	CALL SUBOPT_0x59
	__ADDW1FN _font_chunhat,16
	CALL SUBOPT_0x57
; 0000 0386                         buf_screen_1[k+40]=font_chunhat[k+40];
	__ADDW1MN _buf_screen_1,40
	MOVW R26,R30
	CALL SUBOPT_0x5B
	__ADDW1FN _font_chunhat,40
	CALL SUBOPT_0x57
; 0000 0387 
; 0000 0388                         buf_screen_1[k+48]=0x00;
	CALL SUBOPT_0x63
; 0000 0389                         buf_screen_1[k+56]=font_chunhat[k+48];
	CALL SUBOPT_0x6A
	MOVW R26,R30
	CALL SUBOPT_0x5B
	__ADDW1FN _font_chunhat,48
	LPM  R30,Z
	RJMP _0x397
; 0000 038A                      }
; 0000 038B                      else
_0x323:
; 0000 038C                      {
; 0000 038D                         buf_screen_1[k]=text_week[k];  // buf_screen_1[k], PHAN TU THU K CUA MANG
	CALL SUBOPT_0x56
	SUBI R30,LOW(-_text_week*2)
	SBCI R31,HIGH(-_text_week*2)
	CALL SUBOPT_0x57
; 0000 038E                         buf_screen_1[k+8]=0x00;
	__ADDW1MN _buf_screen_1,8
	LDI  R26,LOW(0)
	STD  Z+0,R26
; 0000 038F 
; 0000 0390                         buf_screen_1[k+16]=text_week[k+8];
	CALL SUBOPT_0x6B
	__ADDW1FN _text_week,8
	CALL SUBOPT_0x57
; 0000 0391                         buf_screen_1[k+24]=font_weekled2[giaima(week)+k];
	__ADDW1MN _buf_screen_1,24
	PUSH R31
	PUSH R30
	CALL SUBOPT_0x6C
	SUBI R30,LOW(-_font_weekled2*2)
	SBCI R31,HIGH(-_font_weekled2*2)
	LPM  R30,Z
	POP  R26
	POP  R27
	CALL SUBOPT_0x6D
; 0000 0392 
; 0000 0393                         buf_screen_1[k+32]=text_week[k+16];
	__ADDW1FN _text_week,16
	CALL SUBOPT_0x57
; 0000 0394                         buf_screen_1[k+40]=font_weekled3[giaima(week)+k];
	__ADDW1MN _buf_screen_1,40
	PUSH R31
	PUSH R30
	CALL SUBOPT_0x6C
	SUBI R30,LOW(-_font_weekled3*2)
	SBCI R31,HIGH(-_font_weekled3*2)
	LPM  R30,Z
	POP  R26
	POP  R27
	CALL SUBOPT_0x6E
; 0000 0395 
; 0000 0396                         buf_screen_1[k+48]=text_week[k+24];
	__ADDW1FN _text_week,24
	CALL SUBOPT_0x57
; 0000 0397                         buf_screen_1[k+56]=font_weekled4[giaima(week)+k];
	__ADDW1MN _buf_screen_1,56
	PUSH R31
	PUSH R30
	CALL SUBOPT_0x6C
	SUBI R30,LOW(-_font_weekled4*2)
	SBCI R31,HIGH(-_font_weekled4*2)
	LPM  R30,Z
	POP  R26
	POP  R27
_0x397:
	ST   X,R30
; 0000 0398                      }
; 0000 0399                 }
	CALL SUBOPT_0x61
	RJMP _0x321
_0x322:
; 0000 039A 
; 0000 039B              else if(mode1==2 || mode2==2)  // HIEN THI NGAY-THANG-NAM DUONG LICH
	RJMP _0x325
_0x31D:
	LDI  R30,LOW(2)
	CP   R30,R6
	BREQ _0x327
	CP   R30,R9
	BREQ _0x327
	RJMP _0x326
_0x327:
; 0000 039C                  for(k=0;k<8;k++)
	CALL SUBOPT_0x55
_0x32A:
	CALL SUBOPT_0x45
	SBIW R26,8
	BRLO PC+3
	JMP _0x32B
; 0000 039D                  {
; 0000 039E                     buf_screen_1[k]=font_sohang1[giaima(day/10)+k];
	CALL SUBOPT_0x64
	PUSH R31
	PUSH R30
	CALL SUBOPT_0x6F
	SUBI R30,LOW(-_font_sohang1*2)
	SBCI R31,HIGH(-_font_sohang1*2)
	LPM  R30,Z
	POP  R26
	POP  R27
	ST   X,R30
; 0000 039F                     buf_screen_1[k+8]=font_sohang2[giaima(2)+k];
	CALL SUBOPT_0x5B
	__ADDW1MN _buf_screen_1,8
	PUSH R31
	PUSH R30
	LDI  R26,LOW(2)
	CALL SUBOPT_0x70
	SUBI R30,LOW(-_font_sohang2*2)
	SBCI R31,HIGH(-_font_sohang2*2)
	LPM  R30,Z
	POP  R26
	POP  R27
	ST   X,R30
; 0000 03A0 
; 0000 03A1 //                    buf_screen_1[k+16]=font_sohang1[giaima(day%10)+k];
; 0000 03A2                     buf_screen_1[k+16]=font_sohang1_tr[giaima(day%10)+k];
	CALL SUBOPT_0x66
	PUSH R31
	PUSH R30
	CALL SUBOPT_0x71
	SUBI R30,LOW(-_font_sohang1_tr*2)
	SBCI R31,HIGH(-_font_sohang1_tr*2)
	LPM  R30,Z
	POP  R26
	POP  R27
	ST   X,R30
; 0000 03A3                     buf_screen_1[k+24]=font_sohang2[giaima(0)+k];//cong them 80 sau k cu?i cng neu nhu dat chung voi mang hang1
	CALL SUBOPT_0x5E
	PUSH R31
	PUSH R30
	LDI  R26,LOW(0)
	CALL SUBOPT_0x70
	SUBI R30,LOW(-_font_sohang2*2)
	SBCI R31,HIGH(-_font_sohang2*2)
	LPM  R30,Z
	POP  R26
	POP  R27
	ST   X,R30
; 0000 03A4 
; 0000 03A5 //                    buf_screen_1[k+32]=font_sohang1[giaima(month/10)+k];
; 0000 03A6                     buf_screen_1[k+32]=font_sohang1_ch[giaima(month/10)+k];
	CALL SUBOPT_0x5B
	__ADDW1MN _buf_screen_1,32
	PUSH R31
	PUSH R30
	CALL SUBOPT_0x72
	SUBI R30,LOW(-_font_sohang1_ch*2)
	SBCI R31,HIGH(-_font_sohang1_ch*2)
	LPM  R30,Z
	POP  R26
	POP  R27
	CALL SUBOPT_0x68
; 0000 03A7                     buf_screen_1[k+40]=font_sohang2[giaima(year/10)+k];
	PUSH R31
	PUSH R30
	CALL SUBOPT_0x73
	SUBI R30,LOW(-_font_sohang2*2)
	SBCI R31,HIGH(-_font_sohang2*2)
	LPM  R30,Z
	POP  R26
	POP  R27
	ST   X,R30
; 0000 03A8 
; 0000 03A9                     buf_screen_1[k+48]=font_sohang1[giaima(month%10)+k];
	CALL SUBOPT_0x5B
	__ADDW1MN _buf_screen_1,48
	PUSH R31
	PUSH R30
	CALL SUBOPT_0x74
	SUBI R30,LOW(-_font_sohang1*2)
	SBCI R31,HIGH(-_font_sohang1*2)
	LPM  R30,Z
	POP  R26
	POP  R27
	CALL SUBOPT_0x69
; 0000 03AA                     buf_screen_1[k+56]=font_sohang2[giaima(year%10)+k];
	PUSH R31
	PUSH R30
	CALL SUBOPT_0x75
	SUBI R30,LOW(-_font_sohang2*2)
	SBCI R31,HIGH(-_font_sohang2*2)
	LPM  R30,Z
	POP  R26
	POP  R27
	ST   X,R30
; 0000 03AB 
; 0000 03AC                     //dau gach
; 0000 03AD                     if((k+16)==19)buf_screen_1[19]+=0x03;
	CALL SUBOPT_0x5B
	ADIW R30,16
	CPI  R30,LOW(0x13)
	LDI  R26,HIGH(0x13)
	CPC  R31,R26
	BRNE _0x32C
	__GETB1MN _buf_screen_1,19
	SUBI R30,-LOW(3)
	__PUTB1MN _buf_screen_1,19
; 0000 03AE                     if((k+32)==35)buf_screen_1[35]+=0x80;
_0x32C:
	CALL SUBOPT_0x5B
	ADIW R30,32
	CPI  R30,LOW(0x23)
	LDI  R26,HIGH(0x23)
	CPC  R31,R26
	BRNE _0x32D
	__GETB1MN _buf_screen_1,35
	SUBI R30,-LOW(128)
	__PUTB1MN _buf_screen_1,35
; 0000 03AF                  }
_0x32D:
	CALL SUBOPT_0x61
	RJMP _0x32A
_0x32B:
; 0000 03B0 
; 0000 03B1              else if(mode1==3 || mode2==3)  // HIEN THI NGAY-THANG AM LICH
	RJMP _0x32E
_0x326:
	LDI  R30,LOW(3)
	CP   R30,R6
	BREQ _0x330
	CP   R30,R9
	BREQ _0x330
	RJMP _0x32F
_0x330:
; 0000 03B2                  for(k=0;k<8;k++)
	CALL SUBOPT_0x55
_0x333:
	CALL SUBOPT_0x45
	SBIW R26,8
	BRLO PC+3
	JMP _0x334
; 0000 03B3                  {
; 0000 03B4                     buf_screen_1[k]=font_sohang1[giaima(ngay_amlich/10)+k];
	CALL SUBOPT_0x64
	PUSH R31
	PUSH R30
	LDS  R26,_ngay_amlich
	CALL SUBOPT_0x76
	SUBI R30,LOW(-_font_sohang1*2)
	SBCI R31,HIGH(-_font_sohang1*2)
	LPM  R30,Z
	POP  R26
	POP  R27
	ST   X,R30
; 0000 03B5                     buf_screen_1[k+8]=0x00;
	CALL SUBOPT_0x5D
; 0000 03B6 
; 0000 03B7                     buf_screen_1[k+16]=font_sohang1_tr[giaima(ngay_amlich%10)+k];
	CALL SUBOPT_0x66
	PUSH R31
	PUSH R30
	LDS  R26,_ngay_amlich
	CALL SUBOPT_0x77
	SUBI R30,LOW(-_font_sohang1_tr*2)
	SBCI R31,HIGH(-_font_sohang1_tr*2)
	LPM  R30,Z
	POP  R26
	POP  R27
	ST   X,R30
; 0000 03B8                     buf_screen_1[k+24]=text_dauxet[k];//cong them 80 sau k cu?i cng neu nhu dat chung voi mang hang1
	CALL SUBOPT_0x5E
	MOVW R26,R30
	CALL SUBOPT_0x5B
	SUBI R30,LOW(-_text_dauxet*2)
	SBCI R31,HIGH(-_text_dauxet*2)
	CALL SUBOPT_0x57
; 0000 03B9 
; 0000 03BA                     buf_screen_1[k+32]= text_dauxet[k+8];
	CALL SUBOPT_0x59
	__ADDW1FN _text_dauxet,8
	CALL SUBOPT_0x57
; 0000 03BB                     buf_screen_1[k+40]=font_sohang2_ch[giaima(thang_amlich/10)+k];
	__ADDW1MN _buf_screen_1,40
	PUSH R31
	PUSH R30
	LDS  R26,_thang_amlich
	CALL SUBOPT_0x76
	SUBI R30,LOW(-_font_sohang2_ch*2)
	SBCI R31,HIGH(-_font_sohang2_ch*2)
	LPM  R30,Z
	POP  R26
	POP  R27
	CALL SUBOPT_0x6E
; 0000 03BC 
; 0000 03BD                     buf_screen_1[k+48]= text_dauxet[k+16];
	__ADDW1FN _text_dauxet,16
	CALL SUBOPT_0x57
; 0000 03BE                     buf_screen_1[k+56]=font_sohang2[giaima(thang_amlich%10)+k];
	__ADDW1MN _buf_screen_1,56
	PUSH R31
	PUSH R30
	LDS  R26,_thang_amlich
	CALL SUBOPT_0x77
	SUBI R30,LOW(-_font_sohang2*2)
	SBCI R31,HIGH(-_font_sohang2*2)
	LPM  R30,Z
	POP  R26
	POP  R27
	ST   X,R30
; 0000 03BF                  }
	CALL SUBOPT_0x61
	RJMP _0x333
_0x334:
; 0000 03C0 
; 0000 03C1              else if(mode1==4 || mode2==4)  // HIEN THI NAM AM LICH CAN-CHI
	RJMP _0x335
_0x32F:
	LDI  R30,LOW(4)
	CP   R30,R6
	BREQ _0x337
	CP   R30,R9
	BREQ _0x337
	RJMP _0x336
_0x337:
; 0000 03C2                  for(k=0;k<8;k++)
	CALL SUBOPT_0x55
_0x33A:
	CALL SUBOPT_0x45
	SBIW R26,8
	BRLO PC+3
	JMP _0x33B
; 0000 03C3                  {
; 0000 03C4                     buf_screen_1[k]=text_can1[giaima(nam_amlich%10)+k];  // buf_screen_1[k], PHAN TU THU K CUA MANG
	CALL SUBOPT_0x64
	PUSH R31
	PUSH R30
	CALL SUBOPT_0x78
	SUBI R30,LOW(-_text_can1*2)
	SBCI R31,HIGH(-_text_can1*2)
	LPM  R30,Z
	POP  R26
	POP  R27
	ST   X,R30
; 0000 03C5                     buf_screen_1[k+8]=text_chi1[giaima((allnam_amlich-4)%12)+k];
	CALL SUBOPT_0x5B
	__ADDW1MN _buf_screen_1,8
	PUSH R31
	PUSH R30
	CALL SUBOPT_0x79
	SUBI R30,LOW(-_text_chi1*2)
	SBCI R31,HIGH(-_text_chi1*2)
	LPM  R30,Z
	POP  R26
	POP  R27
	ST   X,R30
; 0000 03C6 
; 0000 03C7                     buf_screen_1[k+16]=text_can2[giaima(nam_amlich%10)+k];
	CALL SUBOPT_0x66
	PUSH R31
	PUSH R30
	CALL SUBOPT_0x78
	SUBI R30,LOW(-_text_can2*2)
	SBCI R31,HIGH(-_text_can2*2)
	LPM  R30,Z
	POP  R26
	POP  R27
	ST   X,R30
; 0000 03C8                     buf_screen_1[k+24]=text_chi2[giaima((allnam_amlich-4)%12)+k];
	CALL SUBOPT_0x5E
	PUSH R31
	PUSH R30
	CALL SUBOPT_0x79
	SUBI R30,LOW(-_text_chi2*2)
	SBCI R31,HIGH(-_text_chi2*2)
	LPM  R30,Z
	POP  R26
	POP  R27
	ST   X,R30
; 0000 03C9 
; 0000 03CA                     buf_screen_1[k+32]=text_can3[giaima(nam_amlich%10)+k];
	CALL SUBOPT_0x5B
	__ADDW1MN _buf_screen_1,32
	PUSH R31
	PUSH R30
	CALL SUBOPT_0x78
	SUBI R30,LOW(-_text_can3*2)
	SBCI R31,HIGH(-_text_can3*2)
	LPM  R30,Z
	POP  R26
	POP  R27
	CALL SUBOPT_0x68
; 0000 03CB                     buf_screen_1[k+40]=text_chi3[giaima((allnam_amlich-4)%12)+k];
	PUSH R31
	PUSH R30
	CALL SUBOPT_0x79
	SUBI R30,LOW(-_text_chi3*2)
	SBCI R31,HIGH(-_text_chi3*2)
	LPM  R30,Z
	POP  R26
	POP  R27
	ST   X,R30
; 0000 03CC 
; 0000 03CD                     buf_screen_1[k+48]=text_can4[giaima(nam_amlich%10)+k];
	CALL SUBOPT_0x5B
	__ADDW1MN _buf_screen_1,48
	PUSH R31
	PUSH R30
	CALL SUBOPT_0x78
	SUBI R30,LOW(-_text_can4*2)
	SBCI R31,HIGH(-_text_can4*2)
	LPM  R30,Z
	POP  R26
	POP  R27
	CALL SUBOPT_0x69
; 0000 03CE                     buf_screen_1[k+56]= text_chi4[giaima((allnam_amlich-4)%12)+k];
	PUSH R31
	PUSH R30
	CALL SUBOPT_0x79
	SUBI R30,LOW(-_text_chi4*2)
	SBCI R31,HIGH(-_text_chi4*2)
	LPM  R30,Z
	POP  R26
	POP  R27
	ST   X,R30
; 0000 03CF                  }
	CALL SUBOPT_0x61
	RJMP _0x33A
_0x33B:
; 0000 03D0            }
_0x336:
_0x335:
_0x32E:
_0x325:
_0x31C:
_0x310:
; 0000 03D1         }
; 0000 03D2   /*****************************************/
; 0000 03D3  /**************************************/
; 0000 03D4         else if(setting==1) //HIEN THI CAI DAT NAM
	RJMP _0x33C
_0x2FB:
	LDI  R30,LOW(1)
	CP   R30,R8
	BREQ PC+3
	JMP _0x33D
; 0000 03D5             for(k=0;k<8;k++)
	CALL SUBOPT_0x55
_0x33F:
	CALL SUBOPT_0x45
	SBIW R26,8
	BRSH _0x340
; 0000 03D6             {
; 0000 03D7                     buf_screen_1[k]=text_year[k];  // buf_screen_1[k], PHAN TU THU K CUA MANG
	CALL SUBOPT_0x56
	SUBI R30,LOW(-_text_year*2)
	SBCI R31,HIGH(-_text_year*2)
	LPM  R30,Z
	ST   X,R30
; 0000 03D8                 if(!motcham)
	TST  R13
	BRNE _0x341
; 0000 03D9                     buf_screen_1[k+8]=text_muiten[k];
	CALL SUBOPT_0x62
; 0000 03DA                 else
	RJMP _0x342
_0x341:
; 0000 03DB                     buf_screen_1[k+8]=0x00;
	CALL SUBOPT_0x5D
; 0000 03DC 
; 0000 03DD                     buf_screen_1[k+16]=text_year[k+8];
_0x342:
	CALL SUBOPT_0x6B
	__ADDW1FN _text_year,8
	CALL SUBOPT_0x57
; 0000 03DE                     buf_screen_1[k+24]=font_sohang2[giaima(year/10)+k];
	__ADDW1MN _buf_screen_1,24
	PUSH R31
	PUSH R30
	CALL SUBOPT_0x73
	SUBI R30,LOW(-_font_sohang2*2)
	SBCI R31,HIGH(-_font_sohang2*2)
	LPM  R30,Z
	POP  R26
	POP  R27
	CALL SUBOPT_0x6D
; 0000 03DF 
; 0000 03E0                     buf_screen_1[k+32]=text_year[k+16];
	__ADDW1FN _text_year,16
	CALL SUBOPT_0x57
; 0000 03E1                     buf_screen_1[k+40]=font_sohang2[giaima(year%10)+k];
	__ADDW1MN _buf_screen_1,40
	PUSH R31
	PUSH R30
	CALL SUBOPT_0x75
	SUBI R30,LOW(-_font_sohang2*2)
	SBCI R31,HIGH(-_font_sohang2*2)
	LPM  R30,Z
	POP  R26
	POP  R27
	CALL SUBOPT_0x6E
; 0000 03E2 
; 0000 03E3                     buf_screen_1[k+48]=text_year[k+24];
	__ADDW1FN _text_year,24
	CALL SUBOPT_0x57
; 0000 03E4                     buf_screen_1[k+56]=0x00;
	CALL SUBOPT_0x7A
; 0000 03E5             }
	CALL SUBOPT_0x61
	RJMP _0x33F
_0x340:
; 0000 03E6 
; 0000 03E7         else if(setting==2) //HIEN THI CAI DAT THANG
	RJMP _0x343
_0x33D:
	LDI  R30,LOW(2)
	CP   R30,R8
	BREQ PC+3
	JMP _0x344
; 0000 03E8            for(k=0;k<8;k++)
	CALL SUBOPT_0x55
_0x346:
	CALL SUBOPT_0x45
	SBIW R26,8
	BRSH _0x347
; 0000 03E9            {
; 0000 03EA                     buf_screen_1[k]=text_month[k];  // buf_screen_1[k], PHAN TU THU K CUA MANG
	CALL SUBOPT_0x56
	SUBI R30,LOW(-_text_month*2)
	SBCI R31,HIGH(-_text_month*2)
	LPM  R30,Z
	ST   X,R30
; 0000 03EB                 if(!motcham)
	TST  R13
	BRNE _0x348
; 0000 03EC                     buf_screen_1[k+8]=text_muiten[k];
	CALL SUBOPT_0x62
; 0000 03ED                 else
	RJMP _0x349
_0x348:
; 0000 03EE                     buf_screen_1[k+8]=0x00;
	CALL SUBOPT_0x5D
; 0000 03EF 
; 0000 03F0                     buf_screen_1[k+16]=text_month[k+8];
_0x349:
	CALL SUBOPT_0x6B
	__ADDW1FN _text_month,8
	CALL SUBOPT_0x57
; 0000 03F1                     buf_screen_1[k+24]=font_sohang2[giaima(month/10)+k];
	__ADDW1MN _buf_screen_1,24
	PUSH R31
	PUSH R30
	CALL SUBOPT_0x72
	SUBI R30,LOW(-_font_sohang2*2)
	SBCI R31,HIGH(-_font_sohang2*2)
	LPM  R30,Z
	POP  R26
	POP  R27
	CALL SUBOPT_0x6D
; 0000 03F2 
; 0000 03F3                     buf_screen_1[k+32]=text_month[k+16];
	__ADDW1FN _text_month,16
	CALL SUBOPT_0x57
; 0000 03F4                     buf_screen_1[k+40]=font_sohang2[giaima(month%10)+k];
	__ADDW1MN _buf_screen_1,40
	PUSH R31
	PUSH R30
	CALL SUBOPT_0x74
	SUBI R30,LOW(-_font_sohang2*2)
	SBCI R31,HIGH(-_font_sohang2*2)
	LPM  R30,Z
	POP  R26
	POP  R27
	CALL SUBOPT_0x6E
; 0000 03F5 
; 0000 03F6                     buf_screen_1[k+48]=text_month[k+24];
	__ADDW1FN _text_month,24
	CALL SUBOPT_0x57
; 0000 03F7                     buf_screen_1[k+56]=0x00;
	CALL SUBOPT_0x7A
; 0000 03F8            }
	CALL SUBOPT_0x61
	RJMP _0x346
_0x347:
; 0000 03F9         else if(setting==3)  // HIEN THI CAI DAT NGAY
	RJMP _0x34A
_0x344:
	LDI  R30,LOW(3)
	CP   R30,R8
	BREQ PC+3
	JMP _0x34B
; 0000 03FA            for(k=0;k<8;k++)
	CALL SUBOPT_0x55
_0x34D:
	CALL SUBOPT_0x45
	SBIW R26,8
	BRSH _0x34E
; 0000 03FB            {
; 0000 03FC                     buf_screen_1[k]=text_day[k];  // buf_screen_1[k], PHAN TU THU K CUA MANG
	CALL SUBOPT_0x56
	SUBI R30,LOW(-_text_day*2)
	SBCI R31,HIGH(-_text_day*2)
	LPM  R30,Z
	ST   X,R30
; 0000 03FD                 if(!motcham)
	TST  R13
	BRNE _0x34F
; 0000 03FE                     buf_screen_1[k+8]=text_muiten[k];
	CALL SUBOPT_0x62
; 0000 03FF                 else
	RJMP _0x350
_0x34F:
; 0000 0400                     buf_screen_1[k+8]=0x00;
	CALL SUBOPT_0x5D
; 0000 0401 
; 0000 0402                     buf_screen_1[k+16]=text_day[k+8];
_0x350:
	CALL SUBOPT_0x6B
	__ADDW1FN _text_day,8
	CALL SUBOPT_0x57
; 0000 0403                     buf_screen_1[k+24]=font_sohang2[giaima(day/10)+k];
	__ADDW1MN _buf_screen_1,24
	PUSH R31
	PUSH R30
	CALL SUBOPT_0x6F
	SUBI R30,LOW(-_font_sohang2*2)
	SBCI R31,HIGH(-_font_sohang2*2)
	LPM  R30,Z
	POP  R26
	POP  R27
	CALL SUBOPT_0x6D
; 0000 0404 
; 0000 0405                     buf_screen_1[k+32]=text_day[k+16];
	__ADDW1FN _text_day,16
	CALL SUBOPT_0x57
; 0000 0406                     buf_screen_1[k+40]=font_sohang2[giaima(day%10)+k];
	__ADDW1MN _buf_screen_1,40
	PUSH R31
	PUSH R30
	CALL SUBOPT_0x71
	SUBI R30,LOW(-_font_sohang2*2)
	SBCI R31,HIGH(-_font_sohang2*2)
	LPM  R30,Z
	POP  R26
	POP  R27
	CALL SUBOPT_0x6E
; 0000 0407 
; 0000 0408                     buf_screen_1[k+48]=text_day[k+24];
	__ADDW1FN _text_day,24
	CALL SUBOPT_0x57
; 0000 0409                     buf_screen_1[k+56]=0x00;
	CALL SUBOPT_0x7A
; 0000 040A            }
	CALL SUBOPT_0x61
	RJMP _0x34D
_0x34E:
; 0000 040B 
; 0000 040C         else if(setting==4)  // HIEN THI CAI DAT THU
	RJMP _0x351
_0x34B:
	LDI  R30,LOW(4)
	CP   R30,R8
	BREQ PC+3
	JMP _0x352
; 0000 040D            for(k=0;k<8;k++)
	CALL SUBOPT_0x55
_0x354:
	CALL SUBOPT_0x45
	SBIW R26,8
	BRLO PC+3
	JMP _0x355
; 0000 040E            {
; 0000 040F                 buf_screen_1[k]=text_week[k];  // buf_screen_1[k], PHAN TU THU K CUA MANG
	CALL SUBOPT_0x56
	SUBI R30,LOW(-_text_week*2)
	SBCI R31,HIGH(-_text_week*2)
	LPM  R30,Z
	ST   X,R30
; 0000 0410             if(!motcham)
	TST  R13
	BRNE _0x356
; 0000 0411                 buf_screen_1[k+8]=text_muiten[k];
	CALL SUBOPT_0x62
; 0000 0412             else
	RJMP _0x357
_0x356:
; 0000 0413                 buf_screen_1[k+8]=0x00;
	CALL SUBOPT_0x5D
; 0000 0414                 buf_screen_1[k+16]=text_week[k+8];
_0x357:
	CALL SUBOPT_0x6B
	__ADDW1FN _text_week,8
	CALL SUBOPT_0x57
; 0000 0415                 buf_screen_1[k+24]=font_weekled2[giaima(week)+k];
	__ADDW1MN _buf_screen_1,24
	PUSH R31
	PUSH R30
	CALL SUBOPT_0x6C
	SUBI R30,LOW(-_font_weekled2*2)
	SBCI R31,HIGH(-_font_weekled2*2)
	LPM  R30,Z
	POP  R26
	POP  R27
	CALL SUBOPT_0x6D
; 0000 0416 
; 0000 0417                 buf_screen_1[k+32]=text_week[k+16];
	__ADDW1FN _text_week,16
	CALL SUBOPT_0x57
; 0000 0418                 buf_screen_1[k+40]=font_weekled3[giaima(week)+k];
	__ADDW1MN _buf_screen_1,40
	PUSH R31
	PUSH R30
	CALL SUBOPT_0x6C
	SUBI R30,LOW(-_font_weekled3*2)
	SBCI R31,HIGH(-_font_weekled3*2)
	LPM  R30,Z
	POP  R26
	POP  R27
	CALL SUBOPT_0x6E
; 0000 0419                 buf_screen_1[k+48]=text_week[k+24];
	__ADDW1FN _text_week,24
	CALL SUBOPT_0x57
; 0000 041A                 buf_screen_1[k+56]=font_weekled4[giaima(week)+k];
	__ADDW1MN _buf_screen_1,56
	PUSH R31
	PUSH R30
	CALL SUBOPT_0x6C
	SUBI R30,LOW(-_font_weekled4*2)
	SBCI R31,HIGH(-_font_weekled4*2)
	LPM  R30,Z
	POP  R26
	POP  R27
	ST   X,R30
; 0000 041B            }
	CALL SUBOPT_0x61
	RJMP _0x354
_0x355:
; 0000 041C 
; 0000 041D         else if(setting==5) //HIEN THI CAI DAT GIO
	RJMP _0x358
_0x352:
	LDI  R30,LOW(5)
	CP   R30,R8
	BREQ PC+3
	JMP _0x359
; 0000 041E             for(k=0;k<8;k++)
	CALL SUBOPT_0x55
_0x35B:
	CALL SUBOPT_0x45
	SBIW R26,8
	BRSH _0x35C
; 0000 041F             {
; 0000 0420                     buf_screen_1[k]=text_hour[k];  // buf_screen_1[k], PHAN TU THU K CUA MANG
	CALL SUBOPT_0x56
	SUBI R30,LOW(-_text_hour*2)
	SBCI R31,HIGH(-_text_hour*2)
	LPM  R30,Z
	ST   X,R30
; 0000 0421                 if(!motcham)
	TST  R13
	BRNE _0x35D
; 0000 0422                     buf_screen_1[k+8]=text_muiten[k];
	CALL SUBOPT_0x62
; 0000 0423                 else
	RJMP _0x35E
_0x35D:
; 0000 0424                     buf_screen_1[k+8]=0x00;
	CALL SUBOPT_0x5D
; 0000 0425 
; 0000 0426                     buf_screen_1[k+16]=text_hour[k+8];
_0x35E:
	CALL SUBOPT_0x6B
	__ADDW1FN _text_hour,8
	CALL SUBOPT_0x57
; 0000 0427                     buf_screen_1[k+24]=font_sohang2[giaima(hour/10)+k];
	__ADDW1MN _buf_screen_1,24
	PUSH R31
	PUSH R30
	LDS  R26,_hour
	CALL SUBOPT_0x76
	SUBI R30,LOW(-_font_sohang2*2)
	SBCI R31,HIGH(-_font_sohang2*2)
	LPM  R30,Z
	POP  R26
	POP  R27
	CALL SUBOPT_0x6D
; 0000 0428 
; 0000 0429                     buf_screen_1[k+32]=text_hour[k+16];
	__ADDW1FN _text_hour,16
	CALL SUBOPT_0x57
; 0000 042A                     buf_screen_1[k+40]=font_sohang2[giaima(hour%10)+k];
	__ADDW1MN _buf_screen_1,40
	PUSH R31
	PUSH R30
	LDS  R26,_hour
	CALL SUBOPT_0x77
	SUBI R30,LOW(-_font_sohang2*2)
	SBCI R31,HIGH(-_font_sohang2*2)
	LPM  R30,Z
	POP  R26
	POP  R27
	CALL SUBOPT_0x6E
; 0000 042B 
; 0000 042C                     buf_screen_1[k+48]=text_hour[k+24];
	__ADDW1FN _text_hour,24
	CALL SUBOPT_0x57
; 0000 042D                     buf_screen_1[k+56]=0x00;
	CALL SUBOPT_0x7A
; 0000 042E             }
	CALL SUBOPT_0x61
	RJMP _0x35B
_0x35C:
; 0000 042F         else if(setting==6) //HIEN THI CAI DAT PHUT
	RJMP _0x35F
_0x359:
	LDI  R30,LOW(6)
	CP   R30,R8
	BREQ PC+3
	JMP _0x360
; 0000 0430            for(k=0;k<8;k++)
	CALL SUBOPT_0x55
_0x362:
	CALL SUBOPT_0x45
	SBIW R26,8
	BRLO PC+3
	JMP _0x363
; 0000 0431            {
; 0000 0432                     buf_screen_1[k]=text_min[k];  // buf_screen_1[k], PHAN TU THU K CUA MANG
	CALL SUBOPT_0x56
	SUBI R30,LOW(-_text_min*2)
	SBCI R31,HIGH(-_text_min*2)
	LPM  R30,Z
	ST   X,R30
; 0000 0433                 if(!motcham)
	TST  R13
	BRNE _0x364
; 0000 0434                     buf_screen_1[k+8]=text_muiten[k];
	CALL SUBOPT_0x62
; 0000 0435                 else
	RJMP _0x365
_0x364:
; 0000 0436                     buf_screen_1[k+8]=0x00;
	CALL SUBOPT_0x5D
; 0000 0437 
; 0000 0438                     buf_screen_1[k+16]=text_min[k+8];
_0x365:
	CALL SUBOPT_0x6B
	__ADDW1FN _text_min,8
	CALL SUBOPT_0x57
; 0000 0439                     buf_screen_1[k+24]=font_sohang2[giaima(min/10)+k];
	__ADDW1MN _buf_screen_1,24
	PUSH R31
	PUSH R30
	LDS  R26,_min
	CALL SUBOPT_0x76
	SUBI R30,LOW(-_font_sohang2*2)
	SBCI R31,HIGH(-_font_sohang2*2)
	LPM  R30,Z
	POP  R26
	POP  R27
	CALL SUBOPT_0x6D
; 0000 043A 
; 0000 043B                     buf_screen_1[k+32]=text_min[k+16];
	__ADDW1FN _text_min,16
	CALL SUBOPT_0x57
; 0000 043C                     buf_screen_1[k+40]=font_sohang2[giaima(min%10)+k];
	__ADDW1MN _buf_screen_1,40
	PUSH R31
	PUSH R30
	LDS  R26,_min
	CALL SUBOPT_0x77
	SUBI R30,LOW(-_font_sohang2*2)
	SBCI R31,HIGH(-_font_sohang2*2)
	LPM  R30,Z
	POP  R26
	POP  R27
	ST   X,R30
; 0000 043D 
; 0000 043E                     buf_screen_1[k+48]=0x00;
	CALL SUBOPT_0x5B
	CALL SUBOPT_0x63
; 0000 043F                     buf_screen_1[k+56]=0x00;
	CALL SUBOPT_0x6A
	LDI  R26,LOW(0)
	STD  Z+0,R26
; 0000 0440 
; 0000 0441            }
	CALL SUBOPT_0x61
	RJMP _0x362
_0x363:
; 0000 0442         else if(setting==7)  // HIEN THI CAI DAT GIAY
	RJMP _0x366
_0x360:
	LDI  R30,LOW(7)
	CP   R30,R8
	BREQ PC+3
	JMP _0x367
; 0000 0443            for(k=0;k<8;k++) // 8 CON LED MA TRAN 8x8
	CALL SUBOPT_0x55
_0x369:
	CALL SUBOPT_0x45
	SBIW R26,8
	BRLO PC+3
	JMP _0x36A
; 0000 0444            {
; 0000 0445                     buf_screen_1[k]=text_sec[k];  // buf_screen_1[k], PHAN TU THU K CUA MANG
	CALL SUBOPT_0x56
	SUBI R30,LOW(-_text_sec*2)
	SBCI R31,HIGH(-_text_sec*2)
	LPM  R30,Z
	ST   X,R30
; 0000 0446                 if(!motcham)
	TST  R13
	BRNE _0x36B
; 0000 0447                     buf_screen_1[k+8]=text_muiten[k];
	CALL SUBOPT_0x62
; 0000 0448                 else
	RJMP _0x36C
_0x36B:
; 0000 0449                     buf_screen_1[k+8]=0x00;
	CALL SUBOPT_0x5D
; 0000 044A 
; 0000 044B                     buf_screen_1[k+16]=text_sec[k+8];
_0x36C:
	CALL SUBOPT_0x6B
	__ADDW1FN _text_sec,8
	CALL SUBOPT_0x57
; 0000 044C                     buf_screen_1[k+24]=font_sohang2[giaima(sec/10)+k];
	__ADDW1MN _buf_screen_1,24
	PUSH R31
	PUSH R30
	LDS  R26,_sec
	CALL SUBOPT_0x76
	SUBI R30,LOW(-_font_sohang2*2)
	SBCI R31,HIGH(-_font_sohang2*2)
	LPM  R30,Z
	POP  R26
	POP  R27
	CALL SUBOPT_0x6D
; 0000 044D 
; 0000 044E                     buf_screen_1[k+32]=text_sec[k+16];
	__ADDW1FN _text_sec,16
	CALL SUBOPT_0x57
; 0000 044F                     buf_screen_1[k+40]=font_sohang2[giaima(sec%10)+k];
	__ADDW1MN _buf_screen_1,40
	PUSH R31
	PUSH R30
	LDS  R26,_sec
	CALL SUBOPT_0x77
	SUBI R30,LOW(-_font_sohang2*2)
	SBCI R31,HIGH(-_font_sohang2*2)
	LPM  R30,Z
	POP  R26
	POP  R27
	ST   X,R30
; 0000 0450 
; 0000 0451                     buf_screen_1[k+48]=0x00;
	CALL SUBOPT_0x5B
	CALL SUBOPT_0x63
; 0000 0452                     buf_screen_1[k+56]=0x00;
	CALL SUBOPT_0x6A
	LDI  R26,LOW(0)
	STD  Z+0,R26
; 0000 0453            }
	CALL SUBOPT_0x61
	RJMP _0x369
_0x36A:
; 0000 0454       }
_0x367:
_0x366:
_0x35F:
_0x358:
_0x351:
_0x34A:
_0x343:
_0x33C:
_0x2FA:
; 0000 0455     };
	RJMP _0x253
; 0000 0456 }
_0x36D:
	RJMP _0x36D
;
;/*****************************************************/
;/*****************************************************/
;/*----------------------------------------------------------------------------*/
; // Declare your global variables here
; /********************************************/
; /**********************************************/
; void ghivao_ramds (unsigned char giatri)
; 0000 045F  {
_ghivao_ramds:
; 0000 0460     rtc_write(0x0A,giatri);
	ST   -Y,R26
;	giatri -> Y+0
	LDI  R30,LOW(10)
	ST   -Y,R30
	LDD  R26,Y+1
	RCALL _rtc_write
; 0000 0461     delay_ms(100);
	LDI  R26,LOW(100)
	LDI  R27,0
	CALL _delay_ms
; 0000 0462     WDTCR=0x08;
	LDI  R30,LOW(8)
	OUT  0x21,R30
; 0000 0463  };
	RJMP _0x2040003
; /**************************************/
;void giaima_nhayso(void)  /////Da tich hop luon phan giai ma tu 0,1,2,3,4,5,6,7,8,9 thanh 0,8,16,24,32,40,48,56,64,72.
; 0000 0466 {
_giaima_nhayso:
; 0000 0467 
; 0000 0468     if(ch_sec<((sec/10)*8))ch_sec++;
	CALL SUBOPT_0x7B
	CALL __LSLW3
	LDS  R26,_ch_sec
	LDI  R27,0
	CP   R26,R30
	CPC  R27,R31
	BRGE _0x36E
	LDS  R30,_ch_sec
	SUBI R30,-LOW(1)
	STS  _ch_sec,R30
; 0000 0469     if((sec/10)==0)ch_sec=0;
_0x36E:
	CALL SUBOPT_0x7B
	SBIW R30,0
	BRNE _0x36F
	LDI  R30,LOW(0)
	STS  _ch_sec,R30
; 0000 046A     if(dv_sec<((sec%10)*8)) dv_sec++;
_0x36F:
	CALL SUBOPT_0x7C
	CALL __LSLW3
	LDS  R26,_dv_sec
	LDI  R27,0
	CP   R26,R30
	CPC  R27,R31
	BRGE _0x370
	LDS  R30,_dv_sec
	SUBI R30,-LOW(1)
	STS  _dv_sec,R30
; 0000 046B     if((sec%10)==0)dv_sec=0;
_0x370:
	CALL SUBOPT_0x7C
	SBIW R30,0
	BRNE _0x371
	LDI  R30,LOW(0)
	STS  _dv_sec,R30
; 0000 046C 
; 0000 046D     if(ch_min<((min/10)*8))ch_min++;
_0x371:
	CALL SUBOPT_0x7D
	CALL __LSLW3
	LDS  R26,_ch_min
	LDI  R27,0
	CP   R26,R30
	CPC  R27,R31
	BRGE _0x372
	LDS  R30,_ch_min
	SUBI R30,-LOW(1)
	STS  _ch_min,R30
; 0000 046E     if((min/10)==0)ch_min=0;
_0x372:
	CALL SUBOPT_0x7D
	SBIW R30,0
	BRNE _0x373
	LDI  R30,LOW(0)
	STS  _ch_min,R30
; 0000 046F     if(dv_min<((min%10)*8))dv_min++;
_0x373:
	LDS  R26,_min
	CALL SUBOPT_0x7E
	LDS  R26,_dv_min
	LDI  R27,0
	CP   R26,R30
	CPC  R27,R31
	BRGE _0x374
	LDS  R30,_dv_min
	SUBI R30,-LOW(1)
	STS  _dv_min,R30
; 0000 0470     if((min%10)==0)dv_min=0;
_0x374:
	CALL SUBOPT_0x54
	BRNE _0x375
	LDI  R30,LOW(0)
	STS  _dv_min,R30
; 0000 0471 
; 0000 0472     if(ch_hour<((hour/10)*8))ch_hour++;
_0x375:
	CALL SUBOPT_0x7F
	CALL __LSLW3
	LDS  R26,_ch_hour
	LDI  R27,0
	CP   R26,R30
	CPC  R27,R31
	BRGE _0x376
	LDS  R30,_ch_hour
	SUBI R30,-LOW(1)
	STS  _ch_hour,R30
; 0000 0473     if((hour/10)==0)ch_hour=0;
_0x376:
	CALL SUBOPT_0x7F
	SBIW R30,0
	BRNE _0x377
	LDI  R30,LOW(0)
	STS  _ch_hour,R30
; 0000 0474     if(dv_hour<((hour%10)*8))dv_hour++;
_0x377:
	LDS  R26,_hour
	CALL SUBOPT_0x7E
	LDS  R26,_dv_hour
	LDI  R27,0
	CP   R26,R30
	CPC  R27,R31
	BRGE _0x378
	LDS  R30,_dv_hour
	SUBI R30,-LOW(1)
	STS  _dv_hour,R30
; 0000 0475     if((hour%10)==0)dv_hour=0;
_0x378:
	LDS  R26,_hour
	CLR  R27
	LDI  R30,LOW(10)
	LDI  R31,HIGH(10)
	CALL __MODW21
	SBIW R30,0
	BRNE _0x379
	LDI  R30,LOW(0)
	STS  _dv_hour,R30
; 0000 0476 }
_0x379:
	RET
;
;/************************************/
;unsigned char giaima(unsigned char so)
; 0000 047A {
_giaima:
; 0000 047B     switch(so)
	ST   -Y,R26
;	so -> Y+0
	LD   R30,Y
	LDI  R31,0
; 0000 047C     {
; 0000 047D         case 0 : return 0;
	SBIW R30,0
	BRNE _0x37D
	LDI  R30,LOW(0)
	RJMP _0x2040003
; 0000 047E         case 1 : return 8;
_0x37D:
	CPI  R30,LOW(0x1)
	LDI  R26,HIGH(0x1)
	CPC  R31,R26
	BRNE _0x37E
	LDI  R30,LOW(8)
	RJMP _0x2040003
; 0000 047F         case 2 : return 16;
_0x37E:
	CPI  R30,LOW(0x2)
	LDI  R26,HIGH(0x2)
	CPC  R31,R26
	BRNE _0x37F
	LDI  R30,LOW(16)
	RJMP _0x2040003
; 0000 0480         case 3 : return 24;
_0x37F:
	CPI  R30,LOW(0x3)
	LDI  R26,HIGH(0x3)
	CPC  R31,R26
	BRNE _0x380
	LDI  R30,LOW(24)
	RJMP _0x2040003
; 0000 0481         case 4 : return 32;
_0x380:
	CPI  R30,LOW(0x4)
	LDI  R26,HIGH(0x4)
	CPC  R31,R26
	BRNE _0x381
	LDI  R30,LOW(32)
	RJMP _0x2040003
; 0000 0482         case 5 : return 40;
_0x381:
	CPI  R30,LOW(0x5)
	LDI  R26,HIGH(0x5)
	CPC  R31,R26
	BRNE _0x382
	LDI  R30,LOW(40)
	RJMP _0x2040003
; 0000 0483         case 6 : return 48;
_0x382:
	CPI  R30,LOW(0x6)
	LDI  R26,HIGH(0x6)
	CPC  R31,R26
	BRNE _0x383
	LDI  R30,LOW(48)
	RJMP _0x2040003
; 0000 0484         case 7 : return 56;
_0x383:
	CPI  R30,LOW(0x7)
	LDI  R26,HIGH(0x7)
	CPC  R31,R26
	BRNE _0x384
	LDI  R30,LOW(56)
	RJMP _0x2040003
; 0000 0485         case 8 : return 64;
_0x384:
	CPI  R30,LOW(0x8)
	LDI  R26,HIGH(0x8)
	CPC  R31,R26
	BRNE _0x385
	LDI  R30,LOW(64)
	RJMP _0x2040003
; 0000 0486         case 9 : return 72;
_0x385:
	CPI  R30,LOW(0x9)
	LDI  R26,HIGH(0x9)
	CPC  R31,R26
	BRNE _0x386
	LDI  R30,LOW(72)
	RJMP _0x2040003
; 0000 0487         case 10 : return 80;
_0x386:
	CPI  R30,LOW(0xA)
	LDI  R26,HIGH(0xA)
	CPC  R31,R26
	BRNE _0x387
	LDI  R30,LOW(80)
	RJMP _0x2040003
; 0000 0488         case 11 : return 88;
_0x387:
	CPI  R30,LOW(0xB)
	LDI  R26,HIGH(0xB)
	CPC  R31,R26
	BRNE _0x37C
	LDI  R30,LOW(88)
; 0000 0489     }
_0x37C:
; 0000 048A }
_0x2040003:
	ADIW R28,1
	RET
;
;/***********************************************/
;///Ham tinh ngay thang nam am lich
;/*******************************************************************/
;void lunar_calculate(unsigned char day,unsigned char month,unsigned char year,unsigned char *ngay_amlich,unsigned char *thang_amlich,unsigned char *nam_amlich)
; 0000 0490 {
_lunar_calculate:
; 0000 0491    unsigned char tam_1;
; 0000 0492    unsigned char RTCLunarRTC_day,RTCLunarRTC_month,RTCLunarRTC_year;
; 0000 0493    unsigned char da,db,dayht,monthht,yearht;
; 0000 0494    unsigned char lmon;
; 0000 0495 
; 0000 0496    dayht=  day;
	ST   -Y,R27
	ST   -Y,R26
	SBIW R28,4
	CALL __SAVELOCR6
;	day -> Y+18
;	month -> Y+17
;	year -> Y+16
;	*ngay_amlich -> Y+14
;	*thang_amlich -> Y+12
;	*nam_amlich -> Y+10
;	tam_1 -> R17
;	RTCLunarRTC_day -> R16
;	RTCLunarRTC_month -> R19
;	RTCLunarRTC_year -> R18
;	da -> R21
;	db -> R20
;	dayht -> Y+9
;	monthht -> Y+8
;	yearht -> Y+7
;	lmon -> Y+6
	LDD  R30,Y+18
	STD  Y+9,R30
; 0000 0497    monthht=  month;
	LDD  R30,Y+17
	STD  Y+8,R30
; 0000 0498    yearht= year;
	LDD  R30,Y+16
	STD  Y+7,R30
; 0000 0499 
; 0000 049A     if((yearht-10)>30)//cho phep den nam 2030
	LDI  R31,0
	SBIW R30,10
	SBIW R30,31
	BRLT _0x389
; 0000 049B     {
; 0000 049C         goto thoat;
	RJMP _0x38A
; 0000 049D     }
; 0000 049E 
; 0000 049F     da = ngayALdauthangDL[yearht-13][monthht-1];
_0x389:
	CALL SUBOPT_0x80
	SUBI R30,LOW(-_ngayALdauthangDL*2)
	SBCI R31,HIGH(-_ngayALdauthangDL*2)
	CALL SUBOPT_0x81
	LPM  R21,Z
; 0000 04A0     db = ngayDLdauthangAL[yearht-13][monthht-1];
	CALL SUBOPT_0x80
	SUBI R30,LOW(-_ngayDLdauthangAL*2)
	SBCI R31,HIGH(-_ngayDLdauthangAL*2)
	CALL SUBOPT_0x81
	LPM  R20,Z
; 0000 04A1 
; 0000 04A2     if((db-dayht)<=0)
	CALL SUBOPT_0x82
	CALL __CPW02
	BRLT _0x38B
; 0000 04A3     {
; 0000 04A4         RTCLunarRTC_day = (dayht-db+1);
	CALL SUBOPT_0x83
; 0000 04A5         RTCLunarRTC_month = thangALdauthangAL[yearht-13][monthht-1];
	SUBI R30,LOW(-_thangALdauthangAL*2)
	SBCI R31,HIGH(-_thangALdauthangAL*2)
	RJMP _0x398
; 0000 04A6     }
; 0000 04A7     else
_0x38B:
; 0000 04A8     {
; 0000 04A9         if((db-dayht)>31)
	CALL SUBOPT_0x82
	SBIW R26,32
	BRLT _0x38D
; 0000 04AA         {
; 0000 04AB             RTCLunarRTC_day = (dayht-db+1);//
	CALL SUBOPT_0x83
; 0000 04AC             RTCLunarRTC_month = thangALdauthangDL[yearht-13][monthht];
	SUBI R30,LOW(-_thangALdauthangDL*2)
	SBCI R31,HIGH(-_thangALdauthangDL*2)
	MOVW R26,R30
	LDD  R30,Y+8
	LDI  R31,0
	RJMP _0x399
; 0000 04AD         }
; 0000 04AE         else
_0x38D:
; 0000 04AF         {
; 0000 04B0             RTCLunarRTC_day = (dayht+da-1);//
	MOV  R30,R21
	LDD  R26,Y+9
	ADD  R26,R30
	SUBI R26,LOW(1)
	MOV  R16,R26
; 0000 04B1             RTCLunarRTC_month = thangALdauthangDL[yearht-13][monthht-1];
	CALL SUBOPT_0x80
	SUBI R30,LOW(-_thangALdauthangDL*2)
	SBCI R31,HIGH(-_thangALdauthangDL*2)
_0x398:
	MOVW R26,R30
	LDD  R30,Y+8
	LDI  R31,0
	SBIW R30,1
_0x399:
	ADD  R30,R26
	ADC  R31,R27
	LPM  R19,Z
; 0000 04B2         }
; 0000 04B3     }
; 0000 04B4 
; 0000 04B5     lmon = RTCLunarRTC_month;
	__PUTBSR 19,6
; 0000 04B6     tam_1=monthht-lmon;
	LDD  R26,Y+6
	LDD  R30,Y+8
	SUB  R30,R26
	MOV  R17,R30
; 0000 04B7 
; 0000 04B8     if((tam_1)>100&&tam_1<255)
	CPI  R17,101
	BRLO _0x390
	CPI  R17,255
	BRLO _0x391
_0x390:
	RJMP _0x38F
_0x391:
; 0000 04B9         RTCLunarRTC_year = (yearht-1);
	LDD  R30,Y+7
	SUBI R30,LOW(1)
	MOV  R18,R30
; 0000 04BA     else
	RJMP _0x392
_0x38F:
; 0000 04BB     {
; 0000 04BC         RTCLunarRTC_year = yearht;
	LDD  R18,Y+7
; 0000 04BD     }
_0x392:
; 0000 04BE 
; 0000 04BF     *ngay_amlich =  (unsigned char) RTCLunarRTC_day;
	LDD  R26,Y+14
	LDD  R27,Y+14+1
	ST   X,R16
; 0000 04C0     *thang_amlich = (unsigned char) RTCLunarRTC_month;
	LDD  R26,Y+12
	LDD  R27,Y+12+1
	ST   X,R19
; 0000 04C1     *nam_amlich = (unsigned char) RTCLunarRTC_year;
	LDD  R26,Y+10
	LDD  R27,Y+10+1
	ST   X,R18
; 0000 04C2 
; 0000 04C3 thoat:
_0x38A:
; 0000 04C4 };
	CALL __LOADLOCR6
	ADIW R28,19
	RET
;/***********************************************************************/

	.CSEG
_rtc_read:
	ST   -Y,R26
	ST   -Y,R17
	CALL SUBOPT_0x84
	CALL SUBOPT_0x85
	LDI  R26,LOW(0)
	CALL _i2c_read
	MOV  R17,R30
	CALL _i2c_stop
	MOV  R30,R17
	LDD  R17,Y+0
	RJMP _0x2040002
_rtc_write:
	ST   -Y,R26
	CALL SUBOPT_0x84
	LD   R26,Y
	CALL _i2c_write
	CALL _i2c_stop
_0x2040002:
	ADIW R28,2
	RET
_rtc_init:
	ST   -Y,R26
	LDD  R30,Y+2
	ANDI R30,LOW(0x3)
	STD  Y+2,R30
	LDD  R30,Y+1
	CPI  R30,0
	BREQ _0x2000003
	LDD  R30,Y+2
	ORI  R30,0x10
	STD  Y+2,R30
_0x2000003:
	LD   R30,Y
	CPI  R30,0
	BREQ _0x2000004
	LDD  R30,Y+2
	ORI  R30,0x80
	STD  Y+2,R30
_0x2000004:
	CALL SUBOPT_0x86
	LDI  R26,LOW(7)
	CALL _i2c_write
	LDD  R26,Y+2
	RJMP _0x2040001
_rtc_get_time:
	ST   -Y,R27
	ST   -Y,R26
	CALL SUBOPT_0x86
	LDI  R26,LOW(0)
	CALL _i2c_write
	CALL SUBOPT_0x85
	CALL SUBOPT_0x87
	LD   R26,Y
	LDD  R27,Y+1
	ST   X,R30
	CALL SUBOPT_0x87
	CALL SUBOPT_0x88
	LDD  R26,Y+4
	LDD  R27,Y+4+1
	ST   X,R30
	CALL _i2c_stop
	ADIW R28,6
	RET
_rtc_set_time:
	ST   -Y,R26
	CALL SUBOPT_0x86
	LDI  R26,LOW(0)
	CALL SUBOPT_0x89
	LDD  R26,Y+1
	RCALL _bin2bcd
	MOV  R26,R30
	CALL SUBOPT_0x8A
_0x2040001:
	CALL _i2c_write
	CALL _i2c_stop
	ADIW R28,3
	RET
_rtc_get_date:
	ST   -Y,R27
	ST   -Y,R26
	CALL SUBOPT_0x86
	LDI  R26,LOW(3)
	CALL _i2c_write
	CALL SUBOPT_0x85
	LDI  R26,LOW(1)
	CALL _i2c_read
	LDD  R26,Y+6
	LDD  R27,Y+6+1
	ST   X,R30
	CALL SUBOPT_0x87
	LDD  R26,Y+4
	LDD  R27,Y+4+1
	ST   X,R30
	CALL SUBOPT_0x87
	CALL SUBOPT_0x88
	LD   R26,Y
	LDD  R27,Y+1
	ST   X,R30
	CALL _i2c_stop
	ADIW R28,8
	RET
_rtc_set_date:
	ST   -Y,R26
	CALL SUBOPT_0x86
	LDI  R26,LOW(3)
	CALL _i2c_write
	LDD  R26,Y+3
	CALL SUBOPT_0x8A
	CALL _i2c_write
	LDD  R26,Y+1
	RCALL _bin2bcd
	MOV  R26,R30
	CALL SUBOPT_0x89
	CALL _i2c_stop
	ADIW R28,4
	RET

	.CSEG
_bcd2bin:
	ST   -Y,R26
    ld   r30,y
    swap r30
    andi r30,0xf
    mov  r26,r30
    lsl  r26
    lsl  r26
    add  r30,r26
    lsl  r30
    ld   r26,y+
    andi r26,0xf
    add  r30,r26
    ret
_bin2bcd:
	ST   -Y,R26
    ld   r26,y+
    clr  r30
bin2bcd0:
    subi r26,10
    brmi bin2bcd1
    subi r30,-16
    rjmp bin2bcd0
bin2bcd1:
    subi r26,-10
    add  r30,r26
    ret

	.DSEG
_wb:
	.BYTE 0x2
_r:
	.BYTE 0x2
_count_byte:
	.BYTE 0x2
_count_bit:
	.BYTE 0x2
_i:
	.BYTE 0x2
_j:
	.BYTE 0x2
_k:
	.BYTE 0x2
_effect:
	.BYTE 0x2
_b_data:
	.BYTE 0x2
_row:
	.BYTE 0x2
_hour:
	.BYTE 0x1
_min:
	.BYTE 0x1
_sec:
	.BYTE 0x1
_week:
	.BYTE 0x1
_day:
	.BYTE 0x1
_month:
	.BYTE 0x1
_year:
	.BYTE 0x1
_ch_hour:
	.BYTE 0x1
_ch_min:
	.BYTE 0x1
_ch_sec:
	.BYTE 0x1
_dv_hour:
	.BYTE 0x1
_dv_min:
	.BYTE 0x1
_dv_sec:
	.BYTE 0x1
_ngay_amlich:
	.BYTE 0x1
_thang_amlich:
	.BYTE 0x1
_nam_amlich:
	.BYTE 0x1
_allnam_amlich:
	.BYTE 0x2
_hieuung:
	.BYTE 0x1
_buf_screen_0:
	.BYTE 0x40
_buf_screen_1:
	.BYTE 0x40

	.CSEG
;OPTIMIZER ADDED SUBROUTINE, CALLED 2 TIMES, CODE SIZE REDUCTION:5 WORDS
SUBOPT_0x0:
	LDS  R30,_wb
	LDS  R31,_wb+1
	LDS  R26,_i
	LDS  R27,_i+1
	CP   R26,R30
	CPC  R27,R31
	RET

;OPTIMIZER ADDED SUBROUTINE, CALLED 24 TIMES, CODE SIZE REDUCTION:43 WORDS
SUBOPT_0x1:
	LDS  R30,_r
	LDS  R31,_r+1
	RET

;OPTIMIZER ADDED SUBROUTINE, CALLED 4 TIMES, CODE SIZE REDUCTION:12 WORDS
SUBOPT_0x2:
	ADIW R30,12
	LDS  R26,_i
	LDS  R27,_i+1
	ADD  R30,R26
	ADC  R31,R27
	RET

;OPTIMIZER ADDED SUBROUTINE, CALLED 6 TIMES, CODE SIZE REDUCTION:22 WORDS
SUBOPT_0x3:
	SUBI R30,LOW(-_buf_screen_1)
	SBCI R31,HIGH(-_buf_screen_1)
	LD   R26,Z
	CALL _spi_mem
	RJMP SUBOPT_0x1

;OPTIMIZER ADDED SUBROUTINE, CALLED 4 TIMES, CODE SIZE REDUCTION:12 WORDS
SUBOPT_0x4:
	ADIW R30,8
	LDS  R26,_i
	LDS  R27,_i+1
	ADD  R30,R26
	ADC  R31,R27
	RET

;OPTIMIZER ADDED SUBROUTINE, CALLED 4 TIMES, CODE SIZE REDUCTION:12 WORDS
SUBOPT_0x5:
	ADIW R30,4
	LDS  R26,_i
	LDS  R27,_i+1
	ADD  R30,R26
	ADC  R31,R27
	RET

;OPTIMIZER ADDED SUBROUTINE, CALLED 4 TIMES, CODE SIZE REDUCTION:12 WORDS
SUBOPT_0x6:
	ADIW R30,0
	LDS  R26,_i
	LDS  R27,_i+1
	ADD  R30,R26
	ADC  R31,R27
	RET

;OPTIMIZER ADDED SUBROUTINE, CALLED 11 TIMES, CODE SIZE REDUCTION:17 WORDS
SUBOPT_0x7:
	LDS  R26,_i
	LDS  R27,_i+1
	RET

;OPTIMIZER ADDED SUBROUTINE, CALLED 3 TIMES, CODE SIZE REDUCTION:1 WORDS
SUBOPT_0x8:
	RCALL SUBOPT_0x1
	RJMP SUBOPT_0x2

;OPTIMIZER ADDED SUBROUTINE, CALLED 3 TIMES, CODE SIZE REDUCTION:7 WORDS
SUBOPT_0x9:
	__ADDW1MN _buf_screen_1,15
	LD   R26,Z
	CALL _spi_mem
	RJMP SUBOPT_0x1

;OPTIMIZER ADDED SUBROUTINE, CALLED 3 TIMES, CODE SIZE REDUCTION:7 WORDS
SUBOPT_0xA:
	__ADDW1MN _buf_screen_1,30
	LD   R26,Z
	CALL _spi_mem
	RJMP SUBOPT_0x1

;OPTIMIZER ADDED SUBROUTINE, CALLED 3 TIMES, CODE SIZE REDUCTION:7 WORDS
SUBOPT_0xB:
	__ADDW1MN _buf_screen_1,45
	LD   R26,Z
	CALL _spi_mem
	RJMP SUBOPT_0x1

;OPTIMIZER ADDED SUBROUTINE, CALLED 2 TIMES, CODE SIZE REDUCTION:2 WORDS
SUBOPT_0xC:
	LDI  R26,LOW(_i)
	LDI  R27,HIGH(_i)
	LD   R30,X+
	LD   R31,X+
	ADIW R30,1
	ST   -X,R31
	ST   -X,R30
	RET

;OPTIMIZER ADDED SUBROUTINE, CALLED 2 TIMES, CODE SIZE REDUCTION:8 WORDS
SUBOPT_0xD:
	RCALL SUBOPT_0x1
	ADIW R30,12
	LDS  R26,_wb
	LDS  R27,_wb+1
	CALL __MULW12U
	RCALL SUBOPT_0x7
	ADD  R30,R26
	ADC  R31,R27
	RET

;OPTIMIZER ADDED SUBROUTINE, CALLED 2 TIMES, CODE SIZE REDUCTION:6 WORDS
SUBOPT_0xE:
	ADIW R30,8
	LDS  R26,_wb
	LDS  R27,_wb+1
	CALL __MULW12U
	RCALL SUBOPT_0x7
	ADD  R30,R26
	ADC  R31,R27
	RET

;OPTIMIZER ADDED SUBROUTINE, CALLED 2 TIMES, CODE SIZE REDUCTION:6 WORDS
SUBOPT_0xF:
	ADIW R30,4
	LDS  R26,_wb
	LDS  R27,_wb+1
	CALL __MULW12U
	RCALL SUBOPT_0x7
	ADD  R30,R26
	ADC  R31,R27
	RET

;OPTIMIZER ADDED SUBROUTINE, CALLED 2 TIMES, CODE SIZE REDUCTION:6 WORDS
SUBOPT_0x10:
	ADIW R30,0
	LDS  R26,_wb
	LDS  R27,_wb+1
	CALL __MULW12U
	RCALL SUBOPT_0x7
	ADD  R30,R26
	ADC  R31,R27
	RET

;OPTIMIZER ADDED SUBROUTINE, CALLED 3 TIMES, CODE SIZE REDUCTION:7 WORDS
SUBOPT_0x11:
	SUBI R30,LOW(-_buf_screen_0)
	SBCI R31,HIGH(-_buf_screen_0)
	LD   R26,Z
	CALL _spi_mem
	RJMP SUBOPT_0x1

;OPTIMIZER ADDED SUBROUTINE, CALLED 28 TIMES, CODE SIZE REDUCTION:78 WORDS
SUBOPT_0x12:
	LD   R30,X+
	LD   R31,X+
	ADIW R30,1
	ST   -X,R31
	ST   -X,R30
	RET

;OPTIMIZER ADDED SUBROUTINE, CALLED 2 TIMES, CODE SIZE REDUCTION:5 WORDS
SUBOPT_0x13:
	__POINTW1FN _msg0,2
	LPM  R30,Z
	LDS  R26,_count_byte
	LDS  R27,_count_byte+1
	LDI  R31,0
	CP   R26,R30
	CPC  R27,R31
	RET

;OPTIMIZER ADDED SUBROUTINE, CALLED 37 TIMES, CODE SIZE REDUCTION:105 WORDS
SUBOPT_0x14:
	LDI  R30,LOW(0)
	STS  _b_data,R30
	STS  _b_data+1,R30
	RET

;OPTIMIZER ADDED SUBROUTINE, CALLED 37 TIMES, CODE SIZE REDUCTION:69 WORDS
SUBOPT_0x15:
	LDI  R26,0
	SBRC R3,1
	LDI  R26,1
	CPI  R26,LOW(0x0)
	RET

;OPTIMIZER ADDED SUBROUTINE, CALLED 37 TIMES, CODE SIZE REDUCTION:429 WORDS
SUBOPT_0x16:
	LPM  R30,Z
	LDI  R31,0
	LDS  R26,_row
	LDS  R27,_row+1
	CALL __MULW12U
	LDS  R26,_count_byte
	LDS  R27,_count_byte+1
	ADD  R30,R26
	ADC  R31,R27
	RET

;OPTIMIZER ADDED SUBROUTINE, CALLED 37 TIMES, CODE SIZE REDUCTION:285 WORDS
SUBOPT_0x17:
	LPM  R26,Z
	LDI  R27,0
	LDS  R30,_count_bit
	CALL __LSLW12
	STS  _b_data,R30
	STS  _b_data+1,R31
	RET

;OPTIMIZER ADDED SUBROUTINE, CALLED 2 TIMES, CODE SIZE REDUCTION:5 WORDS
SUBOPT_0x18:
	__POINTW1FN _msg1,2
	LPM  R30,Z
	LDS  R26,_count_byte
	LDS  R27,_count_byte+1
	LDI  R31,0
	CP   R26,R30
	CPC  R27,R31
	RET

;OPTIMIZER ADDED SUBROUTINE, CALLED 2 TIMES, CODE SIZE REDUCTION:5 WORDS
SUBOPT_0x19:
	__POINTW1FN _msg2,2
	LPM  R30,Z
	LDS  R26,_count_byte
	LDS  R27,_count_byte+1
	LDI  R31,0
	CP   R26,R30
	CPC  R27,R31
	RET

;OPTIMIZER ADDED SUBROUTINE, CALLED 2 TIMES, CODE SIZE REDUCTION:5 WORDS
SUBOPT_0x1A:
	__POINTW1FN _msg3,2
	LPM  R30,Z
	LDS  R26,_count_byte
	LDS  R27,_count_byte+1
	LDI  R31,0
	CP   R26,R30
	CPC  R27,R31
	RET

;OPTIMIZER ADDED SUBROUTINE, CALLED 2 TIMES, CODE SIZE REDUCTION:5 WORDS
SUBOPT_0x1B:
	__POINTW1FN _msg4,2
	LPM  R30,Z
	LDS  R26,_count_byte
	LDS  R27,_count_byte+1
	LDI  R31,0
	CP   R26,R30
	CPC  R27,R31
	RET

;OPTIMIZER ADDED SUBROUTINE, CALLED 2 TIMES, CODE SIZE REDUCTION:5 WORDS
SUBOPT_0x1C:
	__POINTW1FN _msg9,2
	LPM  R30,Z
	LDS  R26,_count_byte
	LDS  R27,_count_byte+1
	LDI  R31,0
	CP   R26,R30
	CPC  R27,R31
	RET

;OPTIMIZER ADDED SUBROUTINE, CALLED 2 TIMES, CODE SIZE REDUCTION:5 WORDS
SUBOPT_0x1D:
	__POINTW1FN _msg10,2
	LPM  R30,Z
	LDS  R26,_count_byte
	LDS  R27,_count_byte+1
	LDI  R31,0
	CP   R26,R30
	CPC  R27,R31
	RET

;OPTIMIZER ADDED SUBROUTINE, CALLED 2 TIMES, CODE SIZE REDUCTION:5 WORDS
SUBOPT_0x1E:
	__POINTW1FN _msg11,2
	LPM  R30,Z
	LDS  R26,_count_byte
	LDS  R27,_count_byte+1
	LDI  R31,0
	CP   R26,R30
	CPC  R27,R31
	RET

;OPTIMIZER ADDED SUBROUTINE, CALLED 2 TIMES, CODE SIZE REDUCTION:5 WORDS
SUBOPT_0x1F:
	__POINTW1FN _msg12,2
	LPM  R30,Z
	LDS  R26,_count_byte
	LDS  R27,_count_byte+1
	LDI  R31,0
	CP   R26,R30
	CPC  R27,R31
	RET

;OPTIMIZER ADDED SUBROUTINE, CALLED 2 TIMES, CODE SIZE REDUCTION:5 WORDS
SUBOPT_0x20:
	__POINTW1FN _msg13,2
	LPM  R30,Z
	LDS  R26,_count_byte
	LDS  R27,_count_byte+1
	LDI  R31,0
	CP   R26,R30
	CPC  R27,R31
	RET

;OPTIMIZER ADDED SUBROUTINE, CALLED 2 TIMES, CODE SIZE REDUCTION:5 WORDS
SUBOPT_0x21:
	__POINTW1FN _msg15,2
	LPM  R30,Z
	LDS  R26,_count_byte
	LDS  R27,_count_byte+1
	LDI  R31,0
	CP   R26,R30
	CPC  R27,R31
	RET

;OPTIMIZER ADDED SUBROUTINE, CALLED 2 TIMES, CODE SIZE REDUCTION:5 WORDS
SUBOPT_0x22:
	__POINTW1FN _msg16,2
	LPM  R30,Z
	LDS  R26,_count_byte
	LDS  R27,_count_byte+1
	LDI  R31,0
	CP   R26,R30
	CPC  R27,R31
	RET

;OPTIMIZER ADDED SUBROUTINE, CALLED 2 TIMES, CODE SIZE REDUCTION:5 WORDS
SUBOPT_0x23:
	__POINTW1FN _msg17,2
	LPM  R30,Z
	LDS  R26,_count_byte
	LDS  R27,_count_byte+1
	LDI  R31,0
	CP   R26,R30
	CPC  R27,R31
	RET

;OPTIMIZER ADDED SUBROUTINE, CALLED 2 TIMES, CODE SIZE REDUCTION:5 WORDS
SUBOPT_0x24:
	__POINTW1FN _msg18,2
	LPM  R30,Z
	LDS  R26,_count_byte
	LDS  R27,_count_byte+1
	LDI  R31,0
	CP   R26,R30
	CPC  R27,R31
	RET

;OPTIMIZER ADDED SUBROUTINE, CALLED 2 TIMES, CODE SIZE REDUCTION:5 WORDS
SUBOPT_0x25:
	__POINTW1FN _msg19,2
	LPM  R30,Z
	LDS  R26,_count_byte
	LDS  R27,_count_byte+1
	LDI  R31,0
	CP   R26,R30
	CPC  R27,R31
	RET

;OPTIMIZER ADDED SUBROUTINE, CALLED 2 TIMES, CODE SIZE REDUCTION:5 WORDS
SUBOPT_0x26:
	__POINTW1FN _msg20,2
	LPM  R30,Z
	LDS  R26,_count_byte
	LDS  R27,_count_byte+1
	LDI  R31,0
	CP   R26,R30
	CPC  R27,R31
	RET

;OPTIMIZER ADDED SUBROUTINE, CALLED 2 TIMES, CODE SIZE REDUCTION:5 WORDS
SUBOPT_0x27:
	__POINTW1FN _msg21,2
	LPM  R30,Z
	LDS  R26,_count_byte
	LDS  R27,_count_byte+1
	LDI  R31,0
	CP   R26,R30
	CPC  R27,R31
	RET

;OPTIMIZER ADDED SUBROUTINE, CALLED 2 TIMES, CODE SIZE REDUCTION:5 WORDS
SUBOPT_0x28:
	__POINTW1FN _msg22,2
	LPM  R30,Z
	LDS  R26,_count_byte
	LDS  R27,_count_byte+1
	LDI  R31,0
	CP   R26,R30
	CPC  R27,R31
	RET

;OPTIMIZER ADDED SUBROUTINE, CALLED 2 TIMES, CODE SIZE REDUCTION:5 WORDS
SUBOPT_0x29:
	__POINTW1FN _msg23,2
	LPM  R30,Z
	LDS  R26,_count_byte
	LDS  R27,_count_byte+1
	LDI  R31,0
	CP   R26,R30
	CPC  R27,R31
	RET

;OPTIMIZER ADDED SUBROUTINE, CALLED 2 TIMES, CODE SIZE REDUCTION:5 WORDS
SUBOPT_0x2A:
	__POINTW1FN _msg24,2
	LPM  R30,Z
	LDS  R26,_count_byte
	LDS  R27,_count_byte+1
	LDI  R31,0
	CP   R26,R30
	CPC  R27,R31
	RET

;OPTIMIZER ADDED SUBROUTINE, CALLED 2 TIMES, CODE SIZE REDUCTION:5 WORDS
SUBOPT_0x2B:
	__POINTW1FN _msg25,2
	LPM  R30,Z
	LDS  R26,_count_byte
	LDS  R27,_count_byte+1
	LDI  R31,0
	CP   R26,R30
	CPC  R27,R31
	RET

;OPTIMIZER ADDED SUBROUTINE, CALLED 2 TIMES, CODE SIZE REDUCTION:5 WORDS
SUBOPT_0x2C:
	__POINTW1FN _msg26,2
	LPM  R30,Z
	LDS  R26,_count_byte
	LDS  R27,_count_byte+1
	LDI  R31,0
	CP   R26,R30
	CPC  R27,R31
	RET

;OPTIMIZER ADDED SUBROUTINE, CALLED 2 TIMES, CODE SIZE REDUCTION:5 WORDS
SUBOPT_0x2D:
	__POINTW1FN _msg27,2
	LPM  R30,Z
	LDS  R26,_count_byte
	LDS  R27,_count_byte+1
	LDI  R31,0
	CP   R26,R30
	CPC  R27,R31
	RET

;OPTIMIZER ADDED SUBROUTINE, CALLED 2 TIMES, CODE SIZE REDUCTION:5 WORDS
SUBOPT_0x2E:
	__POINTW1FN _msg28,2
	LPM  R30,Z
	LDS  R26,_count_byte
	LDS  R27,_count_byte+1
	LDI  R31,0
	CP   R26,R30
	CPC  R27,R31
	RET

;OPTIMIZER ADDED SUBROUTINE, CALLED 2 TIMES, CODE SIZE REDUCTION:5 WORDS
SUBOPT_0x2F:
	__POINTW1FN _msg29,2
	LPM  R30,Z
	LDS  R26,_count_byte
	LDS  R27,_count_byte+1
	LDI  R31,0
	CP   R26,R30
	CPC  R27,R31
	RET

;OPTIMIZER ADDED SUBROUTINE, CALLED 2 TIMES, CODE SIZE REDUCTION:5 WORDS
SUBOPT_0x30:
	__POINTW1FN _msg30,2
	LPM  R30,Z
	LDS  R26,_count_byte
	LDS  R27,_count_byte+1
	LDI  R31,0
	CP   R26,R30
	CPC  R27,R31
	RET

;OPTIMIZER ADDED SUBROUTINE, CALLED 2 TIMES, CODE SIZE REDUCTION:5 WORDS
SUBOPT_0x31:
	__POINTW1FN _msg31,2
	LPM  R30,Z
	LDS  R26,_count_byte
	LDS  R27,_count_byte+1
	LDI  R31,0
	CP   R26,R30
	CPC  R27,R31
	RET

;OPTIMIZER ADDED SUBROUTINE, CALLED 2 TIMES, CODE SIZE REDUCTION:5 WORDS
SUBOPT_0x32:
	__POINTW1FN _msg32,2
	LPM  R30,Z
	LDS  R26,_count_byte
	LDS  R27,_count_byte+1
	LDI  R31,0
	CP   R26,R30
	CPC  R27,R31
	RET

;OPTIMIZER ADDED SUBROUTINE, CALLED 2 TIMES, CODE SIZE REDUCTION:5 WORDS
SUBOPT_0x33:
	__POINTW1FN _msg33,2
	LPM  R30,Z
	LDS  R26,_count_byte
	LDS  R27,_count_byte+1
	LDI  R31,0
	CP   R26,R30
	CPC  R27,R31
	RET

;OPTIMIZER ADDED SUBROUTINE, CALLED 2 TIMES, CODE SIZE REDUCTION:5 WORDS
SUBOPT_0x34:
	__POINTW1FN _msg34,2
	LPM  R30,Z
	LDS  R26,_count_byte
	LDS  R27,_count_byte+1
	LDI  R31,0
	CP   R26,R30
	CPC  R27,R31
	RET

;OPTIMIZER ADDED SUBROUTINE, CALLED 2 TIMES, CODE SIZE REDUCTION:5 WORDS
SUBOPT_0x35:
	__POINTW1FN _msg35,2
	LPM  R30,Z
	LDS  R26,_count_byte
	LDS  R27,_count_byte+1
	LDI  R31,0
	CP   R26,R30
	CPC  R27,R31
	RET

;OPTIMIZER ADDED SUBROUTINE, CALLED 2 TIMES, CODE SIZE REDUCTION:5 WORDS
SUBOPT_0x36:
	__POINTW1FN _msg36,2
	LPM  R30,Z
	LDS  R26,_count_byte
	LDS  R27,_count_byte+1
	LDI  R31,0
	CP   R26,R30
	CPC  R27,R31
	RET

;OPTIMIZER ADDED SUBROUTINE, CALLED 2 TIMES, CODE SIZE REDUCTION:5 WORDS
SUBOPT_0x37:
	__POINTW1FN _msg37,2
	LPM  R30,Z
	LDS  R26,_count_byte
	LDS  R27,_count_byte+1
	LDI  R31,0
	CP   R26,R30
	CPC  R27,R31
	RET

;OPTIMIZER ADDED SUBROUTINE, CALLED 2 TIMES, CODE SIZE REDUCTION:5 WORDS
SUBOPT_0x38:
	__POINTW1FN _msg38,2
	LPM  R30,Z
	LDS  R26,_count_byte
	LDS  R27,_count_byte+1
	LDI  R31,0
	CP   R26,R30
	CPC  R27,R31
	RET

;OPTIMIZER ADDED SUBROUTINE, CALLED 2 TIMES, CODE SIZE REDUCTION:5 WORDS
SUBOPT_0x39:
	__POINTW1FN _msg39,2
	LPM  R30,Z
	LDS  R26,_count_byte
	LDS  R27,_count_byte+1
	LDI  R31,0
	CP   R26,R30
	CPC  R27,R31
	RET

;OPTIMIZER ADDED SUBROUTINE, CALLED 2 TIMES, CODE SIZE REDUCTION:5 WORDS
SUBOPT_0x3A:
	__POINTW1FN _msg40,2
	LPM  R30,Z
	LDS  R26,_count_byte
	LDS  R27,_count_byte+1
	LDI  R31,0
	CP   R26,R30
	CPC  R27,R31
	RET

;OPTIMIZER ADDED SUBROUTINE, CALLED 2 TIMES, CODE SIZE REDUCTION:5 WORDS
SUBOPT_0x3B:
	__POINTW1FN _msg,2
	LPM  R30,Z
	LDS  R26,_count_byte
	LDS  R27,_count_byte+1
	LDI  R31,0
	CP   R26,R30
	CPC  R27,R31
	RET

;OPTIMIZER ADDED SUBROUTINE, CALLED 6 TIMES, CODE SIZE REDUCTION:7 WORDS
SUBOPT_0x3C:
	LDS  R26,_row
	LDS  R27,_row+1
	RET

;OPTIMIZER ADDED SUBROUTINE, CALLED 6 TIMES, CODE SIZE REDUCTION:7 WORDS
SUBOPT_0x3D:
	LDS  R30,_wb
	LDS  R31,_wb+1
	RET

;OPTIMIZER ADDED SUBROUTINE, CALLED 2 TIMES, CODE SIZE REDUCTION:2 WORDS
SUBOPT_0x3E:
	SBIW R30,1
	LDS  R26,_j
	LDS  R27,_j+1
	CP   R26,R30
	CPC  R27,R31
	RET

;OPTIMIZER ADDED SUBROUTINE, CALLED 4 TIMES, CODE SIZE REDUCTION:9 WORDS
SUBOPT_0x3F:
	RCALL SUBOPT_0x3D
	RCALL SUBOPT_0x3C
	CALL __MULW12U
	RET

;OPTIMIZER ADDED SUBROUTINE, CALLED 2 TIMES, CODE SIZE REDUCTION:3 WORDS
SUBOPT_0x40:
	LDS  R26,_j
	LDS  R27,_j+1
	ADD  R30,R26
	ADC  R31,R27
	MOVW R0,R30
	MOVW R26,R30
	RET

;OPTIMIZER ADDED SUBROUTINE, CALLED 2 TIMES, CODE SIZE REDUCTION:3 WORDS
SUBOPT_0x41:
	LD   R30,Z
	ROL  R30
	LDI  R30,0
	ROL  R30
	OR   R30,R22
	__GETW2R 23,24
	ST   X,R30
	RET

;OPTIMIZER ADDED SUBROUTINE, CALLED 2 TIMES, CODE SIZE REDUCTION:8 WORDS
SUBOPT_0x42:
	LDS  R26,_wb
	LDS  R27,_wb+1
	ADD  R26,R30
	ADC  R27,R31
	LDI  R30,LOW(1)
	LDI  R31,HIGH(1)
	CALL __SWAPW12
	SUB  R30,R26
	SBC  R31,R27
	MOVW R26,R30
	RET

;OPTIMIZER ADDED SUBROUTINE, CALLED 2 TIMES, CODE SIZE REDUCTION:8 WORDS
SUBOPT_0x43:
	LD   R30,Z
	LSL  R30
	MOV  R1,R30
	LDS  R26,_b_data
	LDS  R27,_b_data+1
	LDI  R30,LOW(7)
	CALL __LSRW12
	OR   R30,R1
	MOVW R26,R22
	ST   X,R30
	RET

;OPTIMIZER ADDED SUBROUTINE, CALLED 2 TIMES, CODE SIZE REDUCTION:1 WORDS
SUBOPT_0x44:
	ST   -Y,R27
	ST   -Y,R26
	LDI  R26,LOW(_k)
	LDI  R27,HIGH(_k)
	RJMP SUBOPT_0x12

;OPTIMIZER ADDED SUBROUTINE, CALLED 76 TIMES, CODE SIZE REDUCTION:147 WORDS
SUBOPT_0x45:
	LDS  R26,_k
	LDS  R27,_k+1
	RET

;OPTIMIZER ADDED SUBROUTINE, CALLED 2 TIMES, CODE SIZE REDUCTION:4 WORDS
SUBOPT_0x46:
	LDI  R30,LOW(0)
	STS  _count_bit,R30
	STS  _count_bit+1,R30
	LDI  R26,LOW(_count_byte)
	LDI  R27,HIGH(_count_byte)
	RJMP SUBOPT_0x12

;OPTIMIZER ADDED SUBROUTINE, CALLED 2 TIMES, CODE SIZE REDUCTION:3 WORDS
SUBOPT_0x47:
	LD   R30,Y
	LDD  R31,Y+1
	LDS  R26,_count_byte
	LDS  R27,_count_byte+1
	CP   R30,R26
	CPC  R31,R27
	RET

;OPTIMIZER ADDED SUBROUTINE, CALLED 2 TIMES, CODE SIZE REDUCTION:4 WORDS
SUBOPT_0x48:
	LDI  R30,LOW(0)
	STS  _count_byte,R30
	STS  _count_byte+1,R30
	LDI  R26,LOW(_effect)
	LDI  R27,HIGH(_effect)
	RJMP SUBOPT_0x12

;OPTIMIZER ADDED SUBROUTINE, CALLED 2 TIMES, CODE SIZE REDUCTION:4 WORDS
SUBOPT_0x49:
	LDI  R30,LOW(1)
	EOR  R3,R30
	SET
	BLD  R2,7
	LDI  R30,LOW(0)
	STS  _k,R30
	STS  _k+1,R30
	RET

;OPTIMIZER ADDED SUBROUTINE, CALLED 5 TIMES, CODE SIZE REDUCTION:13 WORDS
SUBOPT_0x4A:
	LPM  R30,Z
	LDI  R31,0
	ADIW R30,4
	MOVW R26,R30
	JMP  _check_effect_left_right

;OPTIMIZER ADDED SUBROUTINE, CALLED 2 TIMES, CODE SIZE REDUCTION:8 WORDS
SUBOPT_0x4B:
	ST   -Y,R0
	ST   -Y,R1
	ST   -Y,R15
	ST   -Y,R22
	ST   -Y,R23
	ST   -Y,R24
	ST   -Y,R25
	ST   -Y,R26
	ST   -Y,R27
	ST   -Y,R30
	ST   -Y,R31
	IN   R30,SREG
	ST   -Y,R30
	RET

;OPTIMIZER ADDED SUBROUTINE, CALLED 22 TIMES, CODE SIZE REDUCTION:81 WORDS
SUBOPT_0x4C:
	LDI  R27,0
	SBRC R26,7
	SER  R27
	LDI  R31,0
	CP   R30,R26
	CPC  R31,R27
	RET

;OPTIMIZER ADDED SUBROUTINE, CALLED 2 TIMES, CODE SIZE REDUCTION:3 WORDS
SUBOPT_0x4D:
	LDI  R26,0
	SBIC 0x19,0
	LDI  R26,1
	LDI  R30,0
	SBRC R2,3
	LDI  R30,1
	RJMP SUBOPT_0x4C

;OPTIMIZER ADDED SUBROUTINE, CALLED 2 TIMES, CODE SIZE REDUCTION:1 WORDS
SUBOPT_0x4E:
	LDS  R30,_day
	ST   -Y,R30
	LDS  R30,_month
	ST   -Y,R30
	RET

;OPTIMIZER ADDED SUBROUTINE, CALLED 8 TIMES, CODE SIZE REDUCTION:39 WORDS
SUBOPT_0x4F:
	LDI  R26,0
	SBIC 0x13,3
	LDI  R26,1
	LDI  R30,0
	SBRC R2,1
	LDI  R30,1
	RJMP SUBOPT_0x4C

;OPTIMIZER ADDED SUBROUTINE, CALLED 8 TIMES, CODE SIZE REDUCTION:39 WORDS
SUBOPT_0x50:
	LDI  R26,0
	SBIC 0x13,4
	LDI  R26,1
	LDI  R30,0
	SBRC R2,2
	LDI  R30,1
	RJMP SUBOPT_0x4C

;OPTIMIZER ADDED SUBROUTINE, CALLED 20 TIMES, CODE SIZE REDUCTION:111 WORDS
SUBOPT_0x51:
	LDS  R26,_min
	CLR  R27
	LDI  R30,LOW(5)
	LDI  R31,HIGH(5)
	CALL __MODW21
	SBIW R30,0
	RET

;OPTIMIZER ADDED SUBROUTINE, CALLED 2 TIMES, CODE SIZE REDUCTION:3 WORDS
SUBOPT_0x52:
	LDS  R26,_min
	CLR  R27
	LDI  R30,LOW(4)
	LDI  R31,HIGH(4)
	CALL __MODW21
	SBIW R30,0
	RET

;OPTIMIZER ADDED SUBROUTINE, CALLED 2 TIMES, CODE SIZE REDUCTION:3 WORDS
SUBOPT_0x53:
	LDS  R26,_min
	CLR  R27
	LDI  R30,LOW(2)
	LDI  R31,HIGH(2)
	CALL __MODW21
	SBIW R30,0
	RET

;OPTIMIZER ADDED SUBROUTINE, CALLED 7 TIMES, CODE SIZE REDUCTION:33 WORDS
SUBOPT_0x54:
	LDS  R26,_min
	CLR  R27
	LDI  R30,LOW(10)
	LDI  R31,HIGH(10)
	CALL __MODW21
	SBIW R30,0
	RET

;OPTIMIZER ADDED SUBROUTINE, CALLED 15 TIMES, CODE SIZE REDUCTION:39 WORDS
SUBOPT_0x55:
	LDI  R30,LOW(0)
	STS  _k,R30
	STS  _k+1,R30
	RET

;OPTIMIZER ADDED SUBROUTINE, CALLED 12 TIMES, CODE SIZE REDUCTION:63 WORDS
SUBOPT_0x56:
	RCALL SUBOPT_0x45
	SUBI R26,LOW(-_buf_screen_1)
	SBCI R27,HIGH(-_buf_screen_1)
	LDS  R30,_k
	LDS  R31,_k+1
	RET

;OPTIMIZER ADDED SUBROUTINE, CALLED 41 TIMES, CODE SIZE REDUCTION:157 WORDS
SUBOPT_0x57:
	LPM  R30,Z
	ST   X,R30
	LDS  R30,_k
	LDS  R31,_k+1
	RET

;OPTIMIZER ADDED SUBROUTINE, CALLED 12 TIMES, CODE SIZE REDUCTION:52 WORDS
SUBOPT_0x58:
	__ADDW1MN _buf_screen_1,16
	MOVW R26,R30
	LDS  R30,_k
	LDS  R31,_k+1
	RET

;OPTIMIZER ADDED SUBROUTINE, CALLED 13 TIMES, CODE SIZE REDUCTION:57 WORDS
SUBOPT_0x59:
	__ADDW1MN _buf_screen_1,32
	MOVW R26,R30
	LDS  R30,_k
	LDS  R31,_k+1
	RET

;OPTIMIZER ADDED SUBROUTINE, CALLED 9 TIMES, CODE SIZE REDUCTION:37 WORDS
SUBOPT_0x5A:
	__ADDW1MN _buf_screen_1,48
	MOVW R26,R30
	LDS  R30,_k
	LDS  R31,_k+1
	RET

;OPTIMIZER ADDED SUBROUTINE, CALLED 106 TIMES, CODE SIZE REDUCTION:207 WORDS
SUBOPT_0x5B:
	LDS  R30,_k
	LDS  R31,_k+1
	RET

;OPTIMIZER ADDED SUBROUTINE, CALLED 10 TIMES, CODE SIZE REDUCTION:60 WORDS
SUBOPT_0x5C:
	__ADDW1MN _buf_screen_1,8
	MOVW R26,R30
	RCALL SUBOPT_0x5B
	SUBI R30,LOW(-_text_muiten*2)
	SBCI R31,HIGH(-_text_muiten*2)
	LPM  R30,Z
	ST   X,R30
	RET

;OPTIMIZER ADDED SUBROUTINE, CALLED 12 TIMES, CODE SIZE REDUCTION:41 WORDS
SUBOPT_0x5D:
	RCALL SUBOPT_0x5B
	__ADDW1MN _buf_screen_1,8
	LDI  R26,LOW(0)
	STD  Z+0,R26
	RET

;OPTIMIZER ADDED SUBROUTINE, CALLED 7 TIMES, CODE SIZE REDUCTION:9 WORDS
SUBOPT_0x5E:
	RCALL SUBOPT_0x5B
	__ADDW1MN _buf_screen_1,24
	RET

;OPTIMIZER ADDED SUBROUTINE, CALLED 3 TIMES, CODE SIZE REDUCTION:15 WORDS
SUBOPT_0x5F:
	MOV  R26,R5
	CALL _giaima
	LDI  R31,0
	RCALL SUBOPT_0x45
	ADD  R30,R26
	ADC  R31,R27
	SUBI R30,LOW(-_font_sohang2*2)
	SBCI R31,HIGH(-_font_sohang2*2)
	LPM  R30,Z
	RET

;OPTIMIZER ADDED SUBROUTINE, CALLED 3 TIMES, CODE SIZE REDUCTION:19 WORDS
SUBOPT_0x60:
	ST   X,R30
	RCALL SUBOPT_0x5B
	__ADDW1MN _buf_screen_1,40
	LDI  R26,LOW(0)
	STD  Z+0,R26
	RCALL SUBOPT_0x5B
	__ADDW1MN _buf_screen_1,56
	LDI  R26,LOW(0)
	STD  Z+0,R26
	RET

;OPTIMIZER ADDED SUBROUTINE, CALLED 15 TIMES, CODE SIZE REDUCTION:25 WORDS
SUBOPT_0x61:
	LDI  R26,LOW(_k)
	LDI  R27,HIGH(_k)
	RJMP SUBOPT_0x12

;OPTIMIZER ADDED SUBROUTINE, CALLED 9 TIMES, CODE SIZE REDUCTION:13 WORDS
SUBOPT_0x62:
	RCALL SUBOPT_0x5B
	RJMP SUBOPT_0x5C

;OPTIMIZER ADDED SUBROUTINE, CALLED 4 TIMES, CODE SIZE REDUCTION:3 WORDS
SUBOPT_0x63:
	__ADDW1MN _buf_screen_1,48
	LDI  R26,LOW(0)
	STD  Z+0,R26
	RET

;OPTIMIZER ADDED SUBROUTINE, CALLED 4 TIMES, CODE SIZE REDUCTION:3 WORDS
SUBOPT_0x64:
	RCALL SUBOPT_0x5B
	SUBI R30,LOW(-_buf_screen_1)
	SBCI R31,HIGH(-_buf_screen_1)
	RET

;OPTIMIZER ADDED SUBROUTINE, CALLED 44 TIMES, CODE SIZE REDUCTION:126 WORDS
SUBOPT_0x65:
	LDI  R31,0
	RCALL SUBOPT_0x45
	ADD  R30,R26
	ADC  R31,R27
	RET

;OPTIMIZER ADDED SUBROUTINE, CALLED 4 TIMES, CODE SIZE REDUCTION:3 WORDS
SUBOPT_0x66:
	RCALL SUBOPT_0x5B
	__ADDW1MN _buf_screen_1,16
	RET

;OPTIMIZER ADDED SUBROUTINE, CALLED 2 TIMES, CODE SIZE REDUCTION:2 WORDS
SUBOPT_0x67:
	SUBI R30,LOW(-_font_sohang2*2)
	SBCI R31,HIGH(-_font_sohang2*2)
	LPM  R30,Z
	MOVW R26,R0
	ST   X,R30
	RJMP SUBOPT_0x5B

;OPTIMIZER ADDED SUBROUTINE, CALLED 3 TIMES, CODE SIZE REDUCTION:3 WORDS
SUBOPT_0x68:
	ST   X,R30
	RCALL SUBOPT_0x5B
	__ADDW1MN _buf_screen_1,40
	RET

;OPTIMIZER ADDED SUBROUTINE, CALLED 3 TIMES, CODE SIZE REDUCTION:3 WORDS
SUBOPT_0x69:
	ST   X,R30
	RCALL SUBOPT_0x5B
	__ADDW1MN _buf_screen_1,56
	RET

;OPTIMIZER ADDED SUBROUTINE, CALLED 3 TIMES, CODE SIZE REDUCTION:1 WORDS
SUBOPT_0x6A:
	RCALL SUBOPT_0x5B
	__ADDW1MN _buf_screen_1,56
	RET

;OPTIMIZER ADDED SUBROUTINE, CALLED 8 TIMES, CODE SIZE REDUCTION:11 WORDS
SUBOPT_0x6B:
	RCALL SUBOPT_0x5B
	RJMP SUBOPT_0x58

;OPTIMIZER ADDED SUBROUTINE, CALLED 6 TIMES, CODE SIZE REDUCTION:17 WORDS
SUBOPT_0x6C:
	LDS  R26,_week
	CALL _giaima
	RJMP SUBOPT_0x65

;OPTIMIZER ADDED SUBROUTINE, CALLED 8 TIMES, CODE SIZE REDUCTION:18 WORDS
SUBOPT_0x6D:
	ST   X,R30
	RCALL SUBOPT_0x5B
	RJMP SUBOPT_0x59

;OPTIMIZER ADDED SUBROUTINE, CALLED 7 TIMES, CODE SIZE REDUCTION:15 WORDS
SUBOPT_0x6E:
	ST   X,R30
	RCALL SUBOPT_0x5B
	RJMP SUBOPT_0x5A

;OPTIMIZER ADDED SUBROUTINE, CALLED 2 TIMES, CODE SIZE REDUCTION:7 WORDS
SUBOPT_0x6F:
	LDS  R26,_day
	LDI  R27,0
	LDI  R30,LOW(10)
	LDI  R31,HIGH(10)
	CALL __DIVW21
	MOV  R26,R30
	CALL _giaima
	RJMP SUBOPT_0x65

;OPTIMIZER ADDED SUBROUTINE, CALLED 30 TIMES, CODE SIZE REDUCTION:55 WORDS
SUBOPT_0x70:
	CALL _giaima
	RJMP SUBOPT_0x65

;OPTIMIZER ADDED SUBROUTINE, CALLED 2 TIMES, CODE SIZE REDUCTION:5 WORDS
SUBOPT_0x71:
	LDS  R26,_day
	CLR  R27
	LDI  R30,LOW(10)
	LDI  R31,HIGH(10)
	CALL __MODW21
	MOV  R26,R30
	RJMP SUBOPT_0x70

;OPTIMIZER ADDED SUBROUTINE, CALLED 2 TIMES, CODE SIZE REDUCTION:5 WORDS
SUBOPT_0x72:
	LDS  R26,_month
	LDI  R27,0
	LDI  R30,LOW(10)
	LDI  R31,HIGH(10)
	CALL __DIVW21
	MOV  R26,R30
	RJMP SUBOPT_0x70

;OPTIMIZER ADDED SUBROUTINE, CALLED 2 TIMES, CODE SIZE REDUCTION:5 WORDS
SUBOPT_0x73:
	LDS  R26,_year
	LDI  R27,0
	LDI  R30,LOW(10)
	LDI  R31,HIGH(10)
	CALL __DIVW21
	MOV  R26,R30
	RJMP SUBOPT_0x70

;OPTIMIZER ADDED SUBROUTINE, CALLED 2 TIMES, CODE SIZE REDUCTION:5 WORDS
SUBOPT_0x74:
	LDS  R26,_month
	CLR  R27
	LDI  R30,LOW(10)
	LDI  R31,HIGH(10)
	CALL __MODW21
	MOV  R26,R30
	RJMP SUBOPT_0x70

;OPTIMIZER ADDED SUBROUTINE, CALLED 2 TIMES, CODE SIZE REDUCTION:5 WORDS
SUBOPT_0x75:
	LDS  R26,_year
	CLR  R27
	LDI  R30,LOW(10)
	LDI  R31,HIGH(10)
	CALL __MODW21
	MOV  R26,R30
	RJMP SUBOPT_0x70

;OPTIMIZER ADDED SUBROUTINE, CALLED 5 TIMES, CODE SIZE REDUCTION:21 WORDS
SUBOPT_0x76:
	LDI  R27,0
	LDI  R30,LOW(10)
	LDI  R31,HIGH(10)
	CALL __DIVW21
	MOV  R26,R30
	RJMP SUBOPT_0x70

;OPTIMIZER ADDED SUBROUTINE, CALLED 9 TIMES, CODE SIZE REDUCTION:45 WORDS
SUBOPT_0x77:
	CLR  R27
	LDI  R30,LOW(10)
	LDI  R31,HIGH(10)
	CALL __MODW21
	MOV  R26,R30
	RJMP SUBOPT_0x70

;OPTIMIZER ADDED SUBROUTINE, CALLED 4 TIMES, CODE SIZE REDUCTION:3 WORDS
SUBOPT_0x78:
	LDS  R26,_nam_amlich
	RJMP SUBOPT_0x77

;OPTIMIZER ADDED SUBROUTINE, CALLED 4 TIMES, CODE SIZE REDUCTION:27 WORDS
SUBOPT_0x79:
	LDS  R26,_allnam_amlich
	LDS  R27,_allnam_amlich+1
	SBIW R26,4
	LDI  R30,LOW(12)
	LDI  R31,HIGH(12)
	CALL __MODW21U
	MOV  R26,R30
	RJMP SUBOPT_0x70

;OPTIMIZER ADDED SUBROUTINE, CALLED 4 TIMES, CODE SIZE REDUCTION:3 WORDS
SUBOPT_0x7A:
	__ADDW1MN _buf_screen_1,56
	LDI  R26,LOW(0)
	STD  Z+0,R26
	RET

;OPTIMIZER ADDED SUBROUTINE, CALLED 2 TIMES, CODE SIZE REDUCTION:2 WORDS
SUBOPT_0x7B:
	LDS  R26,_sec
	LDI  R27,0
	LDI  R30,LOW(10)
	LDI  R31,HIGH(10)
	CALL __DIVW21
	RET

;OPTIMIZER ADDED SUBROUTINE, CALLED 2 TIMES, CODE SIZE REDUCTION:2 WORDS
SUBOPT_0x7C:
	LDS  R26,_sec
	CLR  R27
	LDI  R30,LOW(10)
	LDI  R31,HIGH(10)
	CALL __MODW21
	RET

;OPTIMIZER ADDED SUBROUTINE, CALLED 2 TIMES, CODE SIZE REDUCTION:2 WORDS
SUBOPT_0x7D:
	LDS  R26,_min
	LDI  R27,0
	LDI  R30,LOW(10)
	LDI  R31,HIGH(10)
	CALL __DIVW21
	RET

;OPTIMIZER ADDED SUBROUTINE, CALLED 2 TIMES, CODE SIZE REDUCTION:2 WORDS
SUBOPT_0x7E:
	CLR  R27
	LDI  R30,LOW(10)
	LDI  R31,HIGH(10)
	CALL __MODW21
	CALL __LSLW3
	RET

;OPTIMIZER ADDED SUBROUTINE, CALLED 2 TIMES, CODE SIZE REDUCTION:2 WORDS
SUBOPT_0x7F:
	LDS  R26,_hour
	LDI  R27,0
	LDI  R30,LOW(10)
	LDI  R31,HIGH(10)
	CALL __DIVW21
	RET

;OPTIMIZER ADDED SUBROUTINE, CALLED 5 TIMES, CODE SIZE REDUCTION:17 WORDS
SUBOPT_0x80:
	LDD  R30,Y+7
	LDI  R31,0
	SBIW R30,13
	LDI  R26,LOW(12)
	LDI  R27,HIGH(12)
	CALL __MULW12U
	RET

;OPTIMIZER ADDED SUBROUTINE, CALLED 2 TIMES, CODE SIZE REDUCTION:1 WORDS
SUBOPT_0x81:
	MOVW R26,R30
	LDD  R30,Y+8
	LDI  R31,0
	SBIW R30,1
	ADD  R30,R26
	ADC  R31,R27
	RET

;OPTIMIZER ADDED SUBROUTINE, CALLED 2 TIMES, CODE SIZE REDUCTION:1 WORDS
SUBOPT_0x82:
	MOV  R26,R20
	CLR  R27
	LDD  R30,Y+9
	LDI  R31,0
	SUB  R26,R30
	SBC  R27,R31
	RET

;OPTIMIZER ADDED SUBROUTINE, CALLED 2 TIMES, CODE SIZE REDUCTION:1 WORDS
SUBOPT_0x83:
	LDD  R30,Y+9
	SUB  R30,R20
	SUBI R30,-LOW(1)
	MOV  R16,R30
	RJMP SUBOPT_0x80

;OPTIMIZER ADDED SUBROUTINE, CALLED 2 TIMES, CODE SIZE REDUCTION:3 WORDS
SUBOPT_0x84:
	CALL _i2c_start
	LDI  R26,LOW(208)
	CALL _i2c_write
	LDD  R26,Y+1
	JMP  _i2c_write

;OPTIMIZER ADDED SUBROUTINE, CALLED 3 TIMES, CODE SIZE REDUCTION:7 WORDS
SUBOPT_0x85:
	CALL _i2c_stop
	CALL _i2c_start
	LDI  R26,LOW(209)
	JMP  _i2c_write

;OPTIMIZER ADDED SUBROUTINE, CALLED 5 TIMES, CODE SIZE REDUCTION:9 WORDS
SUBOPT_0x86:
	CALL _i2c_start
	LDI  R26,LOW(208)
	JMP  _i2c_write

;OPTIMIZER ADDED SUBROUTINE, CALLED 4 TIMES, CODE SIZE REDUCTION:9 WORDS
SUBOPT_0x87:
	LDI  R26,LOW(1)
	CALL _i2c_read
	MOV  R26,R30
	JMP  _bcd2bin

;OPTIMIZER ADDED SUBROUTINE, CALLED 2 TIMES, CODE SIZE REDUCTION:4 WORDS
SUBOPT_0x88:
	LDD  R26,Y+2
	LDD  R27,Y+2+1
	ST   X,R30
	LDI  R26,LOW(0)
	CALL _i2c_read
	MOV  R26,R30
	JMP  _bcd2bin

;OPTIMIZER ADDED SUBROUTINE, CALLED 2 TIMES, CODE SIZE REDUCTION:3 WORDS
SUBOPT_0x89:
	CALL _i2c_write
	LD   R26,Y
	CALL _bin2bcd
	MOV  R26,R30
	JMP  _i2c_write

;OPTIMIZER ADDED SUBROUTINE, CALLED 2 TIMES, CODE SIZE REDUCTION:1 WORDS
SUBOPT_0x8A:
	CALL _i2c_write
	LDD  R26,Y+2
	CALL _bin2bcd
	MOV  R26,R30
	RET


	.CSEG
	.equ __i2c_dir=__i2c_port-1
	.equ __i2c_pin=__i2c_port-2

_i2c_init:
	cbi  __i2c_port,__scl_bit
	cbi  __i2c_port,__sda_bit
	sbi  __i2c_dir,__scl_bit
	cbi  __i2c_dir,__sda_bit
	rjmp __i2c_delay2
_i2c_start:
	cbi  __i2c_dir,__sda_bit
	cbi  __i2c_dir,__scl_bit
	clr  r30
	nop
	sbis __i2c_pin,__sda_bit
	ret
	sbis __i2c_pin,__scl_bit
	ret
	rcall __i2c_delay1
	sbi  __i2c_dir,__sda_bit
	rcall __i2c_delay1
	sbi  __i2c_dir,__scl_bit
	ldi  r30,1
__i2c_delay1:
	ldi  r22,7
	rjmp __i2c_delay2l
_i2c_stop:
	sbi  __i2c_dir,__sda_bit
	sbi  __i2c_dir,__scl_bit
	rcall __i2c_delay2
	cbi  __i2c_dir,__scl_bit
	rcall __i2c_delay1
	cbi  __i2c_dir,__sda_bit
__i2c_delay2:
	ldi  r22,13
__i2c_delay2l:
	dec  r22
	brne __i2c_delay2l
	ret
_i2c_read:
	ldi  r23,8
__i2c_read0:
	cbi  __i2c_dir,__scl_bit
	rcall __i2c_delay1
__i2c_read3:
	sbis __i2c_pin,__scl_bit
	rjmp __i2c_read3
	rcall __i2c_delay1
	clc
	sbic __i2c_pin,__sda_bit
	sec
	sbi  __i2c_dir,__scl_bit
	rcall __i2c_delay2
	rol  r30
	dec  r23
	brne __i2c_read0
	mov  r23,r26
	tst  r23
	brne __i2c_read1
	cbi  __i2c_dir,__sda_bit
	rjmp __i2c_read2
__i2c_read1:
	sbi  __i2c_dir,__sda_bit
__i2c_read2:
	rcall __i2c_delay1
	cbi  __i2c_dir,__scl_bit
	rcall __i2c_delay2
	sbi  __i2c_dir,__scl_bit
	rcall __i2c_delay1
	cbi  __i2c_dir,__sda_bit
	rjmp __i2c_delay1

_i2c_write:
	ldi  r23,8
__i2c_write0:
	lsl  r26
	brcc __i2c_write1
	cbi  __i2c_dir,__sda_bit
	rjmp __i2c_write2
__i2c_write1:
	sbi  __i2c_dir,__sda_bit
__i2c_write2:
	rcall __i2c_delay2
	cbi  __i2c_dir,__scl_bit
	rcall __i2c_delay1
__i2c_write3:
	sbis __i2c_pin,__scl_bit
	rjmp __i2c_write3
	rcall __i2c_delay1
	sbi  __i2c_dir,__scl_bit
	dec  r23
	brne __i2c_write0
	cbi  __i2c_dir,__sda_bit
	rcall __i2c_delay1
	cbi  __i2c_dir,__scl_bit
	rcall __i2c_delay2
	ldi  r30,1
	sbic __i2c_pin,__sda_bit
	clr  r30
	sbi  __i2c_dir,__scl_bit
	rjmp __i2c_delay1

_delay_ms:
	adiw r26,0
	breq __delay_ms1
__delay_ms0:
	__DELAY_USW 0x3E8
	wdr
	sbiw r26,1
	brne __delay_ms0
__delay_ms1:
	ret

__ANEGW1:
	NEG  R31
	NEG  R30
	SBCI R31,0
	RET

__LSLW12:
	TST  R30
	MOV  R0,R30
	MOVW R30,R26
	BREQ __LSLW12R
__LSLW12L:
	LSL  R30
	ROL  R31
	DEC  R0
	BRNE __LSLW12L
__LSLW12R:
	RET

__LSRW12:
	TST  R30
	MOV  R0,R30
	MOVW R30,R26
	BREQ __LSRW12R
__LSRW12L:
	LSR  R31
	ROR  R30
	DEC  R0
	BRNE __LSRW12L
__LSRW12R:
	RET

__LSLW3:
	LSL  R30
	ROL  R31
__LSLW2:
	LSL  R30
	ROL  R31
	LSL  R30
	ROL  R31
	RET

__MULW12U:
	MUL  R31,R26
	MOV  R31,R0
	MUL  R30,R27
	ADD  R31,R0
	MUL  R30,R26
	MOV  R30,R0
	ADD  R31,R1
	RET

__DIVW21U:
	CLR  R0
	CLR  R1
	LDI  R25,16
__DIVW21U1:
	LSL  R26
	ROL  R27
	ROL  R0
	ROL  R1
	SUB  R0,R30
	SBC  R1,R31
	BRCC __DIVW21U2
	ADD  R0,R30
	ADC  R1,R31
	RJMP __DIVW21U3
__DIVW21U2:
	SBR  R26,1
__DIVW21U3:
	DEC  R25
	BRNE __DIVW21U1
	MOVW R30,R26
	MOVW R26,R0
	RET

__DIVW21:
	RCALL __CHKSIGNW
	RCALL __DIVW21U
	BRTC __DIVW211
	RCALL __ANEGW1
__DIVW211:
	RET

__MODW21U:
	RCALL __DIVW21U
	MOVW R30,R26
	RET

__MODW21:
	CLT
	SBRS R27,7
	RJMP __MODW211
	COM  R26
	COM  R27
	ADIW R26,1
	SET
__MODW211:
	SBRC R31,7
	RCALL __ANEGW1
	RCALL __DIVW21U
	MOVW R30,R26
	BRTC __MODW212
	RCALL __ANEGW1
__MODW212:
	RET

__CHKSIGNW:
	CLT
	SBRS R31,7
	RJMP __CHKSW1
	RCALL __ANEGW1
	SET
__CHKSW1:
	SBRS R27,7
	RJMP __CHKSW2
	COM  R26
	COM  R27
	ADIW R26,1
	BLD  R0,0
	INC  R0
	BST  R0,0
__CHKSW2:
	RET

__SWAPW12:
	MOV  R1,R27
	MOV  R27,R31
	MOV  R31,R1

__SWAPB12:
	MOV  R1,R26
	MOV  R26,R30
	MOV  R30,R1
	RET

__CPW02:
	CLR  R0
	CP   R0,R26
	CPC  R0,R27
	RET

__SAVELOCR6:
	ST   -Y,R21
__SAVELOCR5:
	ST   -Y,R20
__SAVELOCR4:
	ST   -Y,R19
__SAVELOCR3:
	ST   -Y,R18
__SAVELOCR2:
	ST   -Y,R17
	ST   -Y,R16
	RET

__LOADLOCR6:
	LDD  R21,Y+5
__LOADLOCR5:
	LDD  R20,Y+4
__LOADLOCR4:
	LDD  R19,Y+3
__LOADLOCR3:
	LDD  R18,Y+2
__LOADLOCR2:
	LDD  R17,Y+1
	LD   R16,Y
	RET

;END OF CODE MARKER
__END_OF_CODE:
